(lp1
(dp2
S'reagent'
p3
S''
sS'pump'
p4
S'/dev/ttyUSB1'
p5
sS'port'
p6
I1
sa(dp7
g3
S''
sg4
g5
sg6
I2
sa(dp8
g3
S''
sg4
g5
sg6
I3
sa(dp9
g3
S''
sg4
g5
sg6
I4
sa(dp10
g3
S'1x instrument - cleave'
p11
sg4
g5
sg6
I5
sa(dp12
g3
S''
sg4
g5
sg6
I6
sa(dp13
g3
S'Air 1'
p14
sg4
g5
sg6
I7
sa(dp15
g3
S'Output 1'
p16
sg4
g5
sg6
I8
sa(dp17
g3
S'Waste 1'
p18
sg4
g5
sg6
I9
sa(dp19
g3
S''
sg4
S'/dev/ttyUSB0'
p20
sg6
I1
sa(dp21
g3
S'T4 ligase mix'
p22
sg4
g20
sg6
I2
sa(dp23
g3
S'1x instrument - ligase'
p24
sg4
g20
sg6
I3
sa(dp25
g3
S'dH2O - ligase'
p26
sg4
g20
sg6
I4
sa(dp27
g3
S'Imaging buffer'
p28
sg4
g20
sg6
I5
sa(dp29
g3
S''
sg4
g20
sg6
I6
sa(dp30
g3
S'Air 2'
p31
sg4
g20
sg6
I7
sa(dp32
g3
S'Output 2'
p33
sg4
g20
sg6
I8
sa(dp34
g3
S'Waste 2'
p35
sg4
g20
sg6
I9
sa.(lp1
(dp2
S'waitsecs'
p3
I5
sS'toportreagent'
p4
S'Output 1'
p5
sS'volume'
p6
I3900
sS'toport'
p7
I8
sS'cmdnumber'
p8
I0
sS'speed'
p9
I21
sS'cycle'
p10
I0
sS'waitmins'
p11
I0
sS'temp'
p12
I25
sS'heatwhen'
p13
I0
sS'fromport'
p14
I5
sS'pump'
p15
S'/dev/ttyUSB1'
p16
sS'fromportreagent'
p17
S'1x instrument - cleave'
p18
sS'waste'
p19
I0
sS'type'
p20
I0
sa(dp21
g3
I5
sg4
S'Waste 2'
p22
sg6
I1000
sg7
I9
sg8
I1
sg9
I30
sg10
I0
sg11
I0
sg12
I25
sg13
I0
sg14
I8
sg15
S'/dev/ttyUSB0'
p23
sg17
S'Output 2'
p24
sg19
I0
sg20
I0
sa(dp25
g3
I5
sg4
S'Waste 2'
p26
sg6
I1000
sg7
I9
sg8
I2
sg9
I30
sg10
I0
sg11
I0
sg12
I25
sg13
I0
sg14
I8
sg15
g23
sg17
S'Output 2'
p27
sg19
I0
sg20
I0
sa(dp28
g3
I5
sg4
S'Waste 2'
p29
sg6
I1000
sg7
I9
sg8
I3
sg9
I30
sg10
I0
sg11
I0
sg12
I25
sg13
I0
sg14
I8
sg15
g23
sg17
S'Output 2'
p30
sg19
I0
sg20
I0
sa(dp31
g3
I5
sg4
S'Waste 2'
p32
sg6
I1000
sg7
I9
sg8
I4
sg9
I30
sg10
I0
sg11
I0
sg12
I25
sg13
I0
sg14
I8
sg15
g23
sg17
S'Output 2'
p33
sg19
I0
sg20
I0
sa(dp34
g3
I5
sg4
S'Output 2'
p35
sg6
I230
sg7
I8
sg8
I5
sg9
I16
sg10
I0
sg11
I0
sg12
I25
sg13
I0
sg14
I2
sg15
g23
sg17
S'T4 ligase mix'
p36
sg19
I0
sg20
I0
sa(dp37
g3
I5
sg4
S'Waste 2'
p38
sg6
I1000
sg7
I9
sg8
I6
sg9
I8
sg10
I0
sg11
I0
sg12
I25
sg13
I0
sg14
I3
sg15
g23
sg17
S'1x instrument - ligase'
p39
sg19
I0
sg20
I0
sa(dp40
g3
I5
sg4
S'Waste 2'
p41
sg6
I1000
sg7
I9
sg8
I7
sg9
I8
sg10
I0
sg11
I0
sg12
I25
sg13
I0
sg14
I3
sg15
g23
sg17
S'1x instrument - ligase'
p42
sg19
I0
sg20
I0
sa(dp43
g3
I5
sg4
S'Waste 2'
p44
sg6
I1000
sg7
I9
sg8
I8
sg9
I8
sg10
I0
sg11
I0
sg12
I25
sg13
I0
sg14
I3
sg15
g23
sg17
S'1x instrument - ligase'
p45
sg19
I0
sg20
I0
sa(dp46
g3
I5
sg4
S'Waste 2'
p47
sg6
I1000
sg7
I9
sg8
I9
sg9
I8
sg10
I0
sg11
I45
sg12
I25
sg13
I0
sg14
I3
sg15
g23
sg17
S'1x instrument - ligase'
p48
sg19
I0
sg20
I0
sa(dp49
g3
I5
sg4
S'Waste 2'
p50
sg6
I300
sg7
I9
sg8
I10
sg9
I30
sg10
I0
sg11
I0
sg12
I25
sg13
I0
sg14
I8
sg15
g23
sg17
S'Output 2'
p51
sg19
I0
sg20
I0
sa(dp52
g3
I5
sg4
S'Waste 2'
p53
sg6
I1000
sg7
I9
sg8
I11
sg9
I8
sg10
I0
sg11
I0
sg12
I25
sg13
I0
sg14
I3
sg15
g23
sg17
S'1x instrument - ligase'
p54
sg19
I0
sg20
I0
sa(dp55
g3
I5
sg4
S'Waste 2'
p56
sg6
I1000
sg7
I9
sg8
I12
sg9
I8
sg10
I0
sg11
I0
sg12
I25
sg13
I0
sg14
I3
sg15
g23
sg17
S'1x instrument - ligase'
p57
sg19
I0
sg20
I0
sa(dp58
g3
I5
sg4
S'Waste 2'
p59
sg6
I1000
sg7
I9
sg8
I13
sg9
I8
sg10
I0
sg11
I0
sg12
I25
sg13
I0
sg14
I3
sg15
g23
sg17
S'1x instrument - ligase'
p60
sg19
I0
sg20
I0
sa(dp61
g3
I5
sg4
S'Waste 2'
p62
sg6
I1000
sg7
I9
sg8
I14
sg9
I8
sg10
I0
sg11
I0
sg12
I25
sg13
I0
sg14
I3
sg15
g23
sg17
S'1x instrument - ligase'
p63
sg19
I0
sg20
I0
sa(dp64
g3
I5
sg4
S'Output 1'
p65
sg6
I3900
sg7
I8
sg8
I15
sg9
I21
sg10
I0
sg11
I2
sg12
I25
sg13
I0
sg14
I5
sg15
g16
sg17
S'1x instrument - cleave'
p66
sg19
I0
sg20
I0
sa(dp67
g3
I5
sg4
S'Waste 2'
p68
sg6
I1000
sg7
I9
sg8
I16
sg9
I30
sg10
I0
sg11
I0
sg12
I25
sg13
I0
sg14
I8
sg15
g23
sg17
S'Output 2'
p69
sg19
I0
sg20
I0
sa(dp70
g3
I5
sg4
S'Waste 2'
p71
sg6
I1000
sg7
I9
sg8
I17
sg9
I30
sg10
I0
sg11
I0
sg12
I25
sg13
I0
sg14
I8
sg15
g23
sg17
S'Output 2'
p72
sg19
I0
sg20
I0
sa(dp73
g3
I5
sg4
S'Waste 2'
p74
sg6
I1000
sg7
I9
sg8
I18
sg9
I30
sg10
I0
sg11
I0
sg12
I25
sg13
I0
sg14
I8
sg15
g23
sg17
S'Output 2'
p75
sg19
I0
sg20
I0
sa(dp76
g3
I5
sg4
S'Waste 2'
p77
sg6
I1000
sg7
I9
sg8
I19
sg9
I30
sg10
I0
sg11
I0
sg12
I25
sg13
I0
sg14
I8
sg15
g23
sg17
S'Output 2'
p78
sg19
I0
sg20
I0
sa(dp79
g3
I5
sg4
S'Output 1'
p80
sg6
I3900
sg7
I8
sg8
I20
sg9
I21
sg10
I0
sg11
I2
sg12
I25
sg13
I0
sg14
I5
sg15
g16
sg17
S'1x instrument - cleave'
p81
sg19
I0
sg20
I0
sa(dp82
g3
I5
sg4
S'Waste 2'
p83
sg6
I1000
sg7
I9
sg8
I21
sg9
I30
sg10
I0
sg11
I0
sg12
I25
sg13
I0
sg14
I8
sg15
g23
sg17
S'Output 2'
p84
sg19
I0
sg20
I0
sa(dp85
g3
I5
sg4
S'Waste 2'
p86
sg6
I1000
sg7
I9
sg8
I22
sg9
I30
sg10
I0
sg11
I0
sg12
I25
sg13
I0
sg14
I8
sg15
g23
sg17
S'Output 2'
p87
sg19
I0
sg20
I0
sa(dp88
g3
I5
sg4
S'Waste 2'
p89
sg6
I1000
sg7
I9
sg8
I23
sg9
I30
sg10
I0
sg11
I0
sg12
I25
sg13
I0
sg14
I8
sg15
g23
sg17
S'Output 2'
p90
sg19
I0
sg20
I0
sa(dp91
g3
I5
sg4
S'Waste 2'
p92
sg6
I1000
sg7
I9
sg8
I24
sg9
I30
sg10
I0
sg11
I0
sg12
I25
sg13
I0
sg14
I8
sg15
g23
sg17
S'Output 2'
p93
sg19
I0
sg20
I0
sa(dp94
g3
I5
sg4
S'Output 1'
p95
sg6
I3900
sg7
I8
sg8
I25
sg9
I21
sg10
I0
sg11
I2
sg12
I25
sg13
I0
sg14
I5
sg15
g16
sg17
S'1x instrument - cleave'
p96
sg19
I0
sg20
I0
sa(dp97
g3
I5
sg4
S'Waste 2'
p98
sg6
I1000
sg7
I9
sg8
I26
sg9
I30
sg10
I0
sg11
I0
sg12
I25
sg13
I0
sg14
I8
sg15
g23
sg17
S'Output 2'
p99
sg19
I0
sg20
I0
sa(dp100
g3
I5
sg4
S'Waste 2'
p101
sg6
I1000
sg7
I9
sg8
I27
sg9
I30
sg10
I0
sg11
I0
sg12
I25
sg13
I0
sg14
I8
sg15
g23
sg17
S'Output 2'
p102
sg19
I0
sg20
I0
sa(dp103
g3
I5
sg4
S'Waste 2'
p104
sg6
I1000
sg7
I9
sg8
I28
sg9
I30
sg10
I0
sg11
I0
sg12
I25
sg13
I0
sg14
I8
sg15
g23
sg17
S'Output 2'
p105
sg19
I0
sg20
I0
sa(dp106
g3
I5
sg4
S'Waste 2'
p107
sg6
I1000
sg7
I9
sg8
I29
sg9
I30
sg10
I0
sg11
I0
sg12
I25
sg13
I0
sg14
I8
sg15
g23
sg17
S'Output 2'
p108
sg19
I0
sg20
I0
sa(dp109
g3
I5
sg4
S'Output 1'
p110
sg6
I3900
sg7
I8
sg8
I30
sg9
I21
sg10
I0
sg11
I2
sg12
I25
sg13
I0
sg14
I5
sg15
g16
sg17
S'1x instrument - cleave'
p111
sg19
I0
sg20
I0
sa(dp112
g3
I5
sg4
S'Waste 2'
p113
sg6
I1000
sg7
I9
sg8
I31
sg9
I30
sg10
I0
sg11
I0
sg12
I25
sg13
I0
sg14
I8
sg15
g23
sg17
S'Output 2'
p114
sg19
I0
sg20
I0
sa(dp115
g3
I5
sg4
S'Waste 2'
p116
sg6
I1000
sg7
I9
sg8
I32
sg9
I30
sg10
I0
sg11
I0
sg12
I25
sg13
I0
sg14
I8
sg15
g23
sg17
S'Output 2'
p117
sg19
I0
sg20
I0
sa(dp118
g3
I5
sg4
S'Waste 2'
p119
sg6
I1000
sg7
I9
sg8
I33
sg9
I30
sg10
I0
sg11
I0
sg12
I25
sg13
I0
sg14
I8
sg15
g23
sg17
S'Output 2'
p120
sg19
I0
sg20
I0
sa(dp121
g3
I5
sg4
S'Waste 2'
p122
sg6
I1000
sg7
I9
sg8
I34
sg9
I30
sg10
I0
sg11
I0
sg12
I25
sg13
I0
sg14
I8
sg15
g23
sg17
S'Output 2'
p123
sg19
I0
sg20
I0
sa(dp124
g3
I5
sg4
S'Output 2'
p125
sg6
I220
sg7
I8
sg8
I35
sg9
I16
sg10
I0
sg11
I0
sg12
I25
sg13
I0
sg14
I5
sg15
g23
sg17
S'Imaging buffer'
p126
sg19
I0
sg20
I0
sa.