(lp1
(dp2
S'reagent'
p3
S'Cleave solution 1'
p4
sS'pump'
p5
S'/dev/ttyUSB1'
p6
sS'port'
p7
I1
sa(dp8
g3
S'Cleave solution 2 - part 1'
p9
sg5
g6
sg7
I2
sa(dp10
g3
S'Cleave solution 2 - part 2'
p11
sg5
g6
sg7
I3
sa(dp12
g3
S'Cleave solution 2.1'
p13
sg5
g6
sg7
I4
sa(dp14
g3
S'1x instrrument - cleave'
p15
sg5
g6
sg7
I5
sa(dp16
g3
S'dH2O - cleave'
p17
sg5
g6
sg7
I6
sa(dp18
g3
S'Air 1'
p19
sg5
g6
sg7
I7
sa(dp20
g3
S'Output 1'
p21
sg5
g6
sg7
I8
sa(dp22
g3
S'Waste 1'
p23
sg5
g6
sg7
I9
sa(dp24
g3
S''
sg5
S'/dev/ttyUSB0'
p25
sg7
I1
sa(dp26
g3
S'T4 ligase mix'
p27
sg5
g25
sg7
I2
sa(dp28
g3
S'1x instrument - ligase'
p29
sg5
g25
sg7
I3
sa(dp30
g3
S'dH2O - ligase'
p31
sg5
g25
sg7
I4
sa(dp32
g3
S'Imaging buffer'
p33
sg5
g25
sg7
I5
sa(dp34
g3
S''
sg5
g25
sg7
I6
sa(dp35
g3
S'Air 2'
p36
sg5
g25
sg7
I7
sa(dp37
g3
S'Output 2'
p38
sg5
g25
sg7
I8
sa(dp39
g3
S'Waste 2'
p40
sg5
g25
sg7
I9
sa.(lp1
(dp2
S'waitsecs'
p3
I5
sS'toportreagent'
p4
S'Waste 1'
p5
sS'volume'
p6
I5000
sS'toport'
p7
I9
sS'cmdnumber'
p8
I0
sS'speed'
p9
I8
sS'cycle'
p10
I0
sS'waitmins'
p11
I0
sS'temp'
p12
I25
sS'heatwhen'
p13
I0
sS'fromport'
p14
I1
sS'pump'
p15
S'/dev/ttyUSB1'
p16
sS'fromportreagent'
p17
S'Cleave solution 1'
p18
sS'waste'
p19
I0
sS'type'
p20
I0
sa(dp21
g3
I5
sg4
S'Waste 1'
p22
sg6
I5000
sg7
I9
sg8
I1
sg9
I8
sg10
I0
sg11
I0
sg12
I25
sg13
I0
sg14
I2
sg15
g16
sg17
S'Cleave solution 2 - part 1'
p23
sg19
I0
sg20
I0
sa(dp24
g3
I5
sg4
S'Waste 1'
p25
sg6
I5000
sg7
I9
sg8
I2
sg9
I8
sg10
I0
sg11
I0
sg12
I25
sg13
I0
sg14
I3
sg15
g16
sg17
S'Cleave solution 2 - part 2'
p26
sg19
I0
sg20
I0
sa(dp27
g3
I5
sg4
S'Waste 1'
p28
sg6
I5000
sg7
I9
sg8
I3
sg9
I8
sg10
I0
sg11
I0
sg12
I25
sg13
I0
sg14
I4
sg15
g16
sg17
S'Cleave solution 2.1'
p29
sg19
I0
sg20
I0
sa(dp30
g3
I5
sg4
S'Waste 1'
p31
sg6
I5000
sg7
I9
sg8
I4
sg9
I8
sg10
I0
sg11
I0
sg12
I25
sg13
I0
sg14
I5
sg15
g16
sg17
S'1x instrrument - cleave'
p32
sg19
I0
sg20
I0
sa(dp33
g3
I5
sg4
S'Waste 1'
p34
sg6
I5000
sg7
I9
sg8
I5
sg9
I8
sg10
I0
sg11
I0
sg12
I25
sg13
I0
sg14
I6
sg15
g16
sg17
S'dH2O - cleave'
p35
sg19
I0
sg20
I0
sa(dp36
g3
I5
sg4
S'Output 1'
p37
sg6
I5000
sg7
I8
sg8
I6
sg9
I20
sg10
I0
sg11
I0
sg12
I25
sg13
I0
sg14
I3
sg15
g16
sg17
S'Cleave solution 2 - part 2'
p38
sg19
I0
sg20
I0
sa(dp39
g3
I5
sg4
S'Waste 2'
p40
sg6
I1000
sg7
I9
sg8
I7
sg9
I8
sg10
I1
sg11
I0
sg12
I25
sg13
I0
sg14
I2
sg15
S'/dev/ttyUSB0'
p41
sg17
S'T4 ligase mix'
p42
sg19
I0
sg20
I0
sa(dp43
g3
I5
sg4
S'Waste 2'
p44
sg6
I1000
sg7
I9
sg8
I8
sg9
I8
sg10
I1
sg11
I0
sg12
I25
sg13
I0
sg14
I3
sg15
g41
sg17
S'1x instrument - ligase'
p45
sg19
I0
sg20
I0
sa(dp46
g3
I5
sg4
S'Waste 2'
p47
sg6
I1000
sg7
I9
sg8
I9
sg9
I8
sg10
I1
sg11
I0
sg12
I25
sg13
I0
sg14
I4
sg15
g41
sg17
S'dH2O - ligase'
p48
sg19
I0
sg20
I0
sa(dp49
g3
I5
sg4
S'Waste 2'
p50
sg6
I1000
sg7
I9
sg8
I10
sg9
I8
sg10
I1
sg11
I0
sg12
I25
sg13
I0
sg14
I5
sg15
g41
sg17
S'Imaging buffer'
p51
sg19
I0
sg20
I0
sa(dp52
g3
I5
sg4
S'Output 2'
p53
sg6
I1000
sg7
I8
sg8
I11
sg9
I16
sg10
I1
sg11
I0
sg12
I25
sg13
I0
sg14
I4
sg15
g41
sg17
S'dH2O - ligase'
p54
sg19
I0
sg20
I0
sa(dp55
g3
I5
sg4
S'Waste 2'
p56
sg6
I1000
sg7
I9
sg8
I12
sg9
I8
sg10
I1
sg11
I0
sg12
I25
sg13
I0
sg14
I2
sg15
g41
sg17
S'T4 ligase mix'
p57
sg19
I0
sg20
I0
sa(dp58
g3
I5
sg4
S'Waste 2'
p59
sg6
I1000
sg7
I9
sg8
I13
sg9
I8
sg10
I1
sg11
I0
sg12
I25
sg13
I0
sg14
I3
sg15
g41
sg17
S'1x instrument - ligase'
p60
sg19
I0
sg20
I0
sa(dp61
g3
I5
sg4
S'Waste 2'
p62
sg6
I1000
sg7
I9
sg8
I14
sg9
I8
sg10
I1
sg11
I0
sg12
I25
sg13
I0
sg14
I4
sg15
g41
sg17
S'dH2O - ligase'
p63
sg19
I0
sg20
I0
sa(dp64
g3
I5
sg4
S'Waste 2'
p65
sg6
I1000
sg7
I9
sg8
I15
sg9
I8
sg10
I1
sg11
I0
sg12
I25
sg13
I0
sg14
I5
sg15
g41
sg17
S'Imaging buffer'
p66
sg19
I0
sg20
I0
sa(dp67
g3
I5
sg4
S'Output 2'
p68
sg6
I1000
sg7
I8
sg8
I16
sg9
I16
sg10
I1
sg11
I0
sg12
I25
sg13
I0
sg14
I4
sg15
g41
sg17
S'dH2O - ligase'
p69
sg19
I0
sg20
I0
sa(dp70
g3
I5
sg4
S'Waste 2'
p71
sg6
I1000
sg7
I9
sg8
I17
sg9
I8
sg10
I1
sg11
I0
sg12
I25
sg13
I0
sg14
I2
sg15
g41
sg17
S'T4 ligase mix'
p72
sg19
I0
sg20
I0
sa(dp73
g3
I5
sg4
S'Waste 2'
p74
sg6
I1000
sg7
I9
sg8
I18
sg9
I8
sg10
I1
sg11
I0
sg12
I25
sg13
I0
sg14
I3
sg15
g41
sg17
S'1x instrument - ligase'
p75
sg19
I0
sg20
I0
sa(dp76
g3
I5
sg4
S'Waste 2'
p77
sg6
I1000
sg7
I9
sg8
I19
sg9
I8
sg10
I1
sg11
I0
sg12
I25
sg13
I0
sg14
I4
sg15
g41
sg17
S'dH2O - ligase'
p78
sg19
I0
sg20
I0
sa(dp79
g3
I5
sg4
S'Waste 2'
p80
sg6
I1000
sg7
I9
sg8
I20
sg9
I8
sg10
I1
sg11
I0
sg12
I25
sg13
I0
sg14
I5
sg15
g41
sg17
S'Imaging buffer'
p81
sg19
I0
sg20
I0
sa(dp82
g3
I5
sg4
S'Output 2'
p83
sg6
I1000
sg7
I8
sg8
I21
sg9
I16
sg10
I1
sg11
I0
sg12
I25
sg13
I0
sg14
I4
sg15
g41
sg17
S'dH2O - ligase'
p84
sg19
I0
sg20
I0
sa(dp85
g3
I5
sg4
S'Waste 2'
p86
sg6
I1000
sg7
I9
sg8
I22
sg9
I8
sg10
I1
sg11
I0
sg12
I25
sg13
I0
sg14
I2
sg15
g41
sg17
S'T4 ligase mix'
p87
sg19
I0
sg20
I0
sa(dp88
g3
I5
sg4
S'Waste 2'
p89
sg6
I1000
sg7
I9
sg8
I23
sg9
I8
sg10
I1
sg11
I0
sg12
I25
sg13
I0
sg14
I3
sg15
g41
sg17
S'1x instrument - ligase'
p90
sg19
I0
sg20
I0
sa(dp91
g3
I5
sg4
S'Waste 2'
p92
sg6
I1000
sg7
I9
sg8
I24
sg9
I8
sg10
I1
sg11
I0
sg12
I25
sg13
I0
sg14
I4
sg15
g41
sg17
S'dH2O - ligase'
p93
sg19
I0
sg20
I0
sa(dp94
g3
I5
sg4
S'Waste 2'
p95
sg6
I1000
sg7
I9
sg8
I25
sg9
I8
sg10
I1
sg11
I0
sg12
I25
sg13
I0
sg14
I5
sg15
g41
sg17
S'Imaging buffer'
p96
sg19
I0
sg20
I0
sa(dp97
g3
I5
sg4
S'Output 2'
p98
sg6
I1000
sg7
I8
sg8
I26
sg9
I16
sg10
I1
sg11
I0
sg12
I25
sg13
I0
sg14
I4
sg15
g41
sg17
S'dH2O - ligase'
p99
sg19
I0
sg20
I0
sa.