(lp1
(dp2
S'reagent'
p3
S'cleave solution 1'
p4
sS'pump'
p5
S'/dev/ttyUSB1'
p6
sS'port'
p7
I1
sa(dp8
g3
S'cleave solution 2.1'
p9
sg5
g6
sg7
I2
sa(dp10
g3
S'1x instrument - cleave'
p11
sg5
g6
sg7
I3
sa(dp12
g3
S''
sg5
g6
sg7
I4
sa(dp13
g3
S''
sg5
g6
sg7
I5
sa(dp14
g3
S''
sg5
g6
sg7
I6
sa(dp15
g3
S'Air 1'
p16
sg5
g6
sg7
I7
sa(dp17
g3
S'Output 1'
p18
sg5
g6
sg7
I8
sa(dp19
g3
S'Waste 1'
p20
sg5
g6
sg7
I9
sa(dp21
g3
S''
sg5
S'/dev/ttyUSB0'
p22
sg7
I1
sa(dp23
g3
S'T4 ligase mix'
p24
sg5
g22
sg7
I2
sa(dp25
g3
S'1x instrument - ligase'
p26
sg5
g22
sg7
I3
sa(dp27
g3
S''
sg5
g22
sg7
I4
sa(dp28
g3
S''
sg5
g22
sg7
I5
sa(dp29
g3
S''
sg5
g22
sg7
I6
sa(dp30
g3
S'Air 2'
p31
sg5
g22
sg7
I7
sa(dp32
g3
S'Output 2'
p33
sg5
g22
sg7
I8
sa(dp34
g3
S'Waste 2'
p35
sg5
g22
sg7
I9
sa.(lp1
(dp2
S'waitsecs'
p3
I5
sS'toportreagent'
p4
S'Output 1'
p5
sS'volume'
p6
I1000
sS'toport'
p7
I8
sS'cmdnumber'
p8
I0
sS'speed'
p9
I16
sS'cycle'
p10
I0
sS'waitmins'
p11
I0
sS'heatwhen'
p12
I0
sS'temp'
p13
I25
sS'fromport'
p14
I3
sS'pump'
p15
S'/dev/ttyUSB1'
p16
sS'fromportreagent'
p17
S'1x instrument - cleave'
p18
sS'waste'
p19
I0
sS'type'
p20
I1
sa(dp21
g3
I5
sg4
g5
sg6
I1000
sg7
I8
sg8
I1
sg9
I16
sg10
I0
sg11
I0
sg12
I0
sg13
I25
sg14
I3
sg15
g16
sg17
g18
sg19
I0
sg20
I1
sa(dp22
g3
I5
sg4
S'Waste 1'
p23
sg6
I400
sg7
I9
sg8
I2
sg9
I30
sg10
I0
sg11
I0
sg12
I0
sg13
I25
sg14
I8
sg15
g16
sg17
g5
sg19
I0
sg20
I0
sa(dp24
g3
I5
sg4
S'Output 2'
p25
sg6
I250
sg7
I8
sg8
I3
sg9
I16
sg10
I0
sg11
I0
sg12
I0
sg13
I25
sg14
I2
sg15
S'/dev/ttyUSB0'
p26
sg17
S'T4 ligase mix'
p27
sg19
I0
sg20
I0
sa(dp28
g3
I5
sg4
S'Waste 2'
p29
sg6
I1000
sg7
I9
sg8
I4
sg9
I8
sg10
I0
sg11
I0
sg12
I0
sg13
I25
sg14
I3
sg15
g26
sg17
S'1x instrument - ligase'
p30
sg19
I0
sg20
I0
sa(dp31
g3
I5
sg4
g29
sg6
I1000
sg7
I9
sg8
I5
sg9
I8
sg10
I0
sg11
I0
sg12
I0
sg13
I25
sg14
I3
sg15
g26
sg17
g30
sg19
I0
sg20
I0
sa(dp32
g3
I5
sg4
g29
sg6
I1000
sg7
I9
sg8
I6
sg9
I8
sg10
I0
sg11
I0
sg12
I0
sg13
I25
sg14
I3
sg15
g26
sg17
g30
sg19
I0
sg20
I0
sa(dp33
g3
I5
sg4
g29
sg6
I1000
sg7
I9
sg8
I7
sg9
I16
sg10
I0
sg11
I45
sg12
I0
sg13
I25
sg14
I3
sg15
g26
sg17
g30
sg19
I0
sg20
I0
sa(dp34
g3
I5
sg4
g29
sg6
I400
sg7
I9
sg8
I8
sg9
I30
sg10
I0
sg11
I0
sg12
I0
sg13
I25
sg14
I8
sg15
g26
sg17
g25
sg19
I0
sg20
I0
sa(dp35
g3
I5
sg4
g29
sg6
I1000
sg7
I9
sg8
I9
sg9
I8
sg10
I0
sg11
I0
sg12
I0
sg13
I25
sg14
I3
sg15
g26
sg17
g30
sg19
I0
sg20
I0
sa(dp36
g3
I5
sg4
g29
sg6
I1000
sg7
I9
sg8
I10
sg9
I8
sg10
I0
sg11
I0
sg12
I0
sg13
I25
sg14
I3
sg15
g26
sg17
g30
sg19
I0
sg20
I0
sa(dp37
g3
I5
sg4
g29
sg6
I1000
sg7
I9
sg8
I11
sg9
I8
sg10
I0
sg11
I0
sg12
I0
sg13
I25
sg14
I3
sg15
g26
sg17
g30
sg19
I0
sg20
I0
sa(dp38
g3
I5
sg4
g25
sg6
I1000
sg7
I8
sg8
I12
sg9
I16
sg10
I0
sg11
I5
sg12
I0
sg13
I25
sg14
I3
sg15
g26
sg17
g30
sg19
I1
sg20
I1
sa(dp39
g3
I5
sg4
g25
sg6
I1000
sg7
I8
sg8
I13
sg9
I16
sg10
I0
sg11
I5
sg12
I0
sg13
I25
sg14
I3
sg15
g26
sg17
g30
sg19
I1
sg20
I1
sa(dp40
g3
I5
sg4
g25
sg6
I1000
sg7
I8
sg8
I14
sg9
I16
sg10
I0
sg11
I5
sg12
I0
sg13
I25
sg14
I3
sg15
g26
sg17
g30
sg19
I1
sg20
I1
sa(dp41
g3
I5
sg4
g25
sg6
I1000
sg7
I8
sg8
I15
sg9
I16
sg10
I0
sg11
I5
sg12
I0
sg13
I25
sg14
I3
sg15
g26
sg17
g30
sg19
I1
sg20
I1
sa(dp42
g3
I5
sg4
g25
sg6
I750
sg7
I8
sg8
I16
sg9
I16
sg10
I0
sg11
I5
sg12
I0
sg13
I25
sg14
I3
sg15
g26
sg17
g30
sg19
I0
sg20
I0
sa.