(lp1
(dp2
S'reagent'
p3
S''
sS'pump'
p4
S'/dev/ttyUSB1'
p5
sS'port'
p6
I1
sa(dp7
g3
S'part 1'
p8
sg4
g5
sg6
I2
sa(dp9
g3
S'part 2'
p10
sg4
g5
sg6
I3
sa(dp11
g3
S'mix 2.1'
p12
sg4
g5
sg6
I4
sa(dp13
g3
S'1x instrument'
p14
sg4
g5
sg6
I5
sa(dp15
g3
S''
sg4
g5
sg6
I6
sa(dp16
g3
S'Air 1'
p17
sg4
g5
sg6
I7
sa(dp18
g3
S'Output 1'
p19
sg4
g5
sg6
I8
sa(dp20
g3
S'Waste 1'
p21
sg4
g5
sg6
I9
sa(dp22
g3
S''
sg4
S'/dev/ttyUSB0'
p23
sg6
I1
sa(dp24
g3
S''
sg4
g23
sg6
I2
sa(dp25
g3
S''
sg4
g23
sg6
I3
sa(dp26
g3
S''
sg4
g23
sg6
I4
sa(dp27
g3
S''
sg4
g23
sg6
I5
sa(dp28
g3
S''
sg4
g23
sg6
I6
sa(dp29
g3
S'Air 2'
p30
sg4
g23
sg6
I7
sa(dp31
g3
S'Output 2'
p32
sg4
g23
sg6
I8
sa(dp33
g3
S'Waste 2'
p34
sg4
g23
sg6
I9
sa.(lp1
(dp2
S'waitsecs'
p3
I5
sS'toportreagent'
p4
S'part 1'
p5
sS'volume'
p6
I700
sS'toport'
p7
I2
sS'cmdnumber'
p8
I0
sS'speed'
p9
I21
sS'cycle'
p10
I1
sS'waitmins'
p11
I0
sS'temp'
p12
I25
sS'heatwhen'
p13
I0
sS'fromport'
p14
I2
sS'pump'
p15
S'/dev/ttyUSB1'
p16
sS'fromportreagent'
p17
S'part 1'
p18
sS'waste'
p19
I0
sS'type'
p20
I0
sa(dp21
g3
I5
sg4
S'mix 2.1'
p22
sg6
I750
sg7
I4
sg8
I1
sg9
I20
sg10
I1
sg11
I0
sg12
I25
sg13
I0
sg14
I2
sg15
g16
sg17
S'part 1'
p23
sg19
I0
sg20
I0
sa(dp24
g3
I5
sg4
S'mix 2.1'
p25
sg6
I700
sg7
I4
sg8
I2
sg9
I20
sg10
I1
sg11
I0
sg12
I25
sg13
I0
sg14
I7
sg15
g16
sg17
S'Air 1'
p26
sg19
I0
sg20
I0
sa(dp27
g3
I5
sg4
S'part 1'
p28
sg6
I700
sg7
I2
sg8
I3
sg9
I20
sg10
I1
sg11
I0
sg12
I25
sg13
I0
sg14
I7
sg15
g16
sg17
S'Air 1'
p29
sg19
I0
sg20
I0
sa(dp30
g3
I5
sg4
S'part 2'
p31
sg6
I700
sg7
I3
sg8
I4
sg9
I21
sg10
I1
sg11
I0
sg12
I25
sg13
I0
sg14
I3
sg15
g16
sg17
S'part 2'
p32
sg19
I0
sg20
I0
sa(dp33
g3
I5
sg4
S'mix 2.1'
p34
sg6
I280
sg7
I4
sg8
I5
sg9
I20
sg10
I1
sg11
I0
sg12
I25
sg13
I0
sg14
I3
sg15
g16
sg17
S'part 2'
p35
sg19
I0
sg20
I0
sa(dp36
g3
I5
sg4
S'mix 2.1'
p37
sg6
I700
sg7
I4
sg8
I6
sg9
I20
sg10
I1
sg11
I0
sg12
I25
sg13
I0
sg14
I7
sg15
g16
sg17
S'Air 1'
p38
sg19
I0
sg20
I0
sa(dp39
g3
I5
sg4
S'part 2'
p40
sg6
I700
sg7
I3
sg8
I7
sg9
I20
sg10
I1
sg11
I0
sg12
I25
sg13
I0
sg14
I7
sg15
g16
sg17
S'Air 1'
p41
sg19
I0
sg20
I0
sa(dp42
g3
I5
sg4
S'mix 2.1'
p43
sg6
I4000
sg7
I4
sg8
I8
sg9
I12
sg10
I1
sg11
I0
sg12
I25
sg13
I0
sg14
I7
sg15
g16
sg17
S'Air 1'
p44
sg19
I0
sg20
I0
sa(dp45
g3
I5
sg4
S''
sg6
I1
sg7
I1
sg8
I9
sg9
I16
sg10
I2
sg11
I0
sg12
I25
sg13
I0
sg14
I1
sg15
g16
sg17
S''
sg19
I0
sg20
I0
sa.