(lp1
(dp2
S'reagent'
p3
S'Cleave solution 1'
p4
sS'pump'
p5
S'/dev/ttyUSB1'
p6
sS'port'
p7
I1
sa(dp8
g3
S'Cleave 2 part 1'
p9
sg5
g6
sg7
I2
sa(dp10
g3
S'Cleave 2 part 2'
p11
sg5
g6
sg7
I3
sa(dp12
g3
S'Cleave solution 2.1'
p13
sg5
g6
sg7
I4
sa(dp14
g3
S'1x instrument - cleave'
p15
sg5
g6
sg7
I5
sa(dp16
g3
S'dH2O - cleave'
p17
sg5
g6
sg7
I6
sa(dp18
g3
S'Air 1'
p19
sg5
g6
sg7
I7
sa(dp20
g3
S'Output 1'
p21
sg5
g6
sg7
I8
sa(dp22
g3
S'Waste 1'
p23
sg5
g6
sg7
I9
sa(dp24
g3
S''
sg5
S'/dev/ttyUSB0'
p25
sg7
I1
sa(dp26
g3
S'T4 ligase mix'
p27
sg5
g25
sg7
I2
sa(dp28
g3
S'1x instrument - ligase'
p29
sg5
g25
sg7
I3
sa(dp30
g3
S'dH2O - ligase'
p31
sg5
g25
sg7
I4
sa(dp32
g3
S'Imaging buffer'
p33
sg5
g25
sg7
I5
sa(dp34
g3
S''
sg5
g25
sg7
I6
sa(dp35
g3
S'Air 2'
p36
sg5
g25
sg7
I7
sa(dp37
g3
S'Output 2'
p38
sg5
g25
sg7
I8
sa(dp39
g3
S'Waste 2'
p40
sg5
g25
sg7
I9
sa.(lp1
(dp2
S'waitsecs'
p3
I5
sS'toportreagent'
p4
S'Waste 2'
p5
sS'volume'
p6
I1000
sS'toport'
p7
I9
sS'cmdnumber'
p8
I0
sS'speed'
p9
I30
sS'cycle'
p10
I0
sS'waitmins'
p11
I0
sS'temp'
p12
I25
sS'heatwhen'
p13
I0
sS'fromport'
p14
I8
sS'pump'
p15
S'/dev/ttyUSB0'
p16
sS'fromportreagent'
p17
S'Output 2'
p18
sS'waste'
p19
I0
sS'type'
p20
I0
sa(dp21
g3
I5
sg4
S'Waste 2'
p22
sg6
I1000
sg7
I9
sg8
I1
sg9
I8
sg10
I0
sg11
I0
sg12
I25
sg13
I0
sg14
I3
sg15
g16
sg17
S'1x instrument - ligase'
p23
sg19
I0
sg20
I0
sa(dp24
g3
I5
sg4
S'Output 2'
p25
sg6
I250
sg7
I8
sg8
I2
sg9
I16
sg10
I0
sg11
I0
sg12
I25
sg13
I0
sg14
I2
sg15
g16
sg17
S'T4 ligase mix'
p26
sg19
I0
sg20
I0
sa(dp27
g3
I5
sg4
S'Output 2'
p28
sg6
I35
sg7
I8
sg8
I3
sg9
I25
sg10
I0
sg11
I0
sg12
I25
sg13
I0
sg14
I7
sg15
g16
sg17
S'Air 2'
p29
sg19
I0
sg20
I0
sa(dp30
g3
I5
sg4
S'Waste 2'
p31
sg6
I1000
sg7
I9
sg8
I4
sg9
I8
sg10
I0
sg11
I0
sg12
I25
sg13
I0
sg14
I3
sg15
g16
sg17
S'1x instrument - ligase'
p32
sg19
I0
sg20
I0
sa(dp33
g3
I5
sg4
S'Waste 2'
p34
sg6
I1000
sg7
I9
sg8
I5
sg9
I8
sg10
I0
sg11
I0
sg12
I25
sg13
I0
sg14
I3
sg15
g16
sg17
S'1x instrument - ligase'
p35
sg19
I0
sg20
I0
sa(dp36
g3
I5
sg4
S'Waste 2'
p37
sg6
I1000
sg7
I9
sg8
I6
sg9
I8
sg10
I0
sg11
I0
sg12
I25
sg13
I0
sg14
I3
sg15
g16
sg17
S'1x instrument - ligase'
p38
sg19
I0
sg20
I0
sa(dp39
g3
I5
sg4
S'Waste 2'
p40
sg6
I1000
sg7
I9
sg8
I7
sg9
I8
sg10
I0
sg11
I0
sg12
I25
sg13
I0
sg14
I3
sg15
g16
sg17
S'1x instrument - ligase'
p41
sg19
I0
sg20
I0
sa(dp42
g3
I5
sg4
S'Waste 2'
p43
sg6
I1000
sg7
I9
sg8
I8
sg9
I8
sg10
I0
sg11
I45
sg12
I25
sg13
I0
sg14
I3
sg15
g16
sg17
S'1x instrument - ligase'
p44
sg19
I0
sg20
I0
sa(dp45
g3
I5
sg4
S'Waste 2'
p46
sg6
I350
sg7
I9
sg8
I9
sg9
I30
sg10
I0
sg11
I0
sg12
I25
sg13
I0
sg14
I8
sg15
g16
sg17
S'Output 2'
p47
sg19
I0
sg20
I0
sa(dp48
g3
I5
sg4
S'Waste 2'
p49
sg6
I1000
sg7
I9
sg8
I10
sg9
I8
sg10
I0
sg11
I0
sg12
I25
sg13
I0
sg14
I3
sg15
g16
sg17
S'1x instrument - ligase'
p50
sg19
I0
sg20
I0
sa(dp51
g3
I5
sg4
S'Waste 2'
p52
sg6
I1000
sg7
I9
sg8
I11
sg9
I8
sg10
I0
sg11
I0
sg12
I25
sg13
I0
sg14
I3
sg15
g16
sg17
S'1x instrument - ligase'
p53
sg19
I0
sg20
I0
sa(dp54
g3
I5
sg4
S'Waste 2'
p55
sg6
I1000
sg7
I9
sg8
I12
sg9
I8
sg10
I0
sg11
I0
sg12
I25
sg13
I0
sg14
I3
sg15
g16
sg17
S'1x instrument - ligase'
p56
sg19
I0
sg20
I0
sa(dp57
g3
I5
sg4
S'Waste 2'
p58
sg6
I1000
sg7
I9
sg8
I13
sg9
I8
sg10
I0
sg11
I0
sg12
I25
sg13
I0
sg14
I3
sg15
g16
sg17
S'1x instrument - ligase'
p59
sg19
I0
sg20
I0
sa(dp60
g3
I5
sg4
S'Output 2'
p61
sg6
I250
sg7
I8
sg8
I14
sg9
I16
sg10
I0
sg11
I0
sg12
I25
sg13
I0
sg14
I3
sg15
g16
sg17
S'1x instrument - ligase'
p62
sg19
I0
sg20
I1
sa(dp63
g3
I5
sg4
S'Output 2'
p64
sg6
I250
sg7
I8
sg8
I15
sg9
I16
sg10
I0
sg11
I0
sg12
I25
sg13
I0
sg14
I3
sg15
g16
sg17
S'1x instrument - ligase'
p65
sg19
I0
sg20
I1
sa(dp66
g3
I5
sg4
S'Output 2'
p67
sg6
I1000
sg7
I8
sg8
I16
sg9
I16
sg10
I0
sg11
I5
sg12
I25
sg13
I0
sg14
I3
sg15
g16
sg17
S'1x instrument - ligase'
p68
sg19
I0
sg20
I1
sa(dp69
g3
I5
sg4
S'Output 2'
p70
sg6
I1000
sg7
I8
sg8
I17
sg9
I16
sg10
I0
sg11
I5
sg12
I25
sg13
I0
sg14
I3
sg15
g16
sg17
S'1x instrument - ligase'
p71
sg19
I0
sg20
I1
sa(dp72
g3
I5
sg4
S'Output 2'
p73
sg6
I1000
sg7
I8
sg8
I18
sg9
I16
sg10
I0
sg11
I5
sg12
I25
sg13
I0
sg14
I3
sg15
g16
sg17
S'1x instrument - ligase'
p74
sg19
I0
sg20
I1
sa(dp75
g3
I5
sg4
S'Output 2'
p76
sg6
I1000
sg7
I8
sg8
I19
sg9
I16
sg10
I0
sg11
I5
sg12
I25
sg13
I0
sg14
I3
sg15
g16
sg17
S'1x instrument - ligase'
p77
sg19
I0
sg20
I1
sa(dp78
g3
I5
sg4
S'Waste 2'
p79
sg6
I1000
sg7
I9
sg8
I20
sg9
I30
sg10
I0
sg11
I0
sg12
I25
sg13
I0
sg14
I8
sg15
g16
sg17
S'Output 2'
p80
sg19
I0
sg20
I0
sa(dp81
g3
I5
sg4
S'Output 2'
p82
sg6
I750
sg7
I8
sg8
I21
sg9
I16
sg10
I0
sg11
I0
sg12
I25
sg13
I0
sg14
I5
sg15
g16
sg17
S'Imaging buffer'
p83
sg19
I0
sg20
I0
sa(dp84
g3
I5
sg4
S'Waste 2'
p85
sg6
I1000
sg7
I9
sg8
I22
sg9
I30
sg10
I1
sg11
I0
sg12
I25
sg13
I0
sg14
I8
sg15
g16
sg17
S'Output 2'
p86
sg19
I0
sg20
I0
sa(dp87
g3
I5
sg4
S'Cleave solution 1'
p88
sg6
I700
sg7
I1
sg8
I23
sg9
I21
sg10
I1
sg11
I0
sg12
I25
sg13
I0
sg14
I1
sg15
S'/dev/ttyUSB1'
p89
sg17
S'Cleave solution 1'
p90
sg19
I0
sg20
I0
sa(dp91
g3
I5
sg4
S'Output 1'
p92
sg6
I300
sg7
I8
sg8
I24
sg9
I20
sg10
I1
sg11
I0
sg12
I25
sg13
I0
sg14
I1
sg15
g89
sg17
S'Cleave solution 1'
p93
sg19
I0
sg20
I0
sa(dp94
g3
I5
sg4
S'Output 1'
p95
sg6
I35
sg7
I8
sg8
I25
sg9
I25
sg10
I1
sg11
I5
sg12
I25
sg13
I0
sg14
I7
sg15
g89
sg17
S'Air 1'
p96
sg19
I0
sg20
I0
sa(dp97
g3
I5
sg4
S'Waste 2'
p98
sg6
I400
sg7
I9
sg8
I26
sg9
I30
sg10
I1
sg11
I0
sg12
I25
sg13
I0
sg14
I8
sg15
g16
sg17
S'Output 2'
p99
sg19
I0
sg20
I0
sa(dp100
g3
I5
sg4
S'Output 1'
p101
sg6
I300
sg7
I8
sg8
I27
sg9
I20
sg10
I1
sg11
I0
sg12
I25
sg13
I0
sg14
I1
sg15
g89
sg17
S'Cleave solution 1'
p102
sg19
I0
sg20
I0
sa(dp103
g3
I5
sg4
S'Output 1'
p104
sg6
I35
sg7
I8
sg8
I28
sg9
I25
sg10
I1
sg11
I5
sg12
I25
sg13
I0
sg14
I7
sg15
g89
sg17
S'Air 1'
p105
sg19
I0
sg20
I0
sa(dp106
g3
I5
sg4
S'Waste 2'
p107
sg6
I400
sg7
I9
sg8
I29
sg9
I30
sg10
I1
sg11
I0
sg12
I25
sg13
I0
sg14
I8
sg15
g16
sg17
S'Output 2'
p108
sg19
I0
sg20
I0
sa(dp109
g3
I5
sg4
S'Waste 1'
p110
sg6
I4000
sg7
I9
sg8
I30
sg9
I8
sg10
I1
sg11
I0
sg12
I25
sg13
I0
sg14
I6
sg15
g89
sg17
S'dH2O - cleave'
p111
sg19
I0
sg20
I0
sa(dp112
g3
I5
sg4
S'Waste 1'
p113
sg6
I4000
sg7
I9
sg8
I31
sg9
I8
sg10
I1
sg11
I0
sg12
I25
sg13
I0
sg14
I6
sg15
g89
sg17
S'dH2O - cleave'
p114
sg19
I0
sg20
I0
sa(dp115
g3
I5
sg4
S'Waste 1'
p116
sg6
I4000
sg7
I9
sg8
I32
sg9
I8
sg10
I1
sg11
I0
sg12
I25
sg13
I0
sg14
I5
sg15
g89
sg17
S'1x instrument - cleave'
p117
sg19
I0
sg20
I0
sa(dp118
g3
I5
sg4
S'Waste 1'
p119
sg6
I4000
sg7
I9
sg8
I33
sg9
I8
sg10
I1
sg11
I0
sg12
I25
sg13
I0
sg14
I5
sg15
g89
sg17
S'1x instrument - cleave'
p120
sg19
I0
sg20
I0
sa(dp121
g3
I5
sg4
S'Output 1'
p122
sg6
I900
sg7
I8
sg8
I34
sg9
I20
sg10
I1
sg11
I0
sg12
I25
sg13
I0
sg14
I5
sg15
g89
sg17
S'1x instrument - cleave'
p123
sg19
I0
sg20
I0
sa(dp124
g3
I5
sg4
S'Cleave solution 1'
p125
sg6
I700
sg7
I1
sg8
I35
sg9
I21
sg10
I1
sg11
I0
sg12
I25
sg13
I0
sg14
I7
sg15
g89
sg17
S'Air 1'
p126
sg19
I0
sg20
I0
sa(dp127
g3
I5
sg4
S'Cleave 2 part 1'
p128
sg6
I700
sg7
I2
sg8
I36
sg9
I21
sg10
I1
sg11
I0
sg12
I25
sg13
I0
sg14
I2
sg15
g89
sg17
S'Cleave 2 part 1'
p129
sg19
I0
sg20
I0
sa(dp130
g3
I5
sg4
S'Cleave solution 2.1'
p131
sg6
I270
sg7
I4
sg8
I37
sg9
I20
sg10
I1
sg11
I0
sg12
I25
sg13
I0
sg14
I2
sg15
g89
sg17
S'Cleave 2 part 1'
p132
sg19
I0
sg20
I0
sa(dp133
g3
I5
sg4
S'Cleave solution 2.1'
p134
sg6
I700
sg7
I4
sg8
I38
sg9
I21
sg10
I1
sg11
I0
sg12
I25
sg13
I0
sg14
I7
sg15
g89
sg17
S'Air 1'
p135
sg19
I0
sg20
I0
sa(dp136
g3
I5
sg4
S'Cleave 2 part 1'
p137
sg6
I700
sg7
I2
sg8
I39
sg9
I21
sg10
I1
sg11
I0
sg12
I25
sg13
I0
sg14
I7
sg15
g89
sg17
S'Air 1'
p138
sg19
I0
sg20
I0
sa(dp139
g3
I5
sg4
S'Waste 1'
p140
sg6
I4000
sg7
I9
sg8
I40
sg9
I8
sg10
I1
sg11
I0
sg12
I25
sg13
I0
sg14
I6
sg15
g89
sg17
S'dH2O - cleave'
p141
sg19
I0
sg20
I0
sa(dp142
g3
I5
sg4
S'Waste 1'
p143
sg6
I4000
sg7
I9
sg8
I41
sg9
I8
sg10
I1
sg11
I0
sg12
I25
sg13
I0
sg14
I6
sg15
g89
sg17
S'dH2O - cleave'
p144
sg19
I0
sg20
I0
sa(dp145
g3
I5
sg4
S'Waste 1'
p146
sg6
I4000
sg7
I9
sg8
I42
sg9
I8
sg10
I1
sg11
I0
sg12
I25
sg13
I0
sg14
I5
sg15
g89
sg17
S'1x instrument - cleave'
p147
sg19
I0
sg20
I0
sa(dp148
g3
I5
sg4
S'Waste 1'
p149
sg6
I4000
sg7
I9
sg8
I43
sg9
I8
sg10
I1
sg11
I0
sg12
I25
sg13
I0
sg14
I5
sg15
g89
sg17
S'1x instrument - cleave'
p150
sg19
I0
sg20
I0
sa(dp151
g3
I5
sg4
S'Cleave 2 part 2'
p152
sg6
I700
sg7
I3
sg8
I44
sg9
I21
sg10
I1
sg11
I0
sg12
I25
sg13
I0
sg14
I3
sg15
g89
sg17
S'Cleave 2 part 2'
p153
sg19
I0
sg20
I0
sa(dp154
g3
I5
sg4
S'Cleave solution 2.1'
p155
sg6
I750
sg7
I4
sg8
I45
sg9
I20
sg10
I1
sg11
I0
sg12
I25
sg13
I0
sg14
I3
sg15
g89
sg17
S'Cleave 2 part 2'
p156
sg19
I0
sg20
I0
sa(dp157
g3
I5
sg4
S'Cleave solution 2.1'
p158
sg6
I700
sg7
I4
sg8
I46
sg9
I21
sg10
I1
sg11
I0
sg12
I25
sg13
I0
sg14
I7
sg15
g89
sg17
S'Air 1'
p159
sg19
I0
sg20
I0
sa(dp160
g3
I5
sg4
S'Cleave 2 part 2'
p161
sg6
I700
sg7
I3
sg8
I47
sg9
I21
sg10
I1
sg11
I0
sg12
I25
sg13
I0
sg14
I7
sg15
g89
sg17
S'Air 1'
p162
sg19
I0
sg20
I0
sa(dp163
g3
I5
sg4
S'Cleave solution 2.1'
p164
sg6
I4500
sg7
I4
sg8
I48
sg9
I8
sg10
I1
sg11
I0
sg12
I25
sg13
I0
sg14
I7
sg15
g89
sg17
S'Air 1'
p165
sg19
I0
sg20
I0
sa(dp166
g3
I5
sg4
S'Waste 2'
p167
sg6
I1000
sg7
I9
sg8
I49
sg9
I30
sg10
I1
sg11
I0
sg12
I25
sg13
I0
sg14
I8
sg15
g16
sg17
S'Output 2'
p168
sg19
I0
sg20
I0
sa(dp169
g3
I5
sg4
S'Cleave solution 2.1'
p170
sg6
I700
sg7
I4
sg8
I50
sg9
I21
sg10
I1
sg11
I0
sg12
I25
sg13
I0
sg14
I4
sg15
g89
sg17
S'Cleave solution 2.1'
p171
sg19
I0
sg20
I0
sa(dp172
g3
I5
sg4
S'Output 1'
p173
sg6
I300
sg7
I8
sg8
I51
sg9
I20
sg10
I1
sg11
I0
sg12
I25
sg13
I0
sg14
I4
sg15
g89
sg17
S'Cleave solution 2.1'
p174
sg19
I0
sg20
I0
sa(dp175
g3
I5
sg4
S'Output 1'
p176
sg6
I35
sg7
I8
sg8
I52
sg9
I25
sg10
I1
sg11
I0
sg12
I25
sg13
I0
sg14
I7
sg15
g89
sg17
S'Air 1'
p177
sg19
I0
sg20
I0
sa(dp178
g3
I5
sg4
S'Cleave solution 2.1'
p179
sg6
I700
sg7
I4
sg8
I53
sg9
I21
sg10
I1
sg11
I5
sg12
I25
sg13
I0
sg14
I7
sg15
g89
sg17
S'Air 1'
p180
sg19
I0
sg20
I0
sa(dp181
g3
I5
sg4
S'Waste 2'
p182
sg6
I400
sg7
I9
sg8
I54
sg9
I30
sg10
I1
sg11
I0
sg12
I25
sg13
I0
sg14
I8
sg15
g16
sg17
S'Output 2'
p183
sg19
I0
sg20
I0
sa(dp184
g3
I5
sg4
S'Cleave solution 2.1'
p185
sg6
I700
sg7
I4
sg8
I55
sg9
I21
sg10
I1
sg11
I0
sg12
I25
sg13
I0
sg14
I4
sg15
g89
sg17
S'Cleave solution 2.1'
p186
sg19
I0
sg20
I0
sa(dp187
g3
I5
sg4
S'Output 1'
p188
sg6
I300
sg7
I8
sg8
I56
sg9
I20
sg10
I1
sg11
I0
sg12
I25
sg13
I0
sg14
I4
sg15
g89
sg17
S'Cleave solution 2.1'
p189
sg19
I0
sg20
I0
sa(dp190
g3
I5
sg4
S'Output 1'
p191
sg6
I35
sg7
I8
sg8
I57
sg9
I25
sg10
I1
sg11
I0
sg12
I25
sg13
I0
sg14
I7
sg15
g89
sg17
S'Air 1'
p192
sg19
I0
sg20
I0
sa(dp193
g3
I5
sg4
S'Cleave solution 2.1'
p194
sg6
I700
sg7
I4
sg8
I58
sg9
I21
sg10
I1
sg11
I5
sg12
I25
sg13
I0
sg14
I7
sg15
g89
sg17
S'Air 1'
p195
sg19
I0
sg20
I0
sa(dp196
g3
I5
sg4
S'Waste 2'
p197
sg6
I400
sg7
I9
sg8
I59
sg9
I30
sg10
I1
sg11
I0
sg12
I25
sg13
I0
sg14
I8
sg15
g16
sg17
S'Output 2'
p198
sg19
I0
sg20
I0
sa(dp199
g3
I5
sg4
S'Waste 1'
p200
sg6
I2000
sg7
I9
sg8
I60
sg9
I16
sg10
I1
sg11
I0
sg12
I25
sg13
I0
sg14
I4
sg15
g89
sg17
S'Cleave solution 2.1'
p201
sg19
I0
sg20
I0
sa(dp202
g3
I5
sg4
S'Waste 1'
p203
sg6
I4000
sg7
I9
sg8
I61
sg9
I8
sg10
I1
sg11
I0
sg12
I25
sg13
I0
sg14
I6
sg15
g89
sg17
S'dH2O - cleave'
p204
sg19
I0
sg20
I0
sa(dp205
g3
I5
sg4
S'Waste 1'
p206
sg6
I4000
sg7
I9
sg8
I62
sg9
I8
sg10
I1
sg11
I0
sg12
I25
sg13
I0
sg14
I6
sg15
g89
sg17
S'dH2O - cleave'
p207
sg19
I0
sg20
I0
sa(dp208
g3
I5
sg4
S'Waste 1'
p209
sg6
I4000
sg7
I9
sg8
I63
sg9
I8
sg10
I1
sg11
I0
sg12
I25
sg13
I0
sg14
I5
sg15
g89
sg17
S'1x instrument - cleave'
p210
sg19
I0
sg20
I0
sa(dp211
g3
I5
sg4
S'Waste 1'
p212
sg6
I4000
sg7
I9
sg8
I64
sg9
I8
sg10
I1
sg11
I0
sg12
I25
sg13
I0
sg14
I5
sg15
g89
sg17
S'1x instrument - cleave'
p213
sg19
I0
sg20
I0
sa(dp214
g3
I5
sg4
S'Output 1'
p215
sg6
I900
sg7
I8
sg8
I65
sg9
I20
sg10
I1
sg11
I5
sg12
I25
sg13
I0
sg14
I5
sg15
g89
sg17
S'1x instrument - cleave'
p216
sg19
I0
sg20
I0
sa(dp217
g3
I5
sg4
S'Waste 2'
p218
sg6
I1000
sg7
I9
sg8
I66
sg9
I30
sg10
I1
sg11
I0
sg12
I25
sg13
I0
sg14
I8
sg15
g16
sg17
S'Output 2'
p219
sg19
I0
sg20
I0
sa(dp220
g3
I5
sg4
S'Output 1'
p221
sg6
I900
sg7
I8
sg8
I67
sg9
I20
sg10
I1
sg11
I5
sg12
I25
sg13
I0
sg14
I5
sg15
g89
sg17
S'1x instrument - cleave'
p222
sg19
I0
sg20
I0
sa(dp223
g3
I5
sg4
S'Waste 2'
p224
sg6
I1000
sg7
I9
sg8
I68
sg9
I30
sg10
I1
sg11
I0
sg12
I25
sg13
I0
sg14
I8
sg15
g16
sg17
S'Output 2'
p225
sg19
I0
sg20
I0
sa(dp226
g3
I5
sg4
S'Output 1'
p227
sg6
I900
sg7
I8
sg8
I69
sg9
I20
sg10
I1
sg11
I5
sg12
I25
sg13
I0
sg14
I5
sg15
g89
sg17
S'1x instrument - cleave'
p228
sg19
I0
sg20
I0
sa(dp229
g3
I5
sg4
S'Waste 2'
p230
sg6
I1000
sg7
I9
sg8
I70
sg9
I30
sg10
I1
sg11
I0
sg12
I25
sg13
I0
sg14
I8
sg15
g16
sg17
S'Output 2'
p231
sg19
I0
sg20
I0
sa(dp232
g3
I5
sg4
S'Waste 2'
p233
sg6
I1000
sg7
I9
sg8
I71
sg9
I8
sg10
I1
sg11
I0
sg12
I25
sg13
I0
sg14
I4
sg15
g16
sg17
S'dH2O - ligase'
p234
sg19
I0
sg20
I0
sa(dp235
g3
I5
sg4
S'Waste 2'
p236
sg6
I1000
sg7
I9
sg8
I72
sg9
I8
sg10
I1
sg11
I0
sg12
I25
sg13
I0
sg14
I4
sg15
g16
sg17
S'dH2O - ligase'
p237
sg19
I0
sg20
I0
sa(dp238
g3
I5
sg4
S'Waste 2'
p239
sg6
I1000
sg7
I9
sg8
I73
sg9
I8
sg10
I1
sg11
I0
sg12
I25
sg13
I0
sg14
I4
sg15
g16
sg17
S'dH2O - ligase'
p240
sg19
I0
sg20
I0
sa(dp241
g3
I5
sg4
S'Waste 2'
p242
sg6
I1000
sg7
I9
sg8
I74
sg9
I8
sg10
I1
sg11
I0
sg12
I25
sg13
I0
sg14
I4
sg15
g16
sg17
S'dH2O - ligase'
p243
sg19
I0
sg20
I0
sa(dp244
g3
I5
sg4
S'Waste 2'
p245
sg6
I1000
sg7
I9
sg8
I75
sg9
I8
sg10
I1
sg11
I0
sg12
I25
sg13
I0
sg14
I3
sg15
g16
sg17
S'1x instrument - ligase'
p246
sg19
I0
sg20
I0
sa(dp247
g3
I5
sg4
S'Waste 2'
p248
sg6
I1000
sg7
I9
sg8
I76
sg9
I8
sg10
I1
sg11
I0
sg12
I25
sg13
I0
sg14
I3
sg15
g16
sg17
S'1x instrument - ligase'
p249
sg19
I0
sg20
I0
sa(dp250
g3
I5
sg4
S'Waste 2'
p251
sg6
I1000
sg7
I9
sg8
I77
sg9
I8
sg10
I1
sg11
I0
sg12
I25
sg13
I0
sg14
I3
sg15
g16
sg17
S'1x instrument - ligase'
p252
sg19
I0
sg20
I0
sa(dp253
g3
I5
sg4
S'Waste 2'
p254
sg6
I1000
sg7
I9
sg8
I78
sg9
I8
sg10
I1
sg11
I0
sg12
I25
sg13
I0
sg14
I3
sg15
g16
sg17
S'1x instrument - ligase'
p255
sg19
I0
sg20
I0
sa(dp256
g3
I5
sg4
S'Waste 2'
p257
sg6
I1000
sg7
I9
sg8
I79
sg9
I8
sg10
I1
sg11
I0
sg12
I25
sg13
I0
sg14
I3
sg15
g16
sg17
S'1x instrument - ligase'
p258
sg19
I0
sg20
I0
sa(dp259
g3
I5
sg4
S'Output 1'
p260
sg6
I900
sg7
I8
sg8
I80
sg9
I20
sg10
I1
sg11
I0
sg12
I25
sg13
I0
sg14
I5
sg15
g89
sg17
S'1x instrument - cleave'
p261
sg19
I0
sg20
I0
sa.