(lp1
(dp2
S'reagent'
p3
S''
sS'pump'
p4
S'/dev/ttyUSB1'
p5
sS'port'
p6
I1
sa(dp7
g3
S''
sg4
g5
sg6
I2
sa(dp8
g3
S''
sg4
g5
sg6
I3
sa(dp9
g3
S''
sg4
g5
sg6
I4
sa(dp10
g3
S'1x 1'
p11
sg4
g5
sg6
I5
sa(dp12
g3
S'di 1'
p13
sg4
g5
sg6
I6
sa(dp14
g3
S'Air 1'
p15
sg4
g5
sg6
I7
sa(dp16
g3
S'Output 1'
p17
sg4
g5
sg6
I8
sa(dp18
g3
S'Waste 1'
p19
sg4
g5
sg6
I9
sa(dp20
g3
S''
sg4
S'/dev/ttyUSB0'
p21
sg6
I1
sa(dp22
g3
S''
sg4
g21
sg6
I2
sa(dp23
g3
S'1x 2'
p24
sg4
g21
sg6
I3
sa(dp25
g3
S'di 2'
p26
sg4
g21
sg6
I4
sa(dp27
g3
S''
sg4
g21
sg6
I5
sa(dp28
g3
S''
sg4
g21
sg6
I6
sa(dp29
g3
S'Air 2'
p30
sg4
g21
sg6
I7
sa(dp31
g3
S'Output 2'
p32
sg4
g21
sg6
I8
sa(dp33
g3
S'Waste 2'
p34
sg4
g21
sg6
I9
sa.(lp1
(dp2
S'waitsecs'
p3
I5
sS'toportreagent'
p4
S'Waste 1'
p5
sS'volume'
p6
I5000
sS'toport'
p7
I9
sS'cmdnumber'
p8
I0
sS'speed'
p9
I8
sS'cycle'
p10
I1
sS'waitmins'
p11
I0
sS'temp'
p12
I25
sS'heatwhen'
p13
I0
sS'fromport'
p14
I5
sS'pump'
p15
S'/dev/ttyUSB1'
p16
sS'fromportreagent'
p17
S'1x 1'
p18
sS'waste'
p19
I0
sS'type'
p20
I0
sa(dp21
g3
I5
sg4
S'Waste 1'
p22
sg6
I5000
sg7
I9
sg8
I1
sg9
I8
sg10
I1
sg11
I0
sg12
I25
sg13
I0
sg14
I6
sg15
g16
sg17
S'di 1'
p23
sg19
I0
sg20
I0
sa(dp24
g3
I5
sg4
S'Output 1'
p25
sg6
I5000
sg7
I8
sg8
I2
sg9
I20
sg10
I1
sg11
I0
sg12
I25
sg13
I0
sg14
I6
sg15
g16
sg17
S'di 1'
p26
sg19
I0
sg20
I0
sa(dp27
g3
I5
sg4
S'Output 1'
p28
sg6
I5000
sg7
I8
sg8
I3
sg9
I20
sg10
I1
sg11
I0
sg12
I25
sg13
I0
sg14
I5
sg15
g16
sg17
S'1x 1'
p29
sg19
I0
sg20
I0
sa(dp30
g3
I5
sg4
S'Waste 2'
p31
sg6
I1000
sg7
I9
sg8
I4
sg9
I8
sg10
I1
sg11
I0
sg12
I25
sg13
I0
sg14
I4
sg15
S'/dev/ttyUSB0'
p32
sg17
S'di 2'
p33
sg19
I0
sg20
I0
sa(dp34
g3
I5
sg4
S'Waste 2'
p35
sg6
I1000
sg7
I9
sg8
I5
sg9
I8
sg10
I1
sg11
I0
sg12
I25
sg13
I0
sg14
I4
sg15
g32
sg17
S'di 2'
p36
sg19
I0
sg20
I0
sa(dp37
g3
I5
sg4
S'Waste 2'
p38
sg6
I1000
sg7
I9
sg8
I6
sg9
I8
sg10
I1
sg11
I0
sg12
I25
sg13
I0
sg14
I4
sg15
g32
sg17
S'di 2'
p39
sg19
I0
sg20
I0
sa(dp40
g3
I5
sg4
S'Waste 2'
p41
sg6
I1000
sg7
I9
sg8
I7
sg9
I8
sg10
I1
sg11
I0
sg12
I25
sg13
I0
sg14
I4
sg15
g32
sg17
S'di 2'
p42
sg19
I0
sg20
I0
sa(dp43
g3
I5
sg4
S'Waste 2'
p44
sg6
I1000
sg7
I9
sg8
I8
sg9
I8
sg10
I1
sg11
I0
sg12
I25
sg13
I0
sg14
I3
sg15
g32
sg17
S'1x 2'
p45
sg19
I0
sg20
I0
sa(dp46
g3
I5
sg4
S'Waste 2'
p47
sg6
I1000
sg7
I9
sg8
I9
sg9
I8
sg10
I1
sg11
I0
sg12
I25
sg13
I0
sg14
I3
sg15
g32
sg17
S'1x 2'
p48
sg19
I0
sg20
I0
sa(dp49
g3
I5
sg4
S'Waste 2'
p50
sg6
I1000
sg7
I9
sg8
I10
sg9
I8
sg10
I1
sg11
I0
sg12
I25
sg13
I0
sg14
I3
sg15
g32
sg17
S'1x 2'
p51
sg19
I0
sg20
I0
sa(dp52
g3
I5
sg4
S'Waste 2'
p53
sg6
I1000
sg7
I9
sg8
I11
sg9
I8
sg10
I1
sg11
I0
sg12
I25
sg13
I0
sg14
I3
sg15
g32
sg17
S'1x 2'
p54
sg19
I0
sg20
I0
sa(dp55
g3
I5
sg4
S'Output 2'
p56
sg6
I1000
sg7
I8
sg8
I12
sg9
I16
sg10
I1
sg11
I0
sg12
I25
sg13
I0
sg14
I4
sg15
g32
sg17
S'di 2'
p57
sg19
I0
sg20
I0
sa(dp58
g3
I5
sg4
S'Output 2'
p59
sg6
I1000
sg7
I8
sg8
I13
sg9
I16
sg10
I1
sg11
I0
sg12
I25
sg13
I0
sg14
I4
sg15
g32
sg17
S'di 2'
p60
sg19
I0
sg20
I0
sa(dp61
g3
I5
sg4
S'Output 2'
p62
sg6
I1000
sg7
I8
sg8
I14
sg9
I16
sg10
I1
sg11
I0
sg12
I25
sg13
I0
sg14
I4
sg15
g32
sg17
S'di 2'
p63
sg19
I0
sg20
I0
sa(dp64
g3
I5
sg4
S'Output 2'
p65
sg6
I1000
sg7
I8
sg8
I15
sg9
I16
sg10
I1
sg11
I0
sg12
I25
sg13
I0
sg14
I4
sg15
g32
sg17
S'di 2'
p66
sg19
I0
sg20
I0
sa(dp67
g3
I5
sg4
S'Output 2'
p68
sg6
I1000
sg7
I8
sg8
I16
sg9
I16
sg10
I1
sg11
I0
sg12
I25
sg13
I0
sg14
I3
sg15
g32
sg17
S'1x 2'
p69
sg19
I0
sg20
I0
sa(dp70
g3
I5
sg4
S'Output 2'
p71
sg6
I1000
sg7
I8
sg8
I17
sg9
I16
sg10
I1
sg11
I0
sg12
I25
sg13
I0
sg14
I3
sg15
g32
sg17
S'1x 2'
p72
sg19
I0
sg20
I0
sa(dp73
g3
I5
sg4
S'Output 2'
p74
sg6
I1000
sg7
I8
sg8
I18
sg9
I16
sg10
I1
sg11
I0
sg12
I25
sg13
I0
sg14
I3
sg15
g32
sg17
S'1x 2'
p75
sg19
I0
sg20
I0
sa(dp76
g3
I5
sg4
S'Output 2'
p77
sg6
I1000
sg7
I8
sg8
I19
sg9
I16
sg10
I1
sg11
I0
sg12
I25
sg13
I0
sg14
I3
sg15
g32
sg17
S'1x 2'
p78
sg19
I0
sg20
I0
sa.