(lp1
(dp2
S'reagent'
p3
S'Sequencing primer'
p4
sS'pump'
p5
S'/dev/ttyUSB1'
p6
sS'port'
p7
I1
sa(dp8
g3
S'T4 Ligase mix'
p9
sg5
g6
sg7
I2
sa(dp10
g3
S'1x instrument buffer 1'
p11
sg5
g6
sg7
I3
sa(dp12
g3
S''
sg5
g6
sg7
I4
sa(dp13
g3
S''
sg5
g6
sg7
I5
sa(dp14
g3
S''
sg5
g6
sg7
I6
sa(dp15
g3
S'Air 1'
p16
sg5
g6
sg7
I7
sa(dp17
g3
S'Output 1'
p18
sg5
g6
sg7
I8
sa(dp19
g3
S'Waste 1'
p20
sg5
g6
sg7
I9
sa(dp21
g3
S'Cleave solution 1'
p22
sg5
S'/dev/ttyUSB0'
p23
sg7
I1
sa(dp24
g3
S'Cleave solution 2.1'
p25
sg5
g23
sg7
I2
sa(dp26
g3
S'1x instrument buffer 2'
p27
sg5
g23
sg7
I3
sa(dp28
g3
S''
sg5
g23
sg7
I4
sa(dp29
g3
S''
sg5
g23
sg7
I5
sa(dp30
g3
S''
sg5
g23
sg7
I6
sa(dp31
g3
S'Air 2'
p32
sg5
g23
sg7
I7
sa(dp33
g3
S'Output 2'
p34
sg5
g23
sg7
I8
sa(dp35
g3
S'Waste 2'
p36
sg5
g23
sg7
I9
sa.(lp1
(dp2
S'waitsecs'
p3
I5
sS'toportreagent'
p4
S'Waste 1'
p5
sS'volume'
p6
I750
sS'toport'
p7
I9
sS'cmdnumber'
p8
I0
sS'speed'
p9
I30
sS'cycle'
p10
I8
sS'waitmins'
p11
I0
sS'temp'
p12
I25
sS'heatwhen'
p13
I0
sS'fromport'
p14
I8
sS'pump'
p15
S'/dev/ttyUSB1'
p16
sS'fromportreagent'
p17
S'Output 1'
p18
sS'waste'
p19
I1
sS'type'
p20
I0
sa(dp21
g3
I5
sg4
S'Waste 1'
p22
sg6
I750
sg7
I9
sg8
I1
sg9
I30
sg10
I8
sg11
I0
sg12
I25
sg13
I0
sg14
I8
sg15
g16
sg17
S'Output 1'
p23
sg19
I1
sg20
I0
sa(dp24
g3
I5
sg4
S'Output 1'
p25
sg6
I200
sg7
I8
sg8
I2
sg9
I16
sg10
I8
sg11
I10
sg12
I25
sg13
I0
sg14
I1
sg15
g16
sg17
S'Sequencing primer'
p26
sg19
I1
sg20
I1
sa(dp27
g3
I5
sg4
S'Output 1'
p28
sg6
I1000
sg7
I8
sg8
I3
sg9
I16
sg10
I8
sg11
I1
sg12
I25
sg13
I0
sg14
I3
sg15
g16
sg17
S'1x instrument buffer 1'
p29
sg19
I1
sg20
I1
sa(dp30
g3
I5
sg4
S'Waste 1'
p31
sg6
I600
sg7
I9
sg8
I4
sg9
I30
sg10
I9
sg11
I1
sg12
I25
sg13
I0
sg14
I8
sg15
g16
sg17
S'Output 1'
p32
sg19
I1
sg20
I0
sa(dp33
g3
I5
sg4
S'Output 1'
p34
sg6
I120
sg7
I8
sg8
I5
sg9
I16
sg10
I9
sg11
I45
sg12
I25
sg13
I0
sg14
I2
sg15
g16
sg17
S'T4 Ligase mix'
p35
sg19
I1
sg20
I1
sa(dp36
g3
I5
sg4
S'Output 1'
p37
sg6
I1000
sg7
I8
sg8
I6
sg9
I16
sg10
I9
sg11
I5
sg12
I25
sg13
I0
sg14
I3
sg15
g16
sg17
S'1x instrument buffer 1'
p38
sg19
I1
sg20
I1
sa(dp39
g3
I5
sg4
S'Output 1'
p40
sg6
I1000
sg7
I8
sg8
I7
sg9
I16
sg10
I9
sg11
I5
sg12
I25
sg13
I0
sg14
I3
sg15
g16
sg17
S'1x instrument buffer 1'
p41
sg19
I1
sg20
I1
sa(dp42
g3
I5
sg4
S'Output 1'
p43
sg6
I1000
sg7
I8
sg8
I8
sg9
I16
sg10
I9
sg11
I5
sg12
I25
sg13
I0
sg14
I3
sg15
g16
sg17
S'1x instrument buffer 1'
p44
sg19
I1
sg20
I1
sa(dp45
g3
I5
sg4
S'Output 1'
p46
sg6
I1000
sg7
I8
sg8
I9
sg9
I16
sg10
I9
sg11
I5
sg12
I25
sg13
I0
sg14
I3
sg15
g16
sg17
S'1x instrument buffer 1'
p47
sg19
I1
sg20
I1
sa(dp48
g3
I5
sg4
S'Output 1'
p49
sg6
I200
sg7
I8
sg8
I10
sg9
I16
sg10
I9
sg11
I0
sg12
I25
sg13
I0
sg14
I3
sg15
g16
sg17
S'1x instrument buffer 1'
p50
sg19
I1
sg20
I0
sa(dp51
g3
I5
sg4
S'Waste 2'
p52
sg6
I400
sg7
I9
sg8
I11
sg9
I30
sg10
I0
sg11
I0
sg12
I25
sg13
I0
sg14
I8
sg15
S'/dev/ttyUSB0'
p53
sg17
S'Output 2'
p54
sg19
I1
sg20
I0
sa(dp55
g3
I5
sg4
S'Output 2'
p56
sg6
I160
sg7
I8
sg8
I12
sg9
I16
sg10
I0
sg11
I5
sg12
I25
sg13
I0
sg14
I1
sg15
g53
sg17
S'Cleave solution 1'
p57
sg19
I1
sg20
I1
sa(dp58
g3
I5
sg4
S'Output 2'
p59
sg6
I160
sg7
I8
sg8
I13
sg9
I16
sg10
I0
sg11
I5
sg12
I25
sg13
I0
sg14
I1
sg15
g53
sg17
S'Cleave solution 1'
p60
sg19
I1
sg20
I1
sa(dp61
g3
I5
sg4
S'Output 2'
p62
sg6
I160
sg7
I8
sg8
I14
sg9
I16
sg10
I0
sg11
I5
sg12
I25
sg13
I0
sg14
I2
sg15
g53
sg17
S'Cleave solution 2.1'
p63
sg19
I1
sg20
I1
sa(dp64
g3
I5
sg4
S'Output 2'
p65
sg6
I160
sg7
I8
sg8
I15
sg9
I16
sg10
I0
sg11
I5
sg12
I25
sg13
I0
sg14
I2
sg15
g53
sg17
S'Cleave solution 2.1'
p66
sg19
I1
sg20
I1
sa(dp67
g3
I5
sg4
S'Output 2'
p68
sg6
I1000
sg7
I8
sg8
I16
sg9
I16
sg10
I0
sg11
I5
sg12
I25
sg13
I0
sg14
I3
sg15
g53
sg17
S'1x instrument buffer 2'
p69
sg19
I1
sg20
I1
sa(dp70
g3
I5
sg4
S'Output 2'
p71
sg6
I1000
sg7
I8
sg8
I17
sg9
I16
sg10
I0
sg11
I5
sg12
I25
sg13
I0
sg14
I3
sg15
g53
sg17
S'1x instrument buffer 2'
p72
sg19
I1
sg20
I1
sa(dp73
g3
I5
sg4
S'Output 2'
p74
sg6
I1000
sg7
I8
sg8
I18
sg9
I16
sg10
I0
sg11
I5
sg12
I25
sg13
I0
sg14
I3
sg15
g53
sg17
S'1x instrument buffer 2'
p75
sg19
I1
sg20
I1
sa(dp76
g3
I5
sg4
S'Output 1'
p77
sg6
I160
sg7
I8
sg8
I19
sg9
I16
sg10
I0
sg11
I45
sg12
I25
sg13
I0
sg14
I2
sg15
g16
sg17
S'T4 Ligase mix'
p78
sg19
I1
sg20
I1
sa(dp79
g3
I5
sg4
S'Output 2'
p80
sg6
I1000
sg7
I8
sg8
I20
sg9
I16
sg10
I0
sg11
I5
sg12
I25
sg13
I0
sg14
I3
sg15
g53
sg17
S'1x instrument buffer 2'
p81
sg19
I1
sg20
I1
sa(dp82
g3
I5
sg4
S'Output 2'
p83
sg6
I1000
sg7
I8
sg8
I21
sg9
I16
sg10
I0
sg11
I5
sg12
I25
sg13
I0
sg14
I3
sg15
g53
sg17
S'1x instrument buffer 2'
p84
sg19
I1
sg20
I1
sa(dp85
g3
I5
sg4
S'Output 2'
p86
sg6
I1000
sg7
I8
sg8
I22
sg9
I16
sg10
I0
sg11
I5
sg12
I25
sg13
I0
sg14
I3
sg15
g53
sg17
S'1x instrument buffer 2'
p87
sg19
I1
sg20
I1
sa(dp88
g3
I5
sg4
S'Output 2'
p89
sg6
I1000
sg7
I8
sg8
I23
sg9
I16
sg10
I0
sg11
I5
sg12
I25
sg13
I0
sg14
I3
sg15
g53
sg17
S'1x instrument buffer 2'
p90
sg19
I1
sg20
I1
sa(dp91
g3
I5
sg4
S'Output 2'
p92
sg6
I200
sg7
I8
sg8
I24
sg9
I16
sg10
I0
sg11
I0
sg12
I25
sg13
I0
sg14
I3
sg15
g53
sg17
S'1x instrument buffer 2'
p93
sg19
I1
sg20
I0
sa(dp94
g3
I5
sg4
S'Waste 2'
p95
sg6
I400
sg7
I9
sg8
I25
sg9
I30
sg10
I1
sg11
I0
sg12
I25
sg13
I0
sg14
I8
sg15
g53
sg17
S'Output 2'
p96
sg19
I1
sg20
I0
sa(dp97
g3
I5
sg4
S'Output 2'
p98
sg6
I160
sg7
I8
sg8
I26
sg9
I16
sg10
I1
sg11
I5
sg12
I25
sg13
I0
sg14
I1
sg15
g53
sg17
S'Cleave solution 1'
p99
sg19
I1
sg20
I1
sa(dp100
g3
I5
sg4
S'Output 2'
p101
sg6
I160
sg7
I8
sg8
I27
sg9
I16
sg10
I1
sg11
I5
sg12
I25
sg13
I0
sg14
I1
sg15
g53
sg17
S'Cleave solution 1'
p102
sg19
I1
sg20
I1
sa(dp103
g3
I5
sg4
S'Output 2'
p104
sg6
I160
sg7
I8
sg8
I28
sg9
I16
sg10
I1
sg11
I5
sg12
I25
sg13
I0
sg14
I2
sg15
g53
sg17
S'Cleave solution 2.1'
p105
sg19
I1
sg20
I1
sa(dp106
g3
I5
sg4
S'Output 2'
p107
sg6
I160
sg7
I8
sg8
I29
sg9
I16
sg10
I1
sg11
I5
sg12
I25
sg13
I0
sg14
I2
sg15
g53
sg17
S'Cleave solution 2.1'
p108
sg19
I1
sg20
I1
sa(dp109
g3
I5
sg4
S'Output 2'
p110
sg6
I1000
sg7
I8
sg8
I30
sg9
I16
sg10
I1
sg11
I5
sg12
I25
sg13
I0
sg14
I3
sg15
g53
sg17
S'1x instrument buffer 2'
p111
sg19
I1
sg20
I1
sa(dp112
g3
I5
sg4
S'Output 2'
p113
sg6
I1000
sg7
I8
sg8
I31
sg9
I16
sg10
I1
sg11
I5
sg12
I25
sg13
I0
sg14
I3
sg15
g53
sg17
S'1x instrument buffer 2'
p114
sg19
I1
sg20
I1
sa(dp115
g3
I5
sg4
S'Output 2'
p116
sg6
I1000
sg7
I8
sg8
I32
sg9
I16
sg10
I1
sg11
I5
sg12
I25
sg13
I0
sg14
I3
sg15
g53
sg17
S'1x instrument buffer 2'
p117
sg19
I1
sg20
I1
sa(dp118
g3
I5
sg4
S'Output 1'
p119
sg6
I160
sg7
I8
sg8
I33
sg9
I16
sg10
I1
sg11
I45
sg12
I25
sg13
I0
sg14
I2
sg15
g16
sg17
S'T4 Ligase mix'
p120
sg19
I1
sg20
I1
sa(dp121
g3
I5
sg4
S'Output 2'
p122
sg6
I1000
sg7
I8
sg8
I34
sg9
I16
sg10
I1
sg11
I5
sg12
I25
sg13
I0
sg14
I3
sg15
g53
sg17
S'1x instrument buffer 2'
p123
sg19
I1
sg20
I1
sa(dp124
g3
I5
sg4
S'Output 2'
p125
sg6
I1000
sg7
I8
sg8
I35
sg9
I16
sg10
I1
sg11
I5
sg12
I25
sg13
I0
sg14
I3
sg15
g53
sg17
S'1x instrument buffer 2'
p126
sg19
I1
sg20
I1
sa(dp127
g3
I5
sg4
S'Output 2'
p128
sg6
I1000
sg7
I8
sg8
I36
sg9
I16
sg10
I1
sg11
I5
sg12
I25
sg13
I0
sg14
I3
sg15
g53
sg17
S'1x instrument buffer 2'
p129
sg19
I1
sg20
I1
sa(dp130
g3
I5
sg4
S'Output 2'
p131
sg6
I1000
sg7
I8
sg8
I37
sg9
I16
sg10
I1
sg11
I5
sg12
I25
sg13
I0
sg14
I3
sg15
g53
sg17
S'1x instrument buffer 2'
p132
sg19
I1
sg20
I1
sa(dp133
g3
I5
sg4
S'Output 2'
p134
sg6
I200
sg7
I8
sg8
I38
sg9
I16
sg10
I1
sg11
I0
sg12
I25
sg13
I0
sg14
I3
sg15
g53
sg17
S'1x instrument buffer 2'
p135
sg19
I1
sg20
I0
sa(dp136
g3
I5
sg4
S'Waste 2'
p137
sg6
I400
sg7
I9
sg8
I39
sg9
I30
sg10
I2
sg11
I0
sg12
I25
sg13
I0
sg14
I8
sg15
g53
sg17
S'Output 2'
p138
sg19
I1
sg20
I0
sa(dp139
g3
I5
sg4
S'Output 2'
p140
sg6
I160
sg7
I8
sg8
I40
sg9
I16
sg10
I2
sg11
I5
sg12
I25
sg13
I0
sg14
I1
sg15
g53
sg17
S'Cleave solution 1'
p141
sg19
I1
sg20
I1
sa(dp142
g3
I5
sg4
S'Output 2'
p143
sg6
I160
sg7
I8
sg8
I41
sg9
I16
sg10
I2
sg11
I5
sg12
I25
sg13
I0
sg14
I1
sg15
g53
sg17
S'Cleave solution 1'
p144
sg19
I1
sg20
I1
sa(dp145
g3
I5
sg4
S'Output 2'
p146
sg6
I160
sg7
I8
sg8
I42
sg9
I16
sg10
I2
sg11
I5
sg12
I25
sg13
I0
sg14
I2
sg15
g53
sg17
S'Cleave solution 2.1'
p147
sg19
I1
sg20
I1
sa(dp148
g3
I5
sg4
S'Output 2'
p149
sg6
I160
sg7
I8
sg8
I43
sg9
I16
sg10
I2
sg11
I5
sg12
I25
sg13
I0
sg14
I2
sg15
g53
sg17
S'Cleave solution 2.1'
p150
sg19
I1
sg20
I1
sa(dp151
g3
I5
sg4
S'Output 2'
p152
sg6
I1000
sg7
I8
sg8
I44
sg9
I16
sg10
I2
sg11
I5
sg12
I25
sg13
I0
sg14
I3
sg15
g53
sg17
S'1x instrument buffer 2'
p153
sg19
I1
sg20
I1
sa(dp154
g3
I5
sg4
S'Output 2'
p155
sg6
I1000
sg7
I8
sg8
I45
sg9
I16
sg10
I2
sg11
I5
sg12
I25
sg13
I0
sg14
I3
sg15
g53
sg17
S'1x instrument buffer 2'
p156
sg19
I1
sg20
I1
sa(dp157
g3
I5
sg4
S'Output 2'
p158
sg6
I1000
sg7
I8
sg8
I46
sg9
I16
sg10
I2
sg11
I5
sg12
I25
sg13
I0
sg14
I3
sg15
g53
sg17
S'1x instrument buffer 2'
p159
sg19
I1
sg20
I1
sa(dp160
g3
I5
sg4
S'Output 1'
p161
sg6
I160
sg7
I8
sg8
I47
sg9
I16
sg10
I2
sg11
I45
sg12
I25
sg13
I0
sg14
I2
sg15
g16
sg17
S'T4 Ligase mix'
p162
sg19
I1
sg20
I1
sa(dp163
g3
I5
sg4
S'Output 2'
p164
sg6
I1000
sg7
I8
sg8
I48
sg9
I16
sg10
I2
sg11
I5
sg12
I25
sg13
I0
sg14
I3
sg15
g53
sg17
S'1x instrument buffer 2'
p165
sg19
I1
sg20
I1
sa(dp166
g3
I5
sg4
S'Output 2'
p167
sg6
I1000
sg7
I8
sg8
I49
sg9
I16
sg10
I2
sg11
I5
sg12
I25
sg13
I0
sg14
I3
sg15
g53
sg17
S'1x instrument buffer 2'
p168
sg19
I1
sg20
I1
sa(dp169
g3
I5
sg4
S'Output 2'
p170
sg6
I1000
sg7
I8
sg8
I50
sg9
I16
sg10
I2
sg11
I5
sg12
I25
sg13
I0
sg14
I3
sg15
g53
sg17
S'1x instrument buffer 2'
p171
sg19
I1
sg20
I1
sa(dp172
g3
I5
sg4
S'Output 2'
p173
sg6
I1000
sg7
I8
sg8
I51
sg9
I16
sg10
I2
sg11
I5
sg12
I25
sg13
I0
sg14
I3
sg15
g53
sg17
S'1x instrument buffer 2'
p174
sg19
I1
sg20
I1
sa(dp175
g3
I5
sg4
S'Output 2'
p176
sg6
I200
sg7
I8
sg8
I52
sg9
I16
sg10
I2
sg11
I0
sg12
I25
sg13
I0
sg14
I3
sg15
g53
sg17
S'1x instrument buffer 2'
p177
sg19
I1
sg20
I0
sa(dp178
g3
I5
sg4
S'Waste 2'
p179
sg6
I400
sg7
I9
sg8
I53
sg9
I30
sg10
I3
sg11
I0
sg12
I25
sg13
I0
sg14
I8
sg15
g53
sg17
S'Output 2'
p180
sg19
I1
sg20
I0
sa(dp181
g3
I5
sg4
S'Output 2'
p182
sg6
I160
sg7
I8
sg8
I54
sg9
I16
sg10
I3
sg11
I5
sg12
I25
sg13
I0
sg14
I1
sg15
g53
sg17
S'Cleave solution 1'
p183
sg19
I1
sg20
I1
sa(dp184
g3
I5
sg4
S'Output 2'
p185
sg6
I160
sg7
I8
sg8
I55
sg9
I16
sg10
I3
sg11
I5
sg12
I25
sg13
I0
sg14
I1
sg15
g53
sg17
S'Cleave solution 1'
p186
sg19
I1
sg20
I1
sa(dp187
g3
I5
sg4
S'Output 2'
p188
sg6
I160
sg7
I8
sg8
I56
sg9
I16
sg10
I3
sg11
I5
sg12
I25
sg13
I0
sg14
I2
sg15
g53
sg17
S'Cleave solution 2.1'
p189
sg19
I1
sg20
I1
sa(dp190
g3
I5
sg4
S'Output 2'
p191
sg6
I160
sg7
I8
sg8
I57
sg9
I16
sg10
I3
sg11
I5
sg12
I25
sg13
I0
sg14
I2
sg15
g53
sg17
S'Cleave solution 2.1'
p192
sg19
I1
sg20
I1
sa(dp193
g3
I5
sg4
S'Output 2'
p194
sg6
I1000
sg7
I8
sg8
I58
sg9
I16
sg10
I3
sg11
I5
sg12
I25
sg13
I0
sg14
I3
sg15
g53
sg17
S'1x instrument buffer 2'
p195
sg19
I1
sg20
I1
sa(dp196
g3
I5
sg4
S'Output 2'
p197
sg6
I1000
sg7
I8
sg8
I59
sg9
I16
sg10
I3
sg11
I5
sg12
I25
sg13
I0
sg14
I3
sg15
g53
sg17
S'1x instrument buffer 2'
p198
sg19
I1
sg20
I1
sa(dp199
g3
I5
sg4
S'Output 2'
p200
sg6
I1000
sg7
I8
sg8
I60
sg9
I16
sg10
I3
sg11
I5
sg12
I25
sg13
I0
sg14
I3
sg15
g53
sg17
S'1x instrument buffer 2'
p201
sg19
I1
sg20
I1
sa(dp202
g3
I5
sg4
S'Output 1'
p203
sg6
I160
sg7
I8
sg8
I61
sg9
I16
sg10
I3
sg11
I45
sg12
I25
sg13
I0
sg14
I2
sg15
g16
sg17
S'T4 Ligase mix'
p204
sg19
I1
sg20
I1
sa(dp205
g3
I5
sg4
S'Output 2'
p206
sg6
I1000
sg7
I8
sg8
I62
sg9
I16
sg10
I3
sg11
I5
sg12
I25
sg13
I0
sg14
I3
sg15
g53
sg17
S'1x instrument buffer 2'
p207
sg19
I1
sg20
I1
sa(dp208
g3
I5
sg4
S'Output 2'
p209
sg6
I1000
sg7
I8
sg8
I63
sg9
I16
sg10
I3
sg11
I5
sg12
I25
sg13
I0
sg14
I3
sg15
g53
sg17
S'1x instrument buffer 2'
p210
sg19
I1
sg20
I1
sa(dp211
g3
I5
sg4
S'Output 2'
p212
sg6
I1000
sg7
I8
sg8
I64
sg9
I16
sg10
I3
sg11
I5
sg12
I25
sg13
I0
sg14
I3
sg15
g53
sg17
S'1x instrument buffer 2'
p213
sg19
I1
sg20
I1
sa(dp214
g3
I5
sg4
S'Output 2'
p215
sg6
I1000
sg7
I8
sg8
I65
sg9
I16
sg10
I3
sg11
I5
sg12
I25
sg13
I0
sg14
I3
sg15
g53
sg17
S'1x instrument buffer 2'
p216
sg19
I1
sg20
I1
sa(dp217
g3
I5
sg4
S'Output 2'
p218
sg6
I200
sg7
I8
sg8
I66
sg9
I16
sg10
I3
sg11
I0
sg12
I25
sg13
I0
sg14
I3
sg15
g53
sg17
S'1x instrument buffer 2'
p219
sg19
I1
sg20
I0
sa(dp220
g3
I5
sg4
S'Waste 2'
p221
sg6
I400
sg7
I9
sg8
I67
sg9
I30
sg10
I4
sg11
I0
sg12
I25
sg13
I0
sg14
I8
sg15
g53
sg17
S'Output 2'
p222
sg19
I1
sg20
I0
sa(dp223
g3
I5
sg4
S'Output 2'
p224
sg6
I160
sg7
I8
sg8
I68
sg9
I16
sg10
I4
sg11
I5
sg12
I25
sg13
I0
sg14
I1
sg15
g53
sg17
S'Cleave solution 1'
p225
sg19
I1
sg20
I1
sa(dp226
g3
I5
sg4
S'Output 2'
p227
sg6
I160
sg7
I8
sg8
I69
sg9
I16
sg10
I4
sg11
I5
sg12
I25
sg13
I0
sg14
I1
sg15
g53
sg17
S'Cleave solution 1'
p228
sg19
I1
sg20
I1
sa(dp229
g3
I5
sg4
S'Output 2'
p230
sg6
I160
sg7
I8
sg8
I70
sg9
I16
sg10
I4
sg11
I5
sg12
I25
sg13
I0
sg14
I2
sg15
g53
sg17
S'Cleave solution 2.1'
p231
sg19
I1
sg20
I1
sa(dp232
g3
I5
sg4
S'Output 2'
p233
sg6
I160
sg7
I8
sg8
I71
sg9
I16
sg10
I4
sg11
I5
sg12
I25
sg13
I0
sg14
I2
sg15
g53
sg17
S'Cleave solution 2.1'
p234
sg19
I1
sg20
I1
sa(dp235
g3
I5
sg4
S'Output 2'
p236
sg6
I1000
sg7
I8
sg8
I72
sg9
I16
sg10
I4
sg11
I5
sg12
I25
sg13
I0
sg14
I3
sg15
g53
sg17
S'1x instrument buffer 2'
p237
sg19
I1
sg20
I1
sa(dp238
g3
I5
sg4
S'Output 2'
p239
sg6
I1000
sg7
I8
sg8
I73
sg9
I16
sg10
I4
sg11
I5
sg12
I25
sg13
I0
sg14
I3
sg15
g53
sg17
S'1x instrument buffer 2'
p240
sg19
I1
sg20
I1
sa(dp241
g3
I5
sg4
S'Output 2'
p242
sg6
I1000
sg7
I8
sg8
I74
sg9
I16
sg10
I4
sg11
I5
sg12
I25
sg13
I0
sg14
I3
sg15
g53
sg17
S'1x instrument buffer 2'
p243
sg19
I1
sg20
I1
sa(dp244
g3
I5
sg4
S'Output 1'
p245
sg6
I160
sg7
I8
sg8
I75
sg9
I16
sg10
I4
sg11
I45
sg12
I25
sg13
I0
sg14
I2
sg15
g16
sg17
S'T4 Ligase mix'
p246
sg19
I1
sg20
I1
sa(dp247
g3
I5
sg4
S'Output 1'
p248
sg6
I1000
sg7
I8
sg8
I76
sg9
I16
sg10
I4
sg11
I5
sg12
I25
sg13
I0
sg14
I3
sg15
g16
sg17
S'1x instrument buffer 1'
p249
sg19
I1
sg20
I1
sa(dp250
g3
I5
sg4
S'Output 1'
p251
sg6
I1000
sg7
I8
sg8
I77
sg9
I16
sg10
I4
sg11
I5
sg12
I25
sg13
I0
sg14
I3
sg15
g16
sg17
S'1x instrument buffer 1'
p252
sg19
I1
sg20
I1
sa(dp253
g3
I5
sg4
S'Output 1'
p254
sg6
I1000
sg7
I8
sg8
I78
sg9
I16
sg10
I4
sg11
I5
sg12
I25
sg13
I0
sg14
I3
sg15
g16
sg17
S'1x instrument buffer 1'
p255
sg19
I1
sg20
I1
sa(dp256
g3
I5
sg4
S'Output 1'
p257
sg6
I1000
sg7
I8
sg8
I79
sg9
I16
sg10
I4
sg11
I5
sg12
I25
sg13
I0
sg14
I3
sg15
g16
sg17
S'1x instrument buffer 1'
p258
sg19
I1
sg20
I1
sa(dp259
g3
I5
sg4
S'Output 1'
p260
sg6
I800
sg7
I8
sg8
I80
sg9
I16
sg10
I4
sg11
I0
sg12
I25
sg13
I0
sg14
I3
sg15
g16
sg17
S'1x instrument buffer 1'
p261
sg19
I1
sg20
I0
sa(dp262
g3
I5
sg4
S'Waste 2'
p263
sg6
I1000
sg7
I9
sg8
I81
sg9
I30
sg10
I5
sg11
I0
sg12
I25
sg13
I0
sg14
I8
sg15
g53
sg17
S'Output 2'
p264
sg19
I1
sg20
I0
sa(dp265
g3
I5
sg4
S'Output 2'
p266
sg6
I200
sg7
I8
sg8
I82
sg9
I16
sg10
I5
sg11
I5
sg12
I25
sg13
I0
sg14
I1
sg15
g53
sg17
S'Cleave solution 1'
p267
sg19
I1
sg20
I1
sa(dp268
g3
I5
sg4
S'Output 2'
p269
sg6
I200
sg7
I8
sg8
I83
sg9
I16
sg10
I5
sg11
I5
sg12
I25
sg13
I0
sg14
I1
sg15
g53
sg17
S'Cleave solution 1'
p270
sg19
I1
sg20
I1
sa(dp271
g3
I5
sg4
S'Output 2'
p272
sg6
I200
sg7
I8
sg8
I84
sg9
I16
sg10
I5
sg11
I5
sg12
I25
sg13
I0
sg14
I2
sg15
g53
sg17
S'Cleave solution 2.1'
p273
sg19
I1
sg20
I1
sa(dp274
g3
I5
sg4
S'Output 2'
p275
sg6
I200
sg7
I8
sg8
I85
sg9
I16
sg10
I5
sg11
I5
sg12
I25
sg13
I0
sg14
I2
sg15
g53
sg17
S'Cleave solution 2.1'
p276
sg19
I1
sg20
I1
sa(dp277
g3
I5
sg4
S'Output 2'
p278
sg6
I1000
sg7
I8
sg8
I86
sg9
I16
sg10
I6
sg11
I5
sg12
I25
sg13
I0
sg14
I3
sg15
g53
sg17
S'1x instrument buffer 2'
p279
sg19
I1
sg20
I1
sa(dp280
g3
I5
sg4
S'Output 2'
p281
sg6
I1000
sg7
I8
sg8
I87
sg9
I16
sg10
I6
sg11
I5
sg12
I25
sg13
I0
sg14
I3
sg15
g53
sg17
S'1x instrument buffer 2'
p282
sg19
I1
sg20
I1
sa(dp283
g3
I5
sg4
S'Output 2'
p284
sg6
I1000
sg7
I8
sg8
I88
sg9
I16
sg10
I6
sg11
I5
sg12
I25
sg13
I0
sg14
I3
sg15
g53
sg17
S'1x instrument buffer 2'
p285
sg19
I1
sg20
I1
sa(dp286
g3
I5
sg4
S'Output 1'
p287
sg6
I200
sg7
I8
sg8
I89
sg9
I16
sg10
I6
sg11
I45
sg12
I25
sg13
I0
sg14
I2
sg15
g16
sg17
S'T4 Ligase mix'
p288
sg19
I1
sg20
I1
sa(dp289
g3
I5
sg4
S'Output 1'
p290
sg6
I1000
sg7
I8
sg8
I90
sg9
I16
sg10
I6
sg11
I5
sg12
I25
sg13
I0
sg14
I3
sg15
g16
sg17
S'1x instrument buffer 1'
p291
sg19
I1
sg20
I1
sa(dp292
g3
I5
sg4
S'Output 1'
p293
sg6
I1000
sg7
I8
sg8
I91
sg9
I16
sg10
I6
sg11
I5
sg12
I25
sg13
I0
sg14
I3
sg15
g16
sg17
S'1x instrument buffer 1'
p294
sg19
I1
sg20
I1
sa(dp295
g3
I5
sg4
S'Output 1'
p296
sg6
I1000
sg7
I8
sg8
I92
sg9
I16
sg10
I6
sg11
I5
sg12
I25
sg13
I0
sg14
I3
sg15
g16
sg17
S'1x instrument buffer 1'
p297
sg19
I1
sg20
I1
sa(dp298
g3
I5
sg4
S'Output 1'
p299
sg6
I1000
sg7
I8
sg8
I93
sg9
I16
sg10
I6
sg11
I5
sg12
I25
sg13
I0
sg14
I3
sg15
g16
sg17
S'1x instrument buffer 1'
p300
sg19
I1
sg20
I1
sa(dp301
g3
I5
sg4
S'Output 1'
p302
sg6
I800
sg7
I8
sg8
I94
sg9
I16
sg10
I6
sg11
I0
sg12
I25
sg13
I0
sg14
I3
sg15
g16
sg17
S'1x instrument buffer 1'
p303
sg19
I1
sg20
I0
sa(dp304
g3
I5
sg4
S'Waste 2'
p305
sg6
I1000
sg7
I9
sg8
I95
sg9
I30
sg10
I7
sg11
I0
sg12
I25
sg13
I0
sg14
I8
sg15
g53
sg17
S'Output 2'
p306
sg19
I1
sg20
I0
sa(dp307
g3
I5
sg4
S'Output 2'
p308
sg6
I200
sg7
I8
sg8
I96
sg9
I16
sg10
I7
sg11
I5
sg12
I25
sg13
I0
sg14
I1
sg15
g53
sg17
S'Cleave solution 1'
p309
sg19
I1
sg20
I1
sa(dp310
g3
I5
sg4
S'Output 2'
p311
sg6
I200
sg7
I8
sg8
I97
sg9
I16
sg10
I7
sg11
I5
sg12
I25
sg13
I0
sg14
I1
sg15
g53
sg17
S'Cleave solution 1'
p312
sg19
I1
sg20
I1
sa(dp313
g3
I5
sg4
S'Output 2'
p314
sg6
I200
sg7
I8
sg8
I98
sg9
I16
sg10
I7
sg11
I5
sg12
I25
sg13
I0
sg14
I2
sg15
g53
sg17
S'Cleave solution 2.1'
p315
sg19
I1
sg20
I1
sa(dp316
g3
I5
sg4
S'Output 2'
p317
sg6
I200
sg7
I8
sg8
I99
sg9
I16
sg10
I7
sg11
I5
sg12
I25
sg13
I0
sg14
I2
sg15
g53
sg17
S'Cleave solution 2.1'
p318
sg19
I1
sg20
I1
sa(dp319
g3
I5
sg4
S'Output 2'
p320
sg6
I1000
sg7
I8
sg8
I100
sg9
I16
sg10
I7
sg11
I5
sg12
I25
sg13
I0
sg14
I3
sg15
g53
sg17
S'1x instrument buffer 2'
p321
sg19
I1
sg20
I1
sa(dp322
g3
I5
sg4
S'Output 2'
p323
sg6
I1000
sg7
I8
sg8
I101
sg9
I16
sg10
I7
sg11
I5
sg12
I25
sg13
I0
sg14
I3
sg15
g53
sg17
S'1x instrument buffer 2'
p324
sg19
I1
sg20
I1
sa(dp325
g3
I5
sg4
S'Output 2'
p326
sg6
I1000
sg7
I8
sg8
I102
sg9
I16
sg10
I7
sg11
I5
sg12
I25
sg13
I0
sg14
I3
sg15
g53
sg17
S'1x instrument buffer 2'
p327
sg19
I1
sg20
I1
sa(dp328
g3
I5
sg4
S'Output 2'
p329
sg6
I800
sg7
I8
sg8
I103
sg9
I16
sg10
I7
sg11
I0
sg12
I25
sg13
I0
sg14
I3
sg15
g53
sg17
S'1x instrument buffer 2'
p330
sg19
I1
sg20
I0
sa.