(lp1
(dp2
S'reagent'
p3
S'Cleave solution 1'
p4
sS'pump'
p5
S'/dev/ttyUSB1'
p6
sS'port'
p7
I1
sa(dp8
g3
S'Cleave solution 2.1'
p9
sg5
g6
sg7
I2
sa(dp10
g3
S'1x instrument - cleave'
p11
sg5
g6
sg7
I3
sa(dp12
g3
S'dH2O - cleave'
p13
sg5
g6
sg7
I4
sa(dp14
g3
S''
sg5
g6
sg7
I5
sa(dp15
g3
S''
sg5
g6
sg7
I6
sa(dp16
g3
S'Air 1'
p17
sg5
g6
sg7
I7
sa(dp18
g3
S'Output 1'
p19
sg5
g6
sg7
I8
sa(dp20
g3
S'Waste 1'
p21
sg5
g6
sg7
I9
sa(dp22
g3
S''
sg5
S'/dev/ttyUSB0'
p23
sg7
I1
sa(dp24
g3
S'T4 ligase mix'
p25
sg5
g23
sg7
I2
sa(dp26
g3
S'1x instrument - ligase'
p27
sg5
g23
sg7
I3
sa(dp28
g3
S''
sg5
g23
sg7
I4
sa(dp29
g3
S''
sg5
g23
sg7
I5
sa(dp30
g3
S''
sg5
g23
sg7
I6
sa(dp31
g3
S'Air 2'
p32
sg5
g23
sg7
I7
sa(dp33
g3
S'Output 2'
p34
sg5
g23
sg7
I8
sa(dp35
g3
S'Waste 2'
p36
sg5
g23
sg7
I9
sa.(lp1
(dp2
S'waitsecs'
p3
I5
sS'toportreagent'
p4
S'Output 2'
p5
sS'volume'
p6
I1000
sS'toport'
p7
I8
sS'cmdnumber'
p8
I0
sS'speed'
p9
I16
sS'cycle'
p10
I0
sS'waitmins'
p11
I0
sS'temp'
p12
I25
sS'heatwhen'
p13
I0
sS'fromport'
p14
I3
sS'pump'
p15
S'/dev/ttyUSB0'
p16
sS'fromportreagent'
p17
S'1x instrument - ligase'
p18
sS'waste'
p19
I1
sS'type'
p20
I1
sa(dp21
g3
I5
sg4
S'Waste 2'
p22
sg6
I500
sg7
I9
sg8
I1
sg9
I30
sg10
I0
sg11
I0
sg12
I25
sg13
I0
sg14
I8
sg15
g16
sg17
S'Output 2'
p23
sg19
I1
sg20
I0
sa(dp24
g3
I5
sg4
S'Output 2'
p25
sg6
I250
sg7
I8
sg8
I2
sg9
I16
sg10
I0
sg11
I0
sg12
I25
sg13
I0
sg14
I2
sg15
g16
sg17
S'T4 ligase mix'
p26
sg19
I0
sg20
I0
sa(dp27
g3
I5
sg4
S'Waste 2'
p28
sg6
I1000
sg7
I9
sg8
I3
sg9
I8
sg10
I0
sg11
I0
sg12
I25
sg13
I0
sg14
I3
sg15
g16
sg17
S'1x instrument - ligase'
p29
sg19
I0
sg20
I0
sa(dp30
g3
I5
sg4
S'Waste 2'
p31
sg6
I1000
sg7
I9
sg8
I4
sg9
I8
sg10
I0
sg11
I0
sg12
I25
sg13
I0
sg14
I3
sg15
g16
sg17
S'1x instrument - ligase'
p32
sg19
I0
sg20
I0
sa(dp33
g3
I5
sg4
S'Waste 2'
p34
sg6
I1000
sg7
I9
sg8
I5
sg9
I8
sg10
I0
sg11
I0
sg12
I25
sg13
I0
sg14
I3
sg15
g16
sg17
S'1x instrument - ligase'
p35
sg19
I0
sg20
I0
sa(dp36
g3
I5
sg4
S'Waste 2'
p37
sg6
I1000
sg7
I9
sg8
I6
sg9
I8
sg10
I0
sg11
I45
sg12
I25
sg13
I0
sg14
I3
sg15
g16
sg17
S'1x instrument - ligase'
p38
sg19
I0
sg20
I0
sa(dp39
g3
I5
sg4
S'Waste 2'
p40
sg6
I300
sg7
I9
sg8
I7
sg9
I30
sg10
I0
sg11
I0
sg12
I25
sg13
I0
sg14
I8
sg15
g16
sg17
S'Output 2'
p41
sg19
I0
sg20
I0
sa(dp42
g3
I5
sg4
S'Waste 2'
p43
sg6
I1000
sg7
I9
sg8
I8
sg9
I8
sg10
I0
sg11
I0
sg12
I25
sg13
I0
sg14
I3
sg15
g16
sg17
S'1x instrument - ligase'
p44
sg19
I0
sg20
I0
sa(dp45
g3
I5
sg4
S'Waste 2'
p46
sg6
I1000
sg7
I9
sg8
I9
sg9
I8
sg10
I0
sg11
I0
sg12
I25
sg13
I0
sg14
I3
sg15
g16
sg17
S'1x instrument - ligase'
p47
sg19
I0
sg20
I0
sa(dp48
g3
I5
sg4
S'Waste 2'
p49
sg6
I1000
sg7
I9
sg8
I10
sg9
I8
sg10
I0
sg11
I0
sg12
I25
sg13
I0
sg14
I3
sg15
g16
sg17
S'1x instrument - ligase'
p50
sg19
I0
sg20
I0
sa(dp51
g3
I5
sg4
S'Output 2'
p52
sg6
I230
sg7
I8
sg8
I11
sg9
I16
sg10
I0
sg11
I0
sg12
I25
sg13
I0
sg14
I3
sg15
g16
sg17
S'1x instrument - ligase'
p53
sg19
I1
sg20
I1
sa(dp54
g3
I5
sg4
S'Output 2'
p55
sg6
I230
sg7
I8
sg8
I12
sg9
I16
sg10
I0
sg11
I0
sg12
I25
sg13
I0
sg14
I3
sg15
g16
sg17
S'1x instrument - ligase'
p56
sg19
I1
sg20
I1
sa(dp57
g3
I5
sg4
S'Output 2'
p58
sg6
I1000
sg7
I8
sg8
I13
sg9
I16
sg10
I0
sg11
I5
sg12
I25
sg13
I0
sg14
I3
sg15
g16
sg17
S'1x instrument - ligase'
p59
sg19
I1
sg20
I1
sa(dp60
g3
I5
sg4
S'Output 2'
p61
sg6
I1000
sg7
I8
sg8
I14
sg9
I16
sg10
I0
sg11
I5
sg12
I25
sg13
I0
sg14
I3
sg15
g16
sg17
S'1x instrument - ligase'
p62
sg19
I1
sg20
I1
sa(dp63
g3
I5
sg4
S'Output 2'
p64
sg6
I1000
sg7
I8
sg8
I15
sg9
I16
sg10
I0
sg11
I5
sg12
I25
sg13
I0
sg14
I3
sg15
g16
sg17
S'1x instrument - ligase'
p65
sg19
I1
sg20
I1
sa(dp66
g3
I5
sg4
S'Output 2'
p67
sg6
I1000
sg7
I8
sg8
I16
sg9
I16
sg10
I0
sg11
I5
sg12
I25
sg13
I0
sg14
I3
sg15
g16
sg17
S'1x instrument - ligase'
p68
sg19
I1
sg20
I1
sa(dp69
g3
I5
sg4
S'Output 2'
p70
sg6
I750
sg7
I8
sg8
I17
sg9
I16
sg10
I0
sg11
I0
sg12
I25
sg13
I0
sg14
I3
sg15
g16
sg17
S'1x instrument - ligase'
p71
sg19
I0
sg20
I0
sa(dp72
g3
I5
sg4
S'Waste 1'
p73
sg6
I800
sg7
I9
sg8
I18
sg9
I36
sg10
I1
sg11
I0
sg12
I25
sg13
I0
sg14
I8
sg15
S'/dev/ttyUSB1'
p74
sg17
S'Output 1'
p75
sg19
I0
sg20
I0
sa(dp76
g3
I5
sg4
S'Waste 1'
p77
sg6
I4000
sg7
I9
sg8
I19
sg9
I8
sg10
I1
sg11
I0
sg12
I25
sg13
I0
sg14
I4
sg15
g74
sg17
S'dH2O - cleave'
p78
sg19
I0
sg20
I0
sa(dp79
g3
I5
sg4
S'Waste 1'
p80
sg6
I4000
sg7
I9
sg8
I20
sg9
I8
sg10
I1
sg11
I0
sg12
I25
sg13
I0
sg14
I4
sg15
g74
sg17
S'dH2O - cleave'
p81
sg19
I0
sg20
I0
sa(dp82
g3
I5
sg4
S'Waste 1'
p83
sg6
I4000
sg7
I9
sg8
I21
sg9
I8
sg10
I1
sg11
I0
sg12
I25
sg13
I0
sg14
I4
sg15
g74
sg17
S'dH2O - cleave'
p84
sg19
I0
sg20
I0
sa(dp85
g3
I5
sg4
S'Waste 1'
p86
sg6
I4000
sg7
I9
sg8
I22
sg9
I8
sg10
I1
sg11
I0
sg12
I25
sg13
I0
sg14
I3
sg15
g74
sg17
S'1x instrument - cleave'
p87
sg19
I0
sg20
I0
sa(dp88
g3
I5
sg4
S'Waste 1'
p89
sg6
I4000
sg7
I9
sg8
I23
sg9
I8
sg10
I1
sg11
I0
sg12
I25
sg13
I0
sg14
I3
sg15
g74
sg17
S'1x instrument - cleave'
p90
sg19
I0
sg20
I0
sa(dp91
g3
I5
sg4
S'Output 1'
p92
sg6
I300
sg7
I8
sg8
I24
sg9
I20
sg10
I1
sg11
I5
sg12
I25
sg13
I0
sg14
I1
sg15
g74
sg17
S'Cleave solution 1'
p93
sg19
I1
sg20
I1
sa(dp94
g3
I5
sg4
S'Waste 1'
p95
sg6
I4000
sg7
I9
sg8
I25
sg9
I8
sg10
I1
sg11
I0
sg12
I25
sg13
I0
sg14
I4
sg15
g74
sg17
S'dH2O - cleave'
p96
sg19
I0
sg20
I0
sa(dp97
g3
I5
sg4
S'Waste 1'
p98
sg6
I4000
sg7
I9
sg8
I26
sg9
I8
sg10
I1
sg11
I0
sg12
I25
sg13
I0
sg14
I4
sg15
g74
sg17
S'dH2O - cleave'
p99
sg19
I0
sg20
I0
sa(dp100
g3
I5
sg4
S'Waste 1'
p101
sg6
I4000
sg7
I9
sg8
I27
sg9
I8
sg10
I1
sg11
I0
sg12
I25
sg13
I0
sg14
I4
sg15
g74
sg17
S'dH2O - cleave'
p102
sg19
I0
sg20
I0
sa(dp103
g3
I5
sg4
S'Waste 1'
p104
sg6
I4000
sg7
I9
sg8
I28
sg9
I8
sg10
I1
sg11
I0
sg12
I25
sg13
I0
sg14
I3
sg15
g74
sg17
S'1x instrument - cleave'
p105
sg19
I0
sg20
I0
sa(dp106
g3
I5
sg4
S'Waste 1'
p107
sg6
I4000
sg7
I9
sg8
I29
sg9
I8
sg10
I1
sg11
I0
sg12
I25
sg13
I0
sg14
I3
sg15
g74
sg17
S'1x instrument - cleave'
p108
sg19
I0
sg20
I0
sa(dp109
g3
I5
sg4
S'Output 1'
p110
sg6
I300
sg7
I8
sg8
I30
sg9
I20
sg10
I1
sg11
I5
sg12
I25
sg13
I0
sg14
I1
sg15
g74
sg17
S'Cleave solution 1'
p111
sg19
I1
sg20
I1
sa(dp112
g3
I5
sg4
S'Waste 1'
p113
sg6
I4000
sg7
I9
sg8
I31
sg9
I8
sg10
I1
sg11
I0
sg12
I25
sg13
I0
sg14
I4
sg15
g74
sg17
S'dH2O - cleave'
p114
sg19
I0
sg20
I0
sa(dp115
g3
I5
sg4
S'Waste 1'
p116
sg6
I4000
sg7
I9
sg8
I32
sg9
I8
sg10
I1
sg11
I0
sg12
I25
sg13
I0
sg14
I4
sg15
g74
sg17
S'dH2O - cleave'
p117
sg19
I0
sg20
I0
sa(dp118
g3
I5
sg4
S'Waste 1'
p119
sg6
I4000
sg7
I9
sg8
I33
sg9
I8
sg10
I1
sg11
I0
sg12
I25
sg13
I0
sg14
I4
sg15
g74
sg17
S'dH2O - cleave'
p120
sg19
I0
sg20
I0
sa(dp121
g3
I5
sg4
S'Waste 1'
p122
sg6
I4000
sg7
I9
sg8
I34
sg9
I8
sg10
I1
sg11
I0
sg12
I25
sg13
I0
sg14
I3
sg15
g74
sg17
S'1x instrument - cleave'
p123
sg19
I0
sg20
I0
sa(dp124
g3
I5
sg4
S'Waste 1'
p125
sg6
I4000
sg7
I9
sg8
I35
sg9
I8
sg10
I1
sg11
I0
sg12
I25
sg13
I0
sg14
I3
sg15
g74
sg17
S'1x instrument - cleave'
p126
sg19
I0
sg20
I0
sa(dp127
g3
I5
sg4
S'Output 1'
p128
sg6
I300
sg7
I8
sg8
I36
sg9
I20
sg10
I1
sg11
I0
sg12
I25
sg13
I0
sg14
I3
sg15
g74
sg17
S'1x instrument - cleave'
p129
sg19
I1
sg20
I1
sa(dp130
g3
I5
sg4
S'Output 1'
p131
sg6
I1000
sg7
I8
sg8
I37
sg9
I20
sg10
I1
sg11
I0
sg12
I25
sg13
I0
sg14
I3
sg15
g74
sg17
S'1x instrument - cleave'
p132
sg19
I1
sg20
I1
sa(dp133
g3
I5
sg4
S'Output 1'
p134
sg6
I1000
sg7
I8
sg8
I38
sg9
I20
sg10
I1
sg11
I5
sg12
I25
sg13
I0
sg14
I3
sg15
g74
sg17
S'1x instrument - cleave'
p135
sg19
I1
sg20
I1
sa(dp136
g3
I5
sg4
S'Waste 1'
p137
sg6
I4000
sg7
I9
sg8
I39
sg9
I8
sg10
I1
sg11
I0
sg12
I25
sg13
I0
sg14
I4
sg15
g74
sg17
S'dH2O - cleave'
p138
sg19
I0
sg20
I0
sa(dp139
g3
I5
sg4
S'Waste 1'
p140
sg6
I4000
sg7
I9
sg8
I40
sg9
I8
sg10
I1
sg11
I0
sg12
I25
sg13
I0
sg14
I3
sg15
g74
sg17
S'1x instrument - cleave'
p141
sg19
I0
sg20
I0
sa(dp142
g3
I5
sg4
S'Output 1'
p143
sg6
I300
sg7
I8
sg8
I41
sg9
I20
sg10
I1
sg11
I5
sg12
I25
sg13
I0
sg14
I2
sg15
g74
sg17
S'Cleave solution 2.1'
p144
sg19
I1
sg20
I1
sa(dp145
g3
I5
sg4
S'Waste 1'
p146
sg6
I4000
sg7
I9
sg8
I42
sg9
I8
sg10
I1
sg11
I0
sg12
I25
sg13
I0
sg14
I4
sg15
g74
sg17
S'dH2O - cleave'
p147
sg19
I0
sg20
I0
sa(dp148
g3
I5
sg4
S'Waste 1'
p149
sg6
I4000
sg7
I9
sg8
I43
sg9
I8
sg10
I1
sg11
I0
sg12
I25
sg13
I0
sg14
I4
sg15
g74
sg17
S'dH2O - cleave'
p150
sg19
I0
sg20
I0
sa(dp151
g3
I5
sg4
S'Waste 1'
p152
sg6
I4000
sg7
I9
sg8
I44
sg9
I8
sg10
I1
sg11
I0
sg12
I25
sg13
I0
sg14
I4
sg15
g74
sg17
S'dH2O - cleave'
p153
sg19
I0
sg20
I0
sa(dp154
g3
I5
sg4
S'Waste 1'
p155
sg6
I4000
sg7
I9
sg8
I45
sg9
I8
sg10
I1
sg11
I0
sg12
I25
sg13
I0
sg14
I3
sg15
g74
sg17
S'1x instrument - cleave'
p156
sg19
I0
sg20
I0
sa(dp157
g3
I5
sg4
S'Waste 1'
p158
sg6
I4000
sg7
I9
sg8
I46
sg9
I8
sg10
I1
sg11
I0
sg12
I25
sg13
I0
sg14
I3
sg15
g74
sg17
S'1x instrument - cleave'
p159
sg19
I0
sg20
I0
sa(dp160
g3
I5
sg4
S'Output 1'
p161
sg6
I300
sg7
I8
sg8
I47
sg9
I20
sg10
I1
sg11
I5
sg12
I25
sg13
I0
sg14
I2
sg15
g74
sg17
S'Cleave solution 2.1'
p162
sg19
I1
sg20
I1
sa(dp163
g3
I5
sg4
S'Waste 1'
p164
sg6
I4000
sg7
I9
sg8
I48
sg9
I8
sg10
I1
sg11
I0
sg12
I25
sg13
I0
sg14
I4
sg15
g74
sg17
S'dH2O - cleave'
p165
sg19
I0
sg20
I0
sa(dp166
g3
I5
sg4
S'Waste 1'
p167
sg6
I4000
sg7
I9
sg8
I49
sg9
I8
sg10
I1
sg11
I0
sg12
I25
sg13
I0
sg14
I4
sg15
g74
sg17
S'dH2O - cleave'
p168
sg19
I0
sg20
I0
sa(dp169
g3
I5
sg4
S'Waste 1'
p170
sg6
I4000
sg7
I9
sg8
I50
sg9
I8
sg10
I1
sg11
I0
sg12
I25
sg13
I0
sg14
I4
sg15
g74
sg17
S'dH2O - cleave'
p171
sg19
I0
sg20
I0
sa(dp172
g3
I5
sg4
S'Waste 1'
p173
sg6
I4000
sg7
I9
sg8
I51
sg9
I8
sg10
I1
sg11
I0
sg12
I25
sg13
I0
sg14
I3
sg15
g74
sg17
S'1x instrument - cleave'
p174
sg19
I0
sg20
I0
sa(dp175
g3
I5
sg4
S'Waste 1'
p176
sg6
I4000
sg7
I9
sg8
I52
sg9
I8
sg10
I1
sg11
I0
sg12
I25
sg13
I0
sg14
I3
sg15
g74
sg17
S'1x instrument - cleave'
p177
sg19
I0
sg20
I0
sa(dp178
g3
I5
sg4
S'Output 1'
p179
sg6
I300
sg7
I8
sg8
I53
sg9
I20
sg10
I1
sg11
I0
sg12
I25
sg13
I0
sg14
I3
sg15
g74
sg17
S'1x instrument - cleave'
p180
sg19
I1
sg20
I1
sa(dp181
g3
I5
sg4
S'Output 1'
p182
sg6
I1000
sg7
I8
sg8
I54
sg9
I20
sg10
I1
sg11
I5
sg12
I25
sg13
I0
sg14
I3
sg15
g74
sg17
S'1x instrument - cleave'
p183
sg19
I1
sg20
I1
sa(dp184
g3
I5
sg4
S'Output 1'
p185
sg6
I1000
sg7
I8
sg8
I55
sg9
I20
sg10
I1
sg11
I5
sg12
I25
sg13
I0
sg14
I3
sg15
g74
sg17
S'1x instrument - cleave'
p186
sg19
I1
sg20
I1
sa(dp187
g3
I5
sg4
S'Output 1'
p188
sg6
I1000
sg7
I8
sg8
I56
sg9
I20
sg10
I1
sg11
I5
sg12
I25
sg13
I0
sg14
I3
sg15
g74
sg17
S'1x instrument - cleave'
p189
sg19
I1
sg20
I1
sa.