(lp1
(dp2
S'reagent'
p3
S'Cleave solution 1'
p4
sS'pump'
p5
S'/dev/ttyUSB1'
p6
sS'port'
p7
I1
sa(dp8
g3
S'Cleave 2 part 1'
p9
sg5
g6
sg7
I2
sa(dp10
g3
S'Cleave 2 part 2'
p11
sg5
g6
sg7
I3
sa(dp12
g3
S'Cleave solution 2.1'
p13
sg5
g6
sg7
I4
sa(dp14
g3
S'1x instrument - cleave'
p15
sg5
g6
sg7
I5
sa(dp16
g3
S'dH2O - cleave'
p17
sg5
g6
sg7
I6
sa(dp18
g3
S'Air 1'
p19
sg5
g6
sg7
I7
sa(dp20
g3
S'Output 1'
p21
sg5
g6
sg7
I8
sa(dp22
g3
S'Waste 1'
p23
sg5
g6
sg7
I9
sa(dp24
g3
S''
sg5
S'/dev/ttyUSB0'
p25
sg7
I1
sa(dp26
g3
S'T4 ligase mix'
p27
sg5
g25
sg7
I2
sa(dp28
g3
S'1x instrument - ligase'
p29
sg5
g25
sg7
I3
sa(dp30
g3
S'dH2O - ligase'
p31
sg5
g25
sg7
I4
sa(dp32
g3
S'Imaging buffer'
p33
sg5
g25
sg7
I5
sa(dp34
g3
S''
sg5
g25
sg7
I6
sa(dp35
g3
S'Air 2'
p36
sg5
g25
sg7
I7
sa(dp37
g3
S'Output 2'
p38
sg5
g25
sg7
I8
sa(dp39
g3
S'Waste 2'
p40
sg5
g25
sg7
I9
sa.(lp1
(dp2
S'waitsecs'
p3
I5
sS'toportreagent'
p4
S'Output 1'
p5
sS'volume'
p6
I3900
sS'toport'
p7
I8
sS'cmdnumber'
p8
I0
sS'speed'
p9
I21
sS'cycle'
p10
I0
sS'waitmins'
p11
I0
sS'temp'
p12
I25
sS'heatwhen'
p13
I0
sS'fromport'
p14
I5
sS'pump'
p15
S'/dev/ttyUSB1'
p16
sS'fromportreagent'
p17
S'1x instrument - cleave'
p18
sS'waste'
p19
I0
sS'type'
p20
I0
sa(dp21
g3
I5
sg4
S'Waste 2'
p22
sg6
I1000
sg7
I9
sg8
I1
sg9
I30
sg10
I0
sg11
I0
sg12
I25
sg13
I0
sg14
I8
sg15
S'/dev/ttyUSB0'
p23
sg17
S'Output 2'
p24
sg19
I0
sg20
I0
sa(dp25
g3
I5
sg4
S'Waste 2'
p26
sg6
I1000
sg7
I9
sg8
I2
sg9
I30
sg10
I0
sg11
I0
sg12
I25
sg13
I0
sg14
I8
sg15
g23
sg17
S'Output 2'
p27
sg19
I0
sg20
I0
sa(dp28
g3
I5
sg4
S'Waste 2'
p29
sg6
I1000
sg7
I9
sg8
I3
sg9
I30
sg10
I0
sg11
I0
sg12
I25
sg13
I0
sg14
I8
sg15
g23
sg17
S'Output 2'
p30
sg19
I0
sg20
I0
sa(dp31
g3
I5
sg4
S'Waste 2'
p32
sg6
I1000
sg7
I9
sg8
I4
sg9
I30
sg10
I0
sg11
I0
sg12
I25
sg13
I0
sg14
I8
sg15
g23
sg17
S'Output 2'
p33
sg19
I0
sg20
I0
sa(dp34
g3
I5
sg4
S'Output 2'
p35
sg6
I230
sg7
I8
sg8
I5
sg9
I16
sg10
I0
sg11
I0
sg12
I25
sg13
I0
sg14
I2
sg15
g23
sg17
S'T4 ligase mix'
p36
sg19
I0
sg20
I0
sa(dp37
g3
I5
sg4
S'Waste 2'
p38
sg6
I1000
sg7
I9
sg8
I6
sg9
I8
sg10
I0
sg11
I0
sg12
I25
sg13
I0
sg14
I3
sg15
g23
sg17
S'1x instrument - ligase'
p39
sg19
I0
sg20
I0
sa(dp40
g3
I5
sg4
S'Waste 2'
p41
sg6
I1000
sg7
I9
sg8
I7
sg9
I8
sg10
I0
sg11
I0
sg12
I25
sg13
I0
sg14
I3
sg15
g23
sg17
S'1x instrument - ligase'
p42
sg19
I0
sg20
I0
sa(dp43
g3
I5
sg4
S'Waste 2'
p44
sg6
I1000
sg7
I9
sg8
I8
sg9
I8
sg10
I0
sg11
I0
sg12
I25
sg13
I0
sg14
I3
sg15
g23
sg17
S'1x instrument - ligase'
p45
sg19
I0
sg20
I0
sa(dp46
g3
I5
sg4
S'Waste 2'
p47
sg6
I1000
sg7
I9
sg8
I9
sg9
I8
sg10
I0
sg11
I45
sg12
I25
sg13
I0
sg14
I3
sg15
g23
sg17
S'1x instrument - ligase'
p48
sg19
I0
sg20
I0
sa(dp49
g3
I5
sg4
S'Waste 2'
p50
sg6
I300
sg7
I9
sg8
I10
sg9
I30
sg10
I0
sg11
I0
sg12
I25
sg13
I0
sg14
I8
sg15
g23
sg17
S'Output 2'
p51
sg19
I0
sg20
I0
sa(dp52
g3
I5
sg4
S'Waste 2'
p53
sg6
I1000
sg7
I9
sg8
I11
sg9
I8
sg10
I0
sg11
I0
sg12
I25
sg13
I0
sg14
I3
sg15
g23
sg17
S'1x instrument - ligase'
p54
sg19
I0
sg20
I0
sa(dp55
g3
I5
sg4
S'Waste 2'
p56
sg6
I1000
sg7
I9
sg8
I12
sg9
I8
sg10
I0
sg11
I0
sg12
I25
sg13
I0
sg14
I3
sg15
g23
sg17
S'1x instrument - ligase'
p57
sg19
I0
sg20
I0
sa(dp58
g3
I5
sg4
S'Waste 2'
p59
sg6
I1000
sg7
I9
sg8
I13
sg9
I8
sg10
I0
sg11
I0
sg12
I25
sg13
I0
sg14
I3
sg15
g23
sg17
S'1x instrument - ligase'
p60
sg19
I0
sg20
I0
sa(dp61
g3
I5
sg4
S'Waste 2'
p62
sg6
I1000
sg7
I9
sg8
I14
sg9
I8
sg10
I0
sg11
I0
sg12
I25
sg13
I0
sg14
I3
sg15
g23
sg17
S'1x instrument - ligase'
p63
sg19
I0
sg20
I0
sa(dp64
g3
I5
sg4
S'Output 1'
p65
sg6
I3900
sg7
I8
sg8
I15
sg9
I21
sg10
I0
sg11
I2
sg12
I25
sg13
I0
sg14
I5
sg15
g16
sg17
S'1x instrument - cleave'
p66
sg19
I0
sg20
I0
sa(dp67
g3
I5
sg4
S'Waste 2'
p68
sg6
I1000
sg7
I9
sg8
I16
sg9
I30
sg10
I0
sg11
I0
sg12
I25
sg13
I0
sg14
I8
sg15
g23
sg17
S'Output 2'
p69
sg19
I0
sg20
I0
sa(dp70
g3
I5
sg4
S'Waste 2'
p71
sg6
I1000
sg7
I9
sg8
I17
sg9
I30
sg10
I0
sg11
I0
sg12
I25
sg13
I0
sg14
I8
sg15
g23
sg17
S'Output 2'
p72
sg19
I0
sg20
I0
sa(dp73
g3
I5
sg4
S'Waste 2'
p74
sg6
I1000
sg7
I9
sg8
I18
sg9
I30
sg10
I0
sg11
I0
sg12
I25
sg13
I0
sg14
I8
sg15
g23
sg17
S'Output 2'
p75
sg19
I0
sg20
I0
sa(dp76
g3
I5
sg4
S'Waste 2'
p77
sg6
I1000
sg7
I9
sg8
I19
sg9
I30
sg10
I0
sg11
I0
sg12
I25
sg13
I0
sg14
I8
sg15
g23
sg17
S'Output 2'
p78
sg19
I0
sg20
I0
sa(dp79
g3
I5
sg4
S'Output 1'
p80
sg6
I3900
sg7
I8
sg8
I20
sg9
I21
sg10
I0
sg11
I2
sg12
I25
sg13
I0
sg14
I5
sg15
g16
sg17
S'1x instrument - cleave'
p81
sg19
I0
sg20
I0
sa(dp82
g3
I5
sg4
S'Waste 2'
p83
sg6
I1000
sg7
I9
sg8
I21
sg9
I30
sg10
I0
sg11
I0
sg12
I25
sg13
I0
sg14
I8
sg15
g23
sg17
S'Output 2'
p84
sg19
I0
sg20
I0
sa(dp85
g3
I5
sg4
S'Waste 2'
p86
sg6
I1000
sg7
I9
sg8
I22
sg9
I30
sg10
I0
sg11
I0
sg12
I25
sg13
I0
sg14
I8
sg15
g23
sg17
S'Output 2'
p87
sg19
I0
sg20
I0
sa(dp88
g3
I5
sg4
S'Waste 2'
p89
sg6
I1000
sg7
I9
sg8
I23
sg9
I30
sg10
I0
sg11
I0
sg12
I25
sg13
I0
sg14
I8
sg15
g23
sg17
S'Output 2'
p90
sg19
I0
sg20
I0
sa(dp91
g3
I5
sg4
S'Waste 2'
p92
sg6
I1000
sg7
I9
sg8
I24
sg9
I30
sg10
I0
sg11
I0
sg12
I25
sg13
I0
sg14
I8
sg15
g23
sg17
S'Output 2'
p93
sg19
I0
sg20
I0
sa(dp94
g3
I5
sg4
S'Output 1'
p95
sg6
I3900
sg7
I8
sg8
I25
sg9
I21
sg10
I0
sg11
I2
sg12
I25
sg13
I0
sg14
I5
sg15
g16
sg17
S'1x instrument - cleave'
p96
sg19
I0
sg20
I0
sa(dp97
g3
I5
sg4
S'Waste 2'
p98
sg6
I1000
sg7
I9
sg8
I26
sg9
I30
sg10
I0
sg11
I0
sg12
I25
sg13
I0
sg14
I8
sg15
g23
sg17
S'Output 2'
p99
sg19
I0
sg20
I0
sa(dp100
g3
I5
sg4
S'Waste 2'
p101
sg6
I1000
sg7
I9
sg8
I27
sg9
I30
sg10
I0
sg11
I0
sg12
I25
sg13
I0
sg14
I8
sg15
g23
sg17
S'Output 2'
p102
sg19
I0
sg20
I0
sa(dp103
g3
I5
sg4
S'Waste 2'
p104
sg6
I1000
sg7
I9
sg8
I28
sg9
I30
sg10
I0
sg11
I0
sg12
I25
sg13
I0
sg14
I8
sg15
g23
sg17
S'Output 2'
p105
sg19
I0
sg20
I0
sa(dp106
g3
I5
sg4
S'Waste 2'
p107
sg6
I1000
sg7
I9
sg8
I29
sg9
I30
sg10
I0
sg11
I0
sg12
I25
sg13
I0
sg14
I8
sg15
g23
sg17
S'Output 2'
p108
sg19
I0
sg20
I0
sa(dp109
g3
I5
sg4
S'Output 1'
p110
sg6
I3900
sg7
I8
sg8
I30
sg9
I21
sg10
I0
sg11
I2
sg12
I25
sg13
I0
sg14
I5
sg15
g16
sg17
S'1x instrument - cleave'
p111
sg19
I0
sg20
I0
sa(dp112
g3
I5
sg4
S'Waste 2'
p113
sg6
I1000
sg7
I9
sg8
I31
sg9
I30
sg10
I0
sg11
I0
sg12
I25
sg13
I0
sg14
I8
sg15
g23
sg17
S'Output 2'
p114
sg19
I0
sg20
I0
sa(dp115
g3
I5
sg4
S'Waste 2'
p116
sg6
I1000
sg7
I9
sg8
I32
sg9
I30
sg10
I0
sg11
I0
sg12
I25
sg13
I0
sg14
I8
sg15
g23
sg17
S'Output 2'
p117
sg19
I0
sg20
I0
sa(dp118
g3
I5
sg4
S'Waste 2'
p119
sg6
I1000
sg7
I9
sg8
I33
sg9
I30
sg10
I0
sg11
I0
sg12
I25
sg13
I0
sg14
I8
sg15
g23
sg17
S'Output 2'
p120
sg19
I0
sg20
I0
sa(dp121
g3
I5
sg4
S'Waste 2'
p122
sg6
I1000
sg7
I9
sg8
I34
sg9
I30
sg10
I0
sg11
I0
sg12
I25
sg13
I0
sg14
I8
sg15
g23
sg17
S'Output 2'
p123
sg19
I0
sg20
I0
sa(dp124
g3
I5
sg4
S'Output 2'
p125
sg6
I220
sg7
I8
sg8
I35
sg9
I16
sg10
I0
sg11
I0
sg12
I25
sg13
I0
sg14
I5
sg15
g23
sg17
S'Imaging buffer'
p126
sg19
I0
sg20
I0
sa(dp127
g3
I5
sg4
S'Waste 2'
p128
sg6
I1000
sg7
I9
sg8
I36
sg9
I30
sg10
I1
sg11
I0
sg12
I25
sg13
I0
sg14
I8
sg15
g23
sg17
S'Output 2'
p129
sg19
I0
sg20
I0
sa(dp130
g3
I5
sg4
S'Cleave solution 1'
p131
sg6
I700
sg7
I1
sg8
I37
sg9
I21
sg10
I1
sg11
I0
sg12
I25
sg13
I0
sg14
I1
sg15
g16
sg17
S'Cleave solution 1'
p132
sg19
I0
sg20
I0
sa(dp133
g3
I5
sg4
S'Output 1'
p134
sg6
I300
sg7
I8
sg8
I38
sg9
I20
sg10
I1
sg11
I0
sg12
I25
sg13
I0
sg14
I1
sg15
g16
sg17
S'Cleave solution 1'
p135
sg19
I0
sg20
I0
sa(dp136
g3
I5
sg4
S'Output 1'
p137
sg6
I35
sg7
I8
sg8
I39
sg9
I25
sg10
I1
sg11
I5
sg12
I25
sg13
I0
sg14
I7
sg15
g16
sg17
S'Air 1'
p138
sg19
I0
sg20
I0
sa(dp139
g3
I5
sg4
S'Waste 2'
p140
sg6
I400
sg7
I9
sg8
I40
sg9
I30
sg10
I1
sg11
I0
sg12
I25
sg13
I0
sg14
I8
sg15
g23
sg17
S'Output 2'
p141
sg19
I0
sg20
I0
sa(dp142
g3
I5
sg4
S'Output 1'
p143
sg6
I300
sg7
I8
sg8
I41
sg9
I20
sg10
I1
sg11
I0
sg12
I25
sg13
I0
sg14
I1
sg15
g16
sg17
S'Cleave solution 1'
p144
sg19
I0
sg20
I0
sa(dp145
g3
I5
sg4
S'Output 1'
p146
sg6
I35
sg7
I8
sg8
I42
sg9
I25
sg10
I1
sg11
I5
sg12
I25
sg13
I0
sg14
I7
sg15
g16
sg17
S'Air 1'
p147
sg19
I0
sg20
I0
sa(dp148
g3
I5
sg4
S'Waste 2'
p149
sg6
I400
sg7
I9
sg8
I43
sg9
I30
sg10
I1
sg11
I0
sg12
I25
sg13
I0
sg14
I8
sg15
g23
sg17
S'Output 2'
p150
sg19
I0
sg20
I0
sa(dp151
g3
I5
sg4
S'Waste 1'
p152
sg6
I4000
sg7
I9
sg8
I44
sg9
I8
sg10
I1
sg11
I0
sg12
I25
sg13
I0
sg14
I6
sg15
g16
sg17
S'dH2O - cleave'
p153
sg19
I0
sg20
I0
sa(dp154
g3
I5
sg4
S'Waste 1'
p155
sg6
I4000
sg7
I9
sg8
I45
sg9
I8
sg10
I1
sg11
I0
sg12
I25
sg13
I0
sg14
I6
sg15
g16
sg17
S'dH2O - cleave'
p156
sg19
I0
sg20
I0
sa(dp157
g3
I5
sg4
S'Waste 1'
p158
sg6
I4000
sg7
I9
sg8
I46
sg9
I8
sg10
I1
sg11
I0
sg12
I25
sg13
I0
sg14
I5
sg15
g16
sg17
S'1x instrument - cleave'
p159
sg19
I0
sg20
I0
sa(dp160
g3
I5
sg4
S'Waste 1'
p161
sg6
I4000
sg7
I9
sg8
I47
sg9
I8
sg10
I1
sg11
I0
sg12
I25
sg13
I0
sg14
I5
sg15
g16
sg17
S'1x instrument - cleave'
p162
sg19
I0
sg20
I0
sa(dp163
g3
I5
sg4
S'Output 1'
p164
sg6
I900
sg7
I8
sg8
I48
sg9
I20
sg10
I1
sg11
I0
sg12
I25
sg13
I0
sg14
I5
sg15
g16
sg17
S'1x instrument - cleave'
p165
sg19
I0
sg20
I0
sa(dp166
g3
I5
sg4
S'Cleave solution 1'
p167
sg6
I700
sg7
I1
sg8
I49
sg9
I21
sg10
I1
sg11
I0
sg12
I25
sg13
I0
sg14
I7
sg15
g16
sg17
S'Air 1'
p168
sg19
I0
sg20
I0
sa(dp169
g3
I5
sg4
S'Cleave 2 part 1'
p170
sg6
I700
sg7
I2
sg8
I50
sg9
I21
sg10
I1
sg11
I0
sg12
I25
sg13
I0
sg14
I2
sg15
g16
sg17
S'Cleave 2 part 1'
p171
sg19
I0
sg20
I0
sa(dp172
g3
I5
sg4
S'Cleave solution 2.1'
p173
sg6
I270
sg7
I4
sg8
I51
sg9
I20
sg10
I1
sg11
I0
sg12
I25
sg13
I0
sg14
I2
sg15
g16
sg17
S'Cleave 2 part 1'
p174
sg19
I0
sg20
I0
sa(dp175
g3
I5
sg4
S'Cleave solution 2.1'
p176
sg6
I700
sg7
I4
sg8
I52
sg9
I21
sg10
I1
sg11
I0
sg12
I25
sg13
I0
sg14
I7
sg15
g16
sg17
S'Air 1'
p177
sg19
I0
sg20
I0
sa(dp178
g3
I5
sg4
S'Cleave 2 part 1'
p179
sg6
I700
sg7
I2
sg8
I53
sg9
I21
sg10
I1
sg11
I0
sg12
I25
sg13
I0
sg14
I7
sg15
g16
sg17
S'Air 1'
p180
sg19
I0
sg20
I0
sa(dp181
g3
I5
sg4
S'Waste 1'
p182
sg6
I4000
sg7
I9
sg8
I54
sg9
I8
sg10
I1
sg11
I0
sg12
I25
sg13
I0
sg14
I6
sg15
g16
sg17
S'dH2O - cleave'
p183
sg19
I0
sg20
I0
sa(dp184
g3
I5
sg4
S'Waste 1'
p185
sg6
I4000
sg7
I9
sg8
I55
sg9
I8
sg10
I1
sg11
I0
sg12
I25
sg13
I0
sg14
I6
sg15
g16
sg17
S'dH2O - cleave'
p186
sg19
I0
sg20
I0
sa(dp187
g3
I5
sg4
S'Waste 1'
p188
sg6
I4000
sg7
I9
sg8
I56
sg9
I8
sg10
I1
sg11
I0
sg12
I25
sg13
I0
sg14
I5
sg15
g16
sg17
S'1x instrument - cleave'
p189
sg19
I0
sg20
I0
sa(dp190
g3
I5
sg4
S'Waste 1'
p191
sg6
I4000
sg7
I9
sg8
I57
sg9
I8
sg10
I1
sg11
I0
sg12
I25
sg13
I0
sg14
I5
sg15
g16
sg17
S'1x instrument - cleave'
p192
sg19
I0
sg20
I0
sa(dp193
g3
I5
sg4
S'Cleave 2 part 2'
p194
sg6
I700
sg7
I3
sg8
I58
sg9
I21
sg10
I1
sg11
I0
sg12
I25
sg13
I0
sg14
I3
sg15
g16
sg17
S'Cleave 2 part 2'
p195
sg19
I0
sg20
I0
sa(dp196
g3
I5
sg4
S'Cleave solution 2.1'
p197
sg6
I750
sg7
I4
sg8
I59
sg9
I20
sg10
I1
sg11
I0
sg12
I25
sg13
I0
sg14
I3
sg15
g16
sg17
S'Cleave 2 part 2'
p198
sg19
I0
sg20
I0
sa(dp199
g3
I5
sg4
S'Cleave solution 2.1'
p200
sg6
I700
sg7
I4
sg8
I60
sg9
I21
sg10
I1
sg11
I0
sg12
I25
sg13
I0
sg14
I7
sg15
g16
sg17
S'Air 1'
p201
sg19
I0
sg20
I0
sa(dp202
g3
I5
sg4
S'Cleave 2 part 2'
p203
sg6
I700
sg7
I3
sg8
I61
sg9
I21
sg10
I1
sg11
I0
sg12
I25
sg13
I0
sg14
I7
sg15
g16
sg17
S'Air 1'
p204
sg19
I0
sg20
I0
sa(dp205
g3
I5
sg4
S'Cleave solution 2.1'
p206
sg6
I4500
sg7
I4
sg8
I62
sg9
I8
sg10
I1
sg11
I0
sg12
I25
sg13
I0
sg14
I7
sg15
g16
sg17
S'Air 1'
p207
sg19
I0
sg20
I0
sa(dp208
g3
I5
sg4
S'Waste 2'
p209
sg6
I1000
sg7
I9
sg8
I63
sg9
I30
sg10
I1
sg11
I0
sg12
I25
sg13
I0
sg14
I8
sg15
g23
sg17
S'Output 2'
p210
sg19
I0
sg20
I0
sa(dp211
g3
I5
sg4
S'Cleave solution 2.1'
p212
sg6
I700
sg7
I4
sg8
I64
sg9
I21
sg10
I1
sg11
I0
sg12
I25
sg13
I0
sg14
I4
sg15
g16
sg17
S'Cleave solution 2.1'
p213
sg19
I0
sg20
I0
sa(dp214
g3
I5
sg4
S'Output 1'
p215
sg6
I300
sg7
I8
sg8
I65
sg9
I20
sg10
I1
sg11
I0
sg12
I25
sg13
I0
sg14
I4
sg15
g16
sg17
S'Cleave solution 2.1'
p216
sg19
I0
sg20
I0
sa(dp217
g3
I5
sg4
S'Output 1'
p218
sg6
I35
sg7
I8
sg8
I66
sg9
I25
sg10
I1
sg11
I0
sg12
I25
sg13
I0
sg14
I7
sg15
g16
sg17
S'Air 1'
p219
sg19
I0
sg20
I0
sa(dp220
g3
I5
sg4
S'Cleave solution 2.1'
p221
sg6
I700
sg7
I4
sg8
I67
sg9
I21
sg10
I1
sg11
I5
sg12
I25
sg13
I0
sg14
I7
sg15
g16
sg17
S'Air 1'
p222
sg19
I0
sg20
I0
sa(dp223
g3
I5
sg4
S'Waste 2'
p224
sg6
I400
sg7
I9
sg8
I68
sg9
I30
sg10
I1
sg11
I0
sg12
I25
sg13
I0
sg14
I8
sg15
g23
sg17
S'Output 2'
p225
sg19
I0
sg20
I0
sa(dp226
g3
I5
sg4
S'Cleave solution 2.1'
p227
sg6
I700
sg7
I4
sg8
I69
sg9
I21
sg10
I1
sg11
I0
sg12
I25
sg13
I0
sg14
I4
sg15
g16
sg17
S'Cleave solution 2.1'
p228
sg19
I0
sg20
I0
sa(dp229
g3
I5
sg4
S'Output 1'
p230
sg6
I300
sg7
I8
sg8
I70
sg9
I20
sg10
I1
sg11
I0
sg12
I25
sg13
I0
sg14
I4
sg15
g16
sg17
S'Cleave solution 2.1'
p231
sg19
I0
sg20
I0
sa(dp232
g3
I5
sg4
S'Output 1'
p233
sg6
I35
sg7
I8
sg8
I71
sg9
I25
sg10
I1
sg11
I0
sg12
I25
sg13
I0
sg14
I7
sg15
g16
sg17
S'Air 1'
p234
sg19
I0
sg20
I0
sa(dp235
g3
I5
sg4
S'Cleave solution 2.1'
p236
sg6
I700
sg7
I4
sg8
I72
sg9
I21
sg10
I1
sg11
I5
sg12
I25
sg13
I0
sg14
I7
sg15
g16
sg17
S'Air 1'
p237
sg19
I0
sg20
I0
sa(dp238
g3
I5
sg4
S'Waste 2'
p239
sg6
I400
sg7
I9
sg8
I73
sg9
I30
sg10
I1
sg11
I0
sg12
I25
sg13
I0
sg14
I8
sg15
g23
sg17
S'Output 2'
p240
sg19
I0
sg20
I0
sa(dp241
g3
I5
sg4
S'Waste 1'
p242
sg6
I2000
sg7
I9
sg8
I74
sg9
I16
sg10
I1
sg11
I0
sg12
I25
sg13
I0
sg14
I4
sg15
g16
sg17
S'Cleave solution 2.1'
p243
sg19
I0
sg20
I0
sa(dp244
g3
I5
sg4
S'Waste 1'
p245
sg6
I4000
sg7
I9
sg8
I75
sg9
I8
sg10
I1
sg11
I0
sg12
I25
sg13
I0
sg14
I6
sg15
g16
sg17
S'dH2O - cleave'
p246
sg19
I0
sg20
I0
sa(dp247
g3
I5
sg4
S'Waste 1'
p248
sg6
I4000
sg7
I9
sg8
I76
sg9
I8
sg10
I1
sg11
I0
sg12
I25
sg13
I0
sg14
I6
sg15
g16
sg17
S'dH2O - cleave'
p249
sg19
I0
sg20
I0
sa(dp250
g3
I5
sg4
S'Waste 1'
p251
sg6
I4000
sg7
I9
sg8
I77
sg9
I8
sg10
I1
sg11
I0
sg12
I25
sg13
I0
sg14
I5
sg15
g16
sg17
S'1x instrument - cleave'
p252
sg19
I0
sg20
I0
sa(dp253
g3
I5
sg4
S'Waste 1'
p254
sg6
I4000
sg7
I9
sg8
I78
sg9
I8
sg10
I1
sg11
I0
sg12
I25
sg13
I0
sg14
I5
sg15
g16
sg17
S'1x instrument - cleave'
p255
sg19
I0
sg20
I0
sa(dp256
g3
I5
sg4
S'Output 1'
p257
sg6
I900
sg7
I8
sg8
I79
sg9
I20
sg10
I1
sg11
I5
sg12
I25
sg13
I0
sg14
I5
sg15
g16
sg17
S'1x instrument - cleave'
p258
sg19
I0
sg20
I0
sa(dp259
g3
I5
sg4
S'Waste 2'
p260
sg6
I1000
sg7
I9
sg8
I80
sg9
I30
sg10
I1
sg11
I0
sg12
I25
sg13
I0
sg14
I8
sg15
g23
sg17
S'Output 2'
p261
sg19
I0
sg20
I0
sa(dp262
g3
I5
sg4
S'Output 1'
p263
sg6
I900
sg7
I8
sg8
I81
sg9
I20
sg10
I1
sg11
I5
sg12
I25
sg13
I0
sg14
I5
sg15
g16
sg17
S'1x instrument - cleave'
p264
sg19
I0
sg20
I0
sa(dp265
g3
I5
sg4
S'Waste 2'
p266
sg6
I1000
sg7
I9
sg8
I82
sg9
I30
sg10
I1
sg11
I0
sg12
I25
sg13
I0
sg14
I8
sg15
g23
sg17
S'Output 2'
p267
sg19
I0
sg20
I0
sa(dp268
g3
I5
sg4
S'Output 1'
p269
sg6
I900
sg7
I8
sg8
I83
sg9
I20
sg10
I1
sg11
I5
sg12
I25
sg13
I0
sg14
I5
sg15
g16
sg17
S'1x instrument - cleave'
p270
sg19
I0
sg20
I0
sa(dp271
g3
I5
sg4
S'Waste 2'
p272
sg6
I1000
sg7
I9
sg8
I84
sg9
I30
sg10
I1
sg11
I0
sg12
I25
sg13
I0
sg14
I8
sg15
g23
sg17
S'Output 2'
p273
sg19
I0
sg20
I0
sa(dp274
g3
I5
sg4
S'Waste 2'
p275
sg6
I1000
sg7
I9
sg8
I85
sg9
I8
sg10
I1
sg11
I0
sg12
I25
sg13
I0
sg14
I4
sg15
g23
sg17
S'dH2O - ligase'
p276
sg19
I0
sg20
I0
sa(dp277
g3
I5
sg4
S'Waste 2'
p278
sg6
I1000
sg7
I9
sg8
I86
sg9
I8
sg10
I1
sg11
I0
sg12
I25
sg13
I0
sg14
I4
sg15
g23
sg17
S'dH2O - ligase'
p279
sg19
I0
sg20
I0
sa(dp280
g3
I5
sg4
S'Waste 2'
p281
sg6
I1000
sg7
I9
sg8
I87
sg9
I8
sg10
I1
sg11
I0
sg12
I25
sg13
I0
sg14
I4
sg15
g23
sg17
S'dH2O - ligase'
p282
sg19
I0
sg20
I0
sa(dp283
g3
I5
sg4
S'Waste 2'
p284
sg6
I1000
sg7
I9
sg8
I88
sg9
I8
sg10
I1
sg11
I0
sg12
I25
sg13
I0
sg14
I4
sg15
g23
sg17
S'dH2O - ligase'
p285
sg19
I0
sg20
I0
sa(dp286
g3
I5
sg4
S'Waste 2'
p287
sg6
I1000
sg7
I9
sg8
I89
sg9
I8
sg10
I1
sg11
I0
sg12
I25
sg13
I0
sg14
I3
sg15
g23
sg17
S'1x instrument - ligase'
p288
sg19
I0
sg20
I0
sa(dp289
g3
I5
sg4
S'Waste 2'
p290
sg6
I1000
sg7
I9
sg8
I90
sg9
I8
sg10
I1
sg11
I0
sg12
I25
sg13
I0
sg14
I3
sg15
g23
sg17
S'1x instrument - ligase'
p291
sg19
I0
sg20
I0
sa(dp292
g3
I5
sg4
S'Waste 2'
p293
sg6
I1000
sg7
I9
sg8
I91
sg9
I8
sg10
I1
sg11
I0
sg12
I25
sg13
I0
sg14
I3
sg15
g23
sg17
S'1x instrument - ligase'
p294
sg19
I0
sg20
I0
sa(dp295
g3
I5
sg4
S'Waste 2'
p296
sg6
I1000
sg7
I9
sg8
I92
sg9
I8
sg10
I1
sg11
I0
sg12
I25
sg13
I0
sg14
I3
sg15
g23
sg17
S'1x instrument - ligase'
p297
sg19
I0
sg20
I0
sa(dp298
g3
I5
sg4
S'Waste 2'
p299
sg6
I1000
sg7
I9
sg8
I93
sg9
I8
sg10
I1
sg11
I0
sg12
I25
sg13
I0
sg14
I3
sg15
g23
sg17
S'1x instrument - ligase'
p300
sg19
I0
sg20
I0
sa(dp301
g3
I5
sg4
S'Output 1'
p302
sg6
I900
sg7
I8
sg8
I94
sg9
I20
sg10
I1
sg11
I0
sg12
I25
sg13
I0
sg14
I5
sg15
g16
sg17
S'1x instrument - cleave'
p303
sg19
I0
sg20
I0
sa(dp304
g3
I5
sg4
S'Output 1'
p305
sg6
I3000
sg7
I8
sg8
I95
sg9
I21
sg10
I2
sg11
I0
sg12
I25
sg13
I0
sg14
I5
sg15
g16
sg17
S'1x instrument - cleave'
p306
sg19
I0
sg20
I0
sa(dp307
g3
I5
sg4
S'Waste 2'
p308
sg6
I1000
sg7
I9
sg8
I96
sg9
I30
sg10
I2
sg11
I0
sg12
I25
sg13
I0
sg14
I8
sg15
g23
sg17
S'Output 2'
p309
sg19
I0
sg20
I0
sa(dp310
g3
I5
sg4
S'Waste 2'
p311
sg6
I1000
sg7
I9
sg8
I97
sg9
I30
sg10
I2
sg11
I0
sg12
I25
sg13
I0
sg14
I8
sg15
g23
sg17
S'Output 2'
p312
sg19
I0
sg20
I0
sa(dp313
g3
I5
sg4
S'Waste 2'
p314
sg6
I1000
sg7
I9
sg8
I98
sg9
I30
sg10
I2
sg11
I0
sg12
I25
sg13
I0
sg14
I8
sg15
g23
sg17
S'Output 2'
p315
sg19
I0
sg20
I0
sa(dp316
g3
I5
sg4
S'Waste 2'
p317
sg6
I1000
sg7
I9
sg8
I99
sg9
I30
sg10
I2
sg11
I0
sg12
I25
sg13
I0
sg14
I8
sg15
g23
sg17
S'Output 2'
p318
sg19
I0
sg20
I0
sa(dp319
g3
I5
sg4
S'Output 2'
p320
sg6
I230
sg7
I8
sg8
I100
sg9
I16
sg10
I2
sg11
I0
sg12
I25
sg13
I0
sg14
I2
sg15
g23
sg17
S'T4 ligase mix'
p321
sg19
I0
sg20
I0
sa(dp322
g3
I5
sg4
S'Waste 2'
p323
sg6
I1000
sg7
I9
sg8
I101
sg9
I8
sg10
I2
sg11
I0
sg12
I25
sg13
I0
sg14
I3
sg15
g23
sg17
S'1x instrument - ligase'
p324
sg19
I0
sg20
I0
sa(dp325
g3
I5
sg4
S'Waste 2'
p326
sg6
I1000
sg7
I9
sg8
I102
sg9
I8
sg10
I2
sg11
I0
sg12
I25
sg13
I0
sg14
I3
sg15
g23
sg17
S'1x instrument - ligase'
p327
sg19
I0
sg20
I0
sa(dp328
g3
I5
sg4
S'Waste 2'
p329
sg6
I1000
sg7
I9
sg8
I103
sg9
I8
sg10
I2
sg11
I0
sg12
I25
sg13
I0
sg14
I3
sg15
g23
sg17
S'1x instrument - ligase'
p330
sg19
I0
sg20
I0
sa(dp331
g3
I5
sg4
S'Waste 2'
p332
sg6
I1000
sg7
I9
sg8
I104
sg9
I8
sg10
I2
sg11
I45
sg12
I25
sg13
I0
sg14
I3
sg15
g23
sg17
S'1x instrument - ligase'
p333
sg19
I0
sg20
I0
sa(dp334
g3
I5
sg4
S'Waste 2'
p335
sg6
I300
sg7
I9
sg8
I105
sg9
I30
sg10
I2
sg11
I0
sg12
I25
sg13
I0
sg14
I8
sg15
g23
sg17
S'Output 2'
p336
sg19
I0
sg20
I0
sa(dp337
g3
I5
sg4
S'Waste 2'
p338
sg6
I1000
sg7
I9
sg8
I106
sg9
I8
sg10
I2
sg11
I0
sg12
I25
sg13
I0
sg14
I3
sg15
g23
sg17
S'1x instrument - ligase'
p339
sg19
I0
sg20
I0
sa(dp340
g3
I5
sg4
S'Waste 2'
p341
sg6
I1000
sg7
I9
sg8
I107
sg9
I8
sg10
I2
sg11
I0
sg12
I25
sg13
I0
sg14
I3
sg15
g23
sg17
S'1x instrument - ligase'
p342
sg19
I0
sg20
I0
sa(dp343
g3
I5
sg4
S'Waste 2'
p344
sg6
I1000
sg7
I9
sg8
I108
sg9
I8
sg10
I2
sg11
I0
sg12
I25
sg13
I0
sg14
I3
sg15
g23
sg17
S'1x instrument - ligase'
p345
sg19
I0
sg20
I0
sa(dp346
g3
I5
sg4
S'Waste 2'
p347
sg6
I1000
sg7
I9
sg8
I109
sg9
I8
sg10
I2
sg11
I0
sg12
I25
sg13
I0
sg14
I3
sg15
g23
sg17
S'1x instrument - ligase'
p348
sg19
I0
sg20
I0
sa(dp349
g3
I5
sg4
S'Output 1'
p350
sg6
I3900
sg7
I8
sg8
I110
sg9
I21
sg10
I2
sg11
I2
sg12
I25
sg13
I0
sg14
I5
sg15
g16
sg17
S'1x instrument - cleave'
p351
sg19
I0
sg20
I0
sa(dp352
g3
I5
sg4
S'Waste 2'
p353
sg6
I1000
sg7
I9
sg8
I111
sg9
I30
sg10
I2
sg11
I0
sg12
I25
sg13
I0
sg14
I8
sg15
g23
sg17
S'Output 2'
p354
sg19
I0
sg20
I0
sa(dp355
g3
I5
sg4
S'Waste 2'
p356
sg6
I1000
sg7
I9
sg8
I112
sg9
I30
sg10
I2
sg11
I0
sg12
I25
sg13
I0
sg14
I8
sg15
g23
sg17
S'Output 2'
p357
sg19
I0
sg20
I0
sa(dp358
g3
I5
sg4
S'Waste 2'
p359
sg6
I1000
sg7
I9
sg8
I113
sg9
I30
sg10
I2
sg11
I0
sg12
I25
sg13
I0
sg14
I8
sg15
g23
sg17
S'Output 2'
p360
sg19
I0
sg20
I0
sa(dp361
g3
I5
sg4
S'Waste 2'
p362
sg6
I1000
sg7
I9
sg8
I114
sg9
I30
sg10
I2
sg11
I0
sg12
I25
sg13
I0
sg14
I8
sg15
g23
sg17
S'Output 2'
p363
sg19
I0
sg20
I0
sa(dp364
g3
I5
sg4
S'Output 1'
p365
sg6
I3900
sg7
I8
sg8
I115
sg9
I21
sg10
I2
sg11
I2
sg12
I25
sg13
I0
sg14
I5
sg15
g16
sg17
S'1x instrument - cleave'
p366
sg19
I0
sg20
I0
sa(dp367
g3
I5
sg4
S'Waste 2'
p368
sg6
I1000
sg7
I9
sg8
I116
sg9
I30
sg10
I2
sg11
I0
sg12
I25
sg13
I0
sg14
I8
sg15
g23
sg17
S'Output 2'
p369
sg19
I0
sg20
I0
sa(dp370
g3
I5
sg4
S'Waste 2'
p371
sg6
I1000
sg7
I9
sg8
I117
sg9
I30
sg10
I2
sg11
I0
sg12
I25
sg13
I0
sg14
I8
sg15
g23
sg17
S'Output 2'
p372
sg19
I0
sg20
I0
sa(dp373
g3
I5
sg4
S'Waste 2'
p374
sg6
I1000
sg7
I9
sg8
I118
sg9
I30
sg10
I2
sg11
I0
sg12
I25
sg13
I0
sg14
I8
sg15
g23
sg17
S'Output 2'
p375
sg19
I0
sg20
I0
sa(dp376
g3
I5
sg4
S'Waste 2'
p377
sg6
I1000
sg7
I9
sg8
I119
sg9
I30
sg10
I2
sg11
I0
sg12
I25
sg13
I0
sg14
I8
sg15
g23
sg17
S'Output 2'
p378
sg19
I0
sg20
I0
sa(dp379
g3
I5
sg4
S'Output 1'
p380
sg6
I3900
sg7
I8
sg8
I120
sg9
I21
sg10
I2
sg11
I2
sg12
I25
sg13
I0
sg14
I5
sg15
g16
sg17
S'1x instrument - cleave'
p381
sg19
I0
sg20
I0
sa(dp382
g3
I5
sg4
S'Waste 2'
p383
sg6
I1000
sg7
I9
sg8
I121
sg9
I30
sg10
I2
sg11
I0
sg12
I25
sg13
I0
sg14
I8
sg15
g23
sg17
S'Output 2'
p384
sg19
I0
sg20
I0
sa(dp385
g3
I5
sg4
S'Waste 2'
p386
sg6
I1000
sg7
I9
sg8
I122
sg9
I30
sg10
I2
sg11
I0
sg12
I25
sg13
I0
sg14
I8
sg15
g23
sg17
S'Output 2'
p387
sg19
I0
sg20
I0
sa(dp388
g3
I5
sg4
S'Waste 2'
p389
sg6
I1000
sg7
I9
sg8
I123
sg9
I30
sg10
I2
sg11
I0
sg12
I25
sg13
I0
sg14
I8
sg15
g23
sg17
S'Output 2'
p390
sg19
I0
sg20
I0
sa(dp391
g3
I5
sg4
S'Waste 2'
p392
sg6
I1000
sg7
I9
sg8
I124
sg9
I30
sg10
I2
sg11
I0
sg12
I25
sg13
I0
sg14
I8
sg15
g23
sg17
S'Output 2'
p393
sg19
I0
sg20
I0
sa(dp394
g3
I5
sg4
S'Output 1'
p395
sg6
I3900
sg7
I8
sg8
I125
sg9
I21
sg10
I2
sg11
I2
sg12
I25
sg13
I0
sg14
I5
sg15
g16
sg17
S'1x instrument - cleave'
p396
sg19
I0
sg20
I0
sa(dp397
g3
I5
sg4
S'Waste 2'
p398
sg6
I1000
sg7
I9
sg8
I126
sg9
I30
sg10
I2
sg11
I0
sg12
I25
sg13
I0
sg14
I8
sg15
g23
sg17
S'Output 2'
p399
sg19
I0
sg20
I0
sa(dp400
g3
I5
sg4
S'Waste 2'
p401
sg6
I1000
sg7
I9
sg8
I127
sg9
I30
sg10
I2
sg11
I0
sg12
I25
sg13
I0
sg14
I8
sg15
g23
sg17
S'Output 2'
p402
sg19
I0
sg20
I0
sa(dp403
g3
I5
sg4
S'Waste 2'
p404
sg6
I1000
sg7
I9
sg8
I128
sg9
I30
sg10
I2
sg11
I0
sg12
I25
sg13
I0
sg14
I8
sg15
g23
sg17
S'Output 2'
p405
sg19
I0
sg20
I0
sa(dp406
g3
I5
sg4
S'Waste 2'
p407
sg6
I1000
sg7
I9
sg8
I129
sg9
I30
sg10
I2
sg11
I0
sg12
I25
sg13
I0
sg14
I8
sg15
g23
sg17
S'Output 2'
p408
sg19
I0
sg20
I0
sa(dp409
g3
I5
sg4
S'Output 1'
p410
sg6
I900
sg7
I8
sg8
I130
sg9
I21
sg10
I2
sg11
I0
sg12
I25
sg13
I0
sg14
I5
sg15
g16
sg17
S'1x instrument - cleave'
p411
sg19
I0
sg20
I0
sa(dp412
g3
I5
sg4
S'Waste 2'
p413
sg6
I1000
sg7
I9
sg8
I131
sg9
I30
sg10
I3
sg11
I0
sg12
I25
sg13
I0
sg14
I8
sg15
g23
sg17
S'Output 2'
p414
sg19
I0
sg20
I0
sa(dp415
g3
I5
sg4
S'Cleave solution 1'
p416
sg6
I700
sg7
I1
sg8
I132
sg9
I21
sg10
I3
sg11
I0
sg12
I25
sg13
I0
sg14
I1
sg15
g16
sg17
S'Cleave solution 1'
p417
sg19
I0
sg20
I0
sa(dp418
g3
I5
sg4
S'Output 1'
p419
sg6
I300
sg7
I8
sg8
I133
sg9
I20
sg10
I3
sg11
I0
sg12
I25
sg13
I0
sg14
I1
sg15
g16
sg17
S'Cleave solution 1'
p420
sg19
I0
sg20
I0
sa(dp421
g3
I5
sg4
S'Output 1'
p422
sg6
I35
sg7
I8
sg8
I134
sg9
I25
sg10
I3
sg11
I5
sg12
I25
sg13
I0
sg14
I7
sg15
g16
sg17
S'Air 1'
p423
sg19
I0
sg20
I0
sa(dp424
g3
I5
sg4
S'Waste 2'
p425
sg6
I400
sg7
I9
sg8
I135
sg9
I30
sg10
I3
sg11
I0
sg12
I25
sg13
I0
sg14
I8
sg15
g23
sg17
S'Output 2'
p426
sg19
I0
sg20
I0
sa(dp427
g3
I5
sg4
S'Output 1'
p428
sg6
I300
sg7
I8
sg8
I136
sg9
I20
sg10
I3
sg11
I0
sg12
I25
sg13
I0
sg14
I1
sg15
g16
sg17
S'Cleave solution 1'
p429
sg19
I0
sg20
I0
sa(dp430
g3
I5
sg4
S'Output 1'
p431
sg6
I35
sg7
I8
sg8
I137
sg9
I25
sg10
I3
sg11
I5
sg12
I25
sg13
I0
sg14
I7
sg15
g16
sg17
S'Air 1'
p432
sg19
I0
sg20
I0
sa(dp433
g3
I5
sg4
S'Waste 2'
p434
sg6
I400
sg7
I9
sg8
I138
sg9
I30
sg10
I3
sg11
I0
sg12
I25
sg13
I0
sg14
I8
sg15
g23
sg17
S'Output 2'
p435
sg19
I0
sg20
I0
sa(dp436
g3
I5
sg4
S'Waste 1'
p437
sg6
I4000
sg7
I9
sg8
I139
sg9
I8
sg10
I3
sg11
I0
sg12
I25
sg13
I0
sg14
I6
sg15
g16
sg17
S'dH2O - cleave'
p438
sg19
I0
sg20
I0
sa(dp439
g3
I5
sg4
S'Waste 1'
p440
sg6
I4000
sg7
I9
sg8
I140
sg9
I8
sg10
I3
sg11
I0
sg12
I25
sg13
I0
sg14
I6
sg15
g16
sg17
S'dH2O - cleave'
p441
sg19
I0
sg20
I0
sa(dp442
g3
I5
sg4
S'Waste 1'
p443
sg6
I4000
sg7
I9
sg8
I141
sg9
I8
sg10
I3
sg11
I0
sg12
I25
sg13
I0
sg14
I5
sg15
g16
sg17
S'1x instrument - cleave'
p444
sg19
I0
sg20
I0
sa(dp445
g3
I5
sg4
S'Waste 1'
p446
sg6
I4000
sg7
I9
sg8
I142
sg9
I8
sg10
I3
sg11
I0
sg12
I25
sg13
I0
sg14
I5
sg15
g16
sg17
S'1x instrument - cleave'
p447
sg19
I0
sg20
I0
sa(dp448
g3
I5
sg4
S'Output 1'
p449
sg6
I900
sg7
I8
sg8
I143
sg9
I20
sg10
I3
sg11
I0
sg12
I25
sg13
I0
sg14
I5
sg15
g16
sg17
S'1x instrument - cleave'
p450
sg19
I0
sg20
I0
sa(dp451
g3
I5
sg4
S'Cleave solution 1'
p452
sg6
I700
sg7
I1
sg8
I144
sg9
I21
sg10
I3
sg11
I0
sg12
I25
sg13
I0
sg14
I7
sg15
g16
sg17
S'Air 1'
p453
sg19
I0
sg20
I0
sa(dp454
g3
I5
sg4
S'Cleave 2 part 1'
p455
sg6
I700
sg7
I2
sg8
I145
sg9
I21
sg10
I3
sg11
I0
sg12
I25
sg13
I0
sg14
I2
sg15
g16
sg17
S'Cleave 2 part 1'
p456
sg19
I0
sg20
I0
sa(dp457
g3
I5
sg4
S'Cleave solution 2.1'
p458
sg6
I270
sg7
I4
sg8
I146
sg9
I20
sg10
I3
sg11
I0
sg12
I25
sg13
I0
sg14
I2
sg15
g16
sg17
S'Cleave 2 part 1'
p459
sg19
I0
sg20
I0
sa(dp460
g3
I5
sg4
S'Cleave solution 2.1'
p461
sg6
I700
sg7
I4
sg8
I147
sg9
I21
sg10
I3
sg11
I0
sg12
I25
sg13
I0
sg14
I7
sg15
g16
sg17
S'Air 1'
p462
sg19
I0
sg20
I0
sa(dp463
g3
I5
sg4
S'Cleave 2 part 1'
p464
sg6
I700
sg7
I2
sg8
I148
sg9
I21
sg10
I3
sg11
I0
sg12
I25
sg13
I0
sg14
I7
sg15
g16
sg17
S'Air 1'
p465
sg19
I0
sg20
I0
sa(dp466
g3
I5
sg4
S'Waste 1'
p467
sg6
I4000
sg7
I9
sg8
I149
sg9
I8
sg10
I3
sg11
I0
sg12
I25
sg13
I0
sg14
I6
sg15
g16
sg17
S'dH2O - cleave'
p468
sg19
I0
sg20
I0
sa(dp469
g3
I5
sg4
S'Waste 1'
p470
sg6
I4000
sg7
I9
sg8
I150
sg9
I8
sg10
I3
sg11
I0
sg12
I25
sg13
I0
sg14
I6
sg15
g16
sg17
S'dH2O - cleave'
p471
sg19
I0
sg20
I0
sa(dp472
g3
I5
sg4
S'Waste 1'
p473
sg6
I4000
sg7
I9
sg8
I151
sg9
I8
sg10
I3
sg11
I0
sg12
I25
sg13
I0
sg14
I5
sg15
g16
sg17
S'1x instrument - cleave'
p474
sg19
I0
sg20
I0
sa(dp475
g3
I5
sg4
S'Waste 1'
p476
sg6
I4000
sg7
I9
sg8
I152
sg9
I8
sg10
I3
sg11
I0
sg12
I25
sg13
I0
sg14
I5
sg15
g16
sg17
S'1x instrument - cleave'
p477
sg19
I0
sg20
I0
sa(dp478
g3
I5
sg4
S'Cleave 2 part 2'
p479
sg6
I700
sg7
I3
sg8
I153
sg9
I21
sg10
I3
sg11
I0
sg12
I25
sg13
I0
sg14
I3
sg15
g16
sg17
S'Cleave 2 part 2'
p480
sg19
I0
sg20
I0
sa(dp481
g3
I5
sg4
S'Cleave solution 2.1'
p482
sg6
I750
sg7
I4
sg8
I154
sg9
I20
sg10
I3
sg11
I0
sg12
I25
sg13
I0
sg14
I3
sg15
g16
sg17
S'Cleave 2 part 2'
p483
sg19
I0
sg20
I0
sa(dp484
g3
I5
sg4
S'Cleave solution 2.1'
p485
sg6
I700
sg7
I4
sg8
I155
sg9
I21
sg10
I3
sg11
I0
sg12
I25
sg13
I0
sg14
I7
sg15
g16
sg17
S'Air 1'
p486
sg19
I0
sg20
I0
sa(dp487
g3
I5
sg4
S'Cleave 2 part 2'
p488
sg6
I700
sg7
I3
sg8
I156
sg9
I21
sg10
I3
sg11
I0
sg12
I25
sg13
I0
sg14
I7
sg15
g16
sg17
S'Air 1'
p489
sg19
I0
sg20
I0
sa(dp490
g3
I5
sg4
S'Cleave solution 2.1'
p491
sg6
I4500
sg7
I4
sg8
I157
sg9
I8
sg10
I3
sg11
I0
sg12
I25
sg13
I0
sg14
I7
sg15
g16
sg17
S'Air 1'
p492
sg19
I0
sg20
I0
sa(dp493
g3
I5
sg4
S'Waste 2'
p494
sg6
I1000
sg7
I9
sg8
I158
sg9
I30
sg10
I3
sg11
I0
sg12
I25
sg13
I0
sg14
I8
sg15
g23
sg17
S'Output 2'
p495
sg19
I0
sg20
I0
sa(dp496
g3
I5
sg4
S'Cleave solution 2.1'
p497
sg6
I700
sg7
I4
sg8
I159
sg9
I21
sg10
I3
sg11
I0
sg12
I25
sg13
I0
sg14
I4
sg15
g16
sg17
S'Cleave solution 2.1'
p498
sg19
I0
sg20
I0
sa(dp499
g3
I5
sg4
S'Output 1'
p500
sg6
I300
sg7
I8
sg8
I160
sg9
I20
sg10
I3
sg11
I0
sg12
I25
sg13
I0
sg14
I4
sg15
g16
sg17
S'Cleave solution 2.1'
p501
sg19
I0
sg20
I0
sa(dp502
g3
I5
sg4
S'Output 1'
p503
sg6
I35
sg7
I8
sg8
I161
sg9
I25
sg10
I3
sg11
I0
sg12
I25
sg13
I0
sg14
I7
sg15
g16
sg17
S'Air 1'
p504
sg19
I0
sg20
I0
sa(dp505
g3
I5
sg4
S'Cleave solution 2.1'
p506
sg6
I700
sg7
I4
sg8
I162
sg9
I21
sg10
I3
sg11
I5
sg12
I25
sg13
I0
sg14
I7
sg15
g16
sg17
S'Air 1'
p507
sg19
I0
sg20
I0
sa(dp508
g3
I5
sg4
S'Waste 2'
p509
sg6
I400
sg7
I9
sg8
I163
sg9
I30
sg10
I3
sg11
I0
sg12
I25
sg13
I0
sg14
I8
sg15
g23
sg17
S'Output 2'
p510
sg19
I0
sg20
I0
sa(dp511
g3
I5
sg4
S'Cleave solution 2.1'
p512
sg6
I700
sg7
I4
sg8
I164
sg9
I21
sg10
I3
sg11
I0
sg12
I25
sg13
I0
sg14
I4
sg15
g16
sg17
S'Cleave solution 2.1'
p513
sg19
I0
sg20
I0
sa(dp514
g3
I5
sg4
S'Output 1'
p515
sg6
I300
sg7
I8
sg8
I165
sg9
I20
sg10
I3
sg11
I0
sg12
I25
sg13
I0
sg14
I4
sg15
g16
sg17
S'Cleave solution 2.1'
p516
sg19
I0
sg20
I0
sa(dp517
g3
I5
sg4
S'Output 1'
p518
sg6
I35
sg7
I8
sg8
I166
sg9
I25
sg10
I3
sg11
I0
sg12
I25
sg13
I0
sg14
I7
sg15
g16
sg17
S'Air 1'
p519
sg19
I0
sg20
I0
sa(dp520
g3
I5
sg4
S'Cleave solution 2.1'
p521
sg6
I700
sg7
I4
sg8
I167
sg9
I21
sg10
I3
sg11
I5
sg12
I25
sg13
I0
sg14
I7
sg15
g16
sg17
S'Air 1'
p522
sg19
I0
sg20
I0
sa(dp523
g3
I5
sg4
S'Waste 2'
p524
sg6
I400
sg7
I9
sg8
I168
sg9
I30
sg10
I3
sg11
I0
sg12
I25
sg13
I0
sg14
I8
sg15
g23
sg17
S'Output 2'
p525
sg19
I0
sg20
I0
sa(dp526
g3
I5
sg4
S'Waste 1'
p527
sg6
I2000
sg7
I9
sg8
I169
sg9
I16
sg10
I3
sg11
I0
sg12
I25
sg13
I0
sg14
I4
sg15
g16
sg17
S'Cleave solution 2.1'
p528
sg19
I0
sg20
I0
sa(dp529
g3
I5
sg4
S'Waste 1'
p530
sg6
I4000
sg7
I9
sg8
I170
sg9
I8
sg10
I3
sg11
I0
sg12
I25
sg13
I0
sg14
I6
sg15
g16
sg17
S'dH2O - cleave'
p531
sg19
I0
sg20
I0
sa(dp532
g3
I5
sg4
S'Waste 1'
p533
sg6
I4000
sg7
I9
sg8
I171
sg9
I8
sg10
I3
sg11
I0
sg12
I25
sg13
I0
sg14
I6
sg15
g16
sg17
S'dH2O - cleave'
p534
sg19
I0
sg20
I0
sa(dp535
g3
I5
sg4
S'Waste 1'
p536
sg6
I4000
sg7
I9
sg8
I172
sg9
I8
sg10
I3
sg11
I0
sg12
I25
sg13
I0
sg14
I5
sg15
g16
sg17
S'1x instrument - cleave'
p537
sg19
I0
sg20
I0
sa(dp538
g3
I5
sg4
S'Waste 1'
p539
sg6
I4000
sg7
I9
sg8
I173
sg9
I8
sg10
I3
sg11
I0
sg12
I25
sg13
I0
sg14
I5
sg15
g16
sg17
S'1x instrument - cleave'
p540
sg19
I0
sg20
I0
sa(dp541
g3
I5
sg4
S'Output 1'
p542
sg6
I900
sg7
I8
sg8
I174
sg9
I20
sg10
I3
sg11
I5
sg12
I25
sg13
I0
sg14
I5
sg15
g16
sg17
S'1x instrument - cleave'
p543
sg19
I0
sg20
I0
sa(dp544
g3
I5
sg4
S'Waste 2'
p545
sg6
I1000
sg7
I9
sg8
I175
sg9
I30
sg10
I3
sg11
I0
sg12
I25
sg13
I0
sg14
I8
sg15
g23
sg17
S'Output 2'
p546
sg19
I0
sg20
I0
sa(dp547
g3
I5
sg4
S'Output 1'
p548
sg6
I900
sg7
I8
sg8
I176
sg9
I20
sg10
I3
sg11
I5
sg12
I25
sg13
I0
sg14
I5
sg15
g16
sg17
S'1x instrument - cleave'
p549
sg19
I0
sg20
I0
sa(dp550
g3
I5
sg4
S'Waste 2'
p551
sg6
I1000
sg7
I9
sg8
I177
sg9
I30
sg10
I3
sg11
I0
sg12
I25
sg13
I0
sg14
I8
sg15
g23
sg17
S'Output 2'
p552
sg19
I0
sg20
I0
sa(dp553
g3
I5
sg4
S'Output 1'
p554
sg6
I900
sg7
I8
sg8
I178
sg9
I20
sg10
I3
sg11
I5
sg12
I25
sg13
I0
sg14
I5
sg15
g16
sg17
S'1x instrument - cleave'
p555
sg19
I0
sg20
I0
sa(dp556
g3
I5
sg4
S'Waste 2'
p557
sg6
I1000
sg7
I9
sg8
I179
sg9
I30
sg10
I3
sg11
I0
sg12
I25
sg13
I0
sg14
I8
sg15
g23
sg17
S'Output 2'
p558
sg19
I0
sg20
I0
sa(dp559
g3
I5
sg4
S'Waste 2'
p560
sg6
I1000
sg7
I9
sg8
I180
sg9
I8
sg10
I3
sg11
I0
sg12
I25
sg13
I0
sg14
I4
sg15
g23
sg17
S'dH2O - ligase'
p561
sg19
I0
sg20
I0
sa(dp562
g3
I5
sg4
S'Waste 2'
p563
sg6
I1000
sg7
I9
sg8
I181
sg9
I8
sg10
I3
sg11
I0
sg12
I25
sg13
I0
sg14
I4
sg15
g23
sg17
S'dH2O - ligase'
p564
sg19
I0
sg20
I0
sa(dp565
g3
I5
sg4
S'Waste 2'
p566
sg6
I1000
sg7
I9
sg8
I182
sg9
I8
sg10
I3
sg11
I0
sg12
I25
sg13
I0
sg14
I4
sg15
g23
sg17
S'dH2O - ligase'
p567
sg19
I0
sg20
I0
sa(dp568
g3
I5
sg4
S'Waste 2'
p569
sg6
I1000
sg7
I9
sg8
I183
sg9
I8
sg10
I3
sg11
I0
sg12
I25
sg13
I0
sg14
I4
sg15
g23
sg17
S'dH2O - ligase'
p570
sg19
I0
sg20
I0
sa(dp571
g3
I5
sg4
S'Waste 2'
p572
sg6
I1000
sg7
I9
sg8
I184
sg9
I8
sg10
I3
sg11
I0
sg12
I25
sg13
I0
sg14
I3
sg15
g23
sg17
S'1x instrument - ligase'
p573
sg19
I0
sg20
I0
sa(dp574
g3
I5
sg4
S'Waste 2'
p575
sg6
I1000
sg7
I9
sg8
I185
sg9
I8
sg10
I3
sg11
I0
sg12
I25
sg13
I0
sg14
I3
sg15
g23
sg17
S'1x instrument - ligase'
p576
sg19
I0
sg20
I0
sa(dp577
g3
I5
sg4
S'Waste 2'
p578
sg6
I1000
sg7
I9
sg8
I186
sg9
I8
sg10
I3
sg11
I0
sg12
I25
sg13
I0
sg14
I3
sg15
g23
sg17
S'1x instrument - ligase'
p579
sg19
I0
sg20
I0
sa(dp580
g3
I5
sg4
S'Waste 2'
p581
sg6
I1000
sg7
I9
sg8
I187
sg9
I8
sg10
I3
sg11
I0
sg12
I25
sg13
I0
sg14
I3
sg15
g23
sg17
S'1x instrument - ligase'
p582
sg19
I0
sg20
I0
sa(dp583
g3
I5
sg4
S'Waste 2'
p584
sg6
I1000
sg7
I9
sg8
I188
sg9
I8
sg10
I3
sg11
I0
sg12
I25
sg13
I0
sg14
I3
sg15
g23
sg17
S'1x instrument - ligase'
p585
sg19
I0
sg20
I0
sa(dp586
g3
I5
sg4
S'Output 1'
p587
sg6
I900
sg7
I8
sg8
I189
sg9
I20
sg10
I3
sg11
I0
sg12
I25
sg13
I0
sg14
I5
sg15
g16
sg17
S'1x instrument - cleave'
p588
sg19
I0
sg20
I0
sa(dp589
g3
I5
sg4
S'Output 1'
p590
sg6
I3000
sg7
I8
sg8
I190
sg9
I21
sg10
I4
sg11
I0
sg12
I25
sg13
I0
sg14
I5
sg15
g16
sg17
S'1x instrument - cleave'
p591
sg19
I0
sg20
I0
sa(dp592
g3
I5
sg4
S'Waste 2'
p593
sg6
I1000
sg7
I9
sg8
I191
sg9
I30
sg10
I4
sg11
I0
sg12
I25
sg13
I0
sg14
I8
sg15
g23
sg17
S'Output 2'
p594
sg19
I0
sg20
I0
sa(dp595
g3
I5
sg4
S'Waste 2'
p596
sg6
I1000
sg7
I9
sg8
I192
sg9
I30
sg10
I4
sg11
I0
sg12
I25
sg13
I0
sg14
I8
sg15
g23
sg17
S'Output 2'
p597
sg19
I0
sg20
I0
sa(dp598
g3
I5
sg4
S'Waste 2'
p599
sg6
I1000
sg7
I9
sg8
I193
sg9
I30
sg10
I4
sg11
I0
sg12
I25
sg13
I0
sg14
I8
sg15
g23
sg17
S'Output 2'
p600
sg19
I0
sg20
I0
sa(dp601
g3
I5
sg4
S'Waste 2'
p602
sg6
I1000
sg7
I9
sg8
I194
sg9
I30
sg10
I4
sg11
I0
sg12
I25
sg13
I0
sg14
I8
sg15
g23
sg17
S'Output 2'
p603
sg19
I0
sg20
I0
sa(dp604
g3
I5
sg4
S'Output 2'
p605
sg6
I230
sg7
I8
sg8
I195
sg9
I16
sg10
I4
sg11
I0
sg12
I25
sg13
I0
sg14
I2
sg15
g23
sg17
S'T4 ligase mix'
p606
sg19
I0
sg20
I0
sa(dp607
g3
I5
sg4
S'Waste 2'
p608
sg6
I1000
sg7
I9
sg8
I196
sg9
I8
sg10
I4
sg11
I0
sg12
I25
sg13
I0
sg14
I3
sg15
g23
sg17
S'1x instrument - ligase'
p609
sg19
I0
sg20
I0
sa(dp610
g3
I5
sg4
S'Waste 2'
p611
sg6
I1000
sg7
I9
sg8
I197
sg9
I8
sg10
I4
sg11
I0
sg12
I25
sg13
I0
sg14
I3
sg15
g23
sg17
S'1x instrument - ligase'
p612
sg19
I0
sg20
I0
sa(dp613
g3
I5
sg4
S'Waste 2'
p614
sg6
I1000
sg7
I9
sg8
I198
sg9
I8
sg10
I4
sg11
I0
sg12
I25
sg13
I0
sg14
I3
sg15
g23
sg17
S'1x instrument - ligase'
p615
sg19
I0
sg20
I0
sa(dp616
g3
I5
sg4
S'Waste 2'
p617
sg6
I1000
sg7
I9
sg8
I199
sg9
I8
sg10
I4
sg11
I45
sg12
I25
sg13
I0
sg14
I3
sg15
g23
sg17
S'1x instrument - ligase'
p618
sg19
I0
sg20
I0
sa(dp619
g3
I5
sg4
S'Waste 2'
p620
sg6
I300
sg7
I9
sg8
I200
sg9
I30
sg10
I4
sg11
I0
sg12
I25
sg13
I0
sg14
I8
sg15
g23
sg17
S'Output 2'
p621
sg19
I0
sg20
I0
sa(dp622
g3
I5
sg4
S'Waste 2'
p623
sg6
I1000
sg7
I9
sg8
I201
sg9
I8
sg10
I4
sg11
I0
sg12
I25
sg13
I0
sg14
I3
sg15
g23
sg17
S'1x instrument - ligase'
p624
sg19
I0
sg20
I0
sa(dp625
g3
I5
sg4
S'Waste 2'
p626
sg6
I1000
sg7
I9
sg8
I202
sg9
I8
sg10
I4
sg11
I0
sg12
I25
sg13
I0
sg14
I3
sg15
g23
sg17
S'1x instrument - ligase'
p627
sg19
I0
sg20
I0
sa(dp628
g3
I5
sg4
S'Waste 2'
p629
sg6
I1000
sg7
I9
sg8
I203
sg9
I8
sg10
I4
sg11
I0
sg12
I25
sg13
I0
sg14
I3
sg15
g23
sg17
S'1x instrument - ligase'
p630
sg19
I0
sg20
I0
sa(dp631
g3
I5
sg4
S'Waste 2'
p632
sg6
I1000
sg7
I9
sg8
I204
sg9
I8
sg10
I4
sg11
I0
sg12
I25
sg13
I0
sg14
I3
sg15
g23
sg17
S'1x instrument - ligase'
p633
sg19
I0
sg20
I0
sa(dp634
g3
I5
sg4
S'Output 1'
p635
sg6
I3900
sg7
I8
sg8
I205
sg9
I21
sg10
I4
sg11
I2
sg12
I25
sg13
I0
sg14
I5
sg15
g16
sg17
S'1x instrument - cleave'
p636
sg19
I0
sg20
I0
sa(dp637
g3
I5
sg4
S'Waste 2'
p638
sg6
I1000
sg7
I9
sg8
I206
sg9
I30
sg10
I4
sg11
I0
sg12
I25
sg13
I0
sg14
I8
sg15
g23
sg17
S'Output 2'
p639
sg19
I0
sg20
I0
sa(dp640
g3
I5
sg4
S'Waste 2'
p641
sg6
I1000
sg7
I9
sg8
I207
sg9
I30
sg10
I4
sg11
I0
sg12
I25
sg13
I0
sg14
I8
sg15
g23
sg17
S'Output 2'
p642
sg19
I0
sg20
I0
sa(dp643
g3
I5
sg4
S'Waste 2'
p644
sg6
I1000
sg7
I9
sg8
I208
sg9
I30
sg10
I4
sg11
I0
sg12
I25
sg13
I0
sg14
I8
sg15
g23
sg17
S'Output 2'
p645
sg19
I0
sg20
I0
sa(dp646
g3
I5
sg4
S'Waste 2'
p647
sg6
I1000
sg7
I9
sg8
I209
sg9
I30
sg10
I4
sg11
I0
sg12
I25
sg13
I0
sg14
I8
sg15
g23
sg17
S'Output 2'
p648
sg19
I0
sg20
I0
sa(dp649
g3
I5
sg4
S'Output 1'
p650
sg6
I3900
sg7
I8
sg8
I210
sg9
I21
sg10
I4
sg11
I2
sg12
I25
sg13
I0
sg14
I5
sg15
g16
sg17
S'1x instrument - cleave'
p651
sg19
I0
sg20
I0
sa(dp652
g3
I5
sg4
S'Waste 2'
p653
sg6
I1000
sg7
I9
sg8
I211
sg9
I30
sg10
I4
sg11
I0
sg12
I25
sg13
I0
sg14
I8
sg15
g23
sg17
S'Output 2'
p654
sg19
I0
sg20
I0
sa(dp655
g3
I5
sg4
S'Waste 2'
p656
sg6
I1000
sg7
I9
sg8
I212
sg9
I30
sg10
I4
sg11
I0
sg12
I25
sg13
I0
sg14
I8
sg15
g23
sg17
S'Output 2'
p657
sg19
I0
sg20
I0
sa(dp658
g3
I5
sg4
S'Waste 2'
p659
sg6
I1000
sg7
I9
sg8
I213
sg9
I30
sg10
I4
sg11
I0
sg12
I25
sg13
I0
sg14
I8
sg15
g23
sg17
S'Output 2'
p660
sg19
I0
sg20
I0
sa(dp661
g3
I5
sg4
S'Waste 2'
p662
sg6
I1000
sg7
I9
sg8
I214
sg9
I30
sg10
I4
sg11
I0
sg12
I25
sg13
I0
sg14
I8
sg15
g23
sg17
S'Output 2'
p663
sg19
I0
sg20
I0
sa(dp664
g3
I5
sg4
S'Output 1'
p665
sg6
I3900
sg7
I8
sg8
I215
sg9
I21
sg10
I4
sg11
I2
sg12
I25
sg13
I0
sg14
I5
sg15
g16
sg17
S'1x instrument - cleave'
p666
sg19
I0
sg20
I0
sa(dp667
g3
I5
sg4
S'Waste 2'
p668
sg6
I1000
sg7
I9
sg8
I216
sg9
I30
sg10
I4
sg11
I0
sg12
I25
sg13
I0
sg14
I8
sg15
g23
sg17
S'Output 2'
p669
sg19
I0
sg20
I0
sa(dp670
g3
I5
sg4
S'Waste 2'
p671
sg6
I1000
sg7
I9
sg8
I217
sg9
I30
sg10
I4
sg11
I0
sg12
I25
sg13
I0
sg14
I8
sg15
g23
sg17
S'Output 2'
p672
sg19
I0
sg20
I0
sa(dp673
g3
I5
sg4
S'Waste 2'
p674
sg6
I1000
sg7
I9
sg8
I218
sg9
I30
sg10
I4
sg11
I0
sg12
I25
sg13
I0
sg14
I8
sg15
g23
sg17
S'Output 2'
p675
sg19
I0
sg20
I0
sa(dp676
g3
I5
sg4
S'Waste 2'
p677
sg6
I1000
sg7
I9
sg8
I219
sg9
I30
sg10
I4
sg11
I0
sg12
I25
sg13
I0
sg14
I8
sg15
g23
sg17
S'Output 2'
p678
sg19
I0
sg20
I0
sa(dp679
g3
I5
sg4
S'Output 1'
p680
sg6
I3900
sg7
I8
sg8
I220
sg9
I21
sg10
I4
sg11
I2
sg12
I25
sg13
I0
sg14
I5
sg15
g16
sg17
S'1x instrument - cleave'
p681
sg19
I0
sg20
I0
sa(dp682
g3
I5
sg4
S'Waste 2'
p683
sg6
I1000
sg7
I9
sg8
I221
sg9
I30
sg10
I4
sg11
I0
sg12
I25
sg13
I0
sg14
I8
sg15
g23
sg17
S'Output 2'
p684
sg19
I0
sg20
I0
sa(dp685
g3
I5
sg4
S'Waste 2'
p686
sg6
I1000
sg7
I9
sg8
I222
sg9
I30
sg10
I4
sg11
I0
sg12
I25
sg13
I0
sg14
I8
sg15
g23
sg17
S'Output 2'
p687
sg19
I0
sg20
I0
sa(dp688
g3
I5
sg4
S'Waste 2'
p689
sg6
I1000
sg7
I9
sg8
I223
sg9
I30
sg10
I4
sg11
I0
sg12
I25
sg13
I0
sg14
I8
sg15
g23
sg17
S'Output 2'
p690
sg19
I0
sg20
I0
sa(dp691
g3
I5
sg4
S'Waste 2'
p692
sg6
I1000
sg7
I9
sg8
I224
sg9
I30
sg10
I4
sg11
I0
sg12
I25
sg13
I0
sg14
I8
sg15
g23
sg17
S'Output 2'
p693
sg19
I0
sg20
I0
sa(dp694
g3
I5
sg4
S'Output 1'
p695
sg6
I900
sg7
I8
sg8
I225
sg9
I21
sg10
I4
sg11
I0
sg12
I25
sg13
I0
sg14
I5
sg15
g16
sg17
S'1x instrument - cleave'
p696
sg19
I0
sg20
I0
sa(dp697
g3
I5
sg4
S'Waste 2'
p698
sg6
I1000
sg7
I9
sg8
I226
sg9
I30
sg10
I5
sg11
I0
sg12
I25
sg13
I0
sg14
I8
sg15
g23
sg17
S'Output 2'
p699
sg19
I0
sg20
I0
sa(dp700
g3
I5
sg4
S'Cleave solution 1'
p701
sg6
I700
sg7
I1
sg8
I227
sg9
I21
sg10
I5
sg11
I0
sg12
I25
sg13
I0
sg14
I1
sg15
g16
sg17
S'Cleave solution 1'
p702
sg19
I0
sg20
I0
sa(dp703
g3
I5
sg4
S'Output 1'
p704
sg6
I300
sg7
I8
sg8
I228
sg9
I20
sg10
I5
sg11
I0
sg12
I25
sg13
I0
sg14
I1
sg15
g16
sg17
S'Cleave solution 1'
p705
sg19
I0
sg20
I0
sa(dp706
g3
I5
sg4
S'Output 1'
p707
sg6
I35
sg7
I8
sg8
I229
sg9
I25
sg10
I5
sg11
I5
sg12
I25
sg13
I0
sg14
I7
sg15
g16
sg17
S'Air 1'
p708
sg19
I0
sg20
I0
sa(dp709
g3
I5
sg4
S'Waste 2'
p710
sg6
I400
sg7
I9
sg8
I230
sg9
I30
sg10
I5
sg11
I0
sg12
I25
sg13
I0
sg14
I8
sg15
g23
sg17
S'Output 2'
p711
sg19
I0
sg20
I0
sa(dp712
g3
I5
sg4
S'Output 1'
p713
sg6
I300
sg7
I8
sg8
I231
sg9
I20
sg10
I5
sg11
I0
sg12
I25
sg13
I0
sg14
I1
sg15
g16
sg17
S'Cleave solution 1'
p714
sg19
I0
sg20
I0
sa(dp715
g3
I5
sg4
S'Output 1'
p716
sg6
I35
sg7
I8
sg8
I232
sg9
I25
sg10
I5
sg11
I5
sg12
I25
sg13
I0
sg14
I7
sg15
g16
sg17
S'Air 1'
p717
sg19
I0
sg20
I0
sa(dp718
g3
I5
sg4
S'Waste 2'
p719
sg6
I400
sg7
I9
sg8
I233
sg9
I30
sg10
I5
sg11
I0
sg12
I25
sg13
I0
sg14
I8
sg15
g23
sg17
S'Output 2'
p720
sg19
I0
sg20
I0
sa(dp721
g3
I5
sg4
S'Waste 1'
p722
sg6
I4000
sg7
I9
sg8
I234
sg9
I8
sg10
I5
sg11
I0
sg12
I25
sg13
I0
sg14
I6
sg15
g16
sg17
S'dH2O - cleave'
p723
sg19
I0
sg20
I0
sa(dp724
g3
I5
sg4
S'Waste 1'
p725
sg6
I4000
sg7
I9
sg8
I235
sg9
I8
sg10
I5
sg11
I0
sg12
I25
sg13
I0
sg14
I6
sg15
g16
sg17
S'dH2O - cleave'
p726
sg19
I0
sg20
I0
sa(dp727
g3
I5
sg4
S'Waste 1'
p728
sg6
I4000
sg7
I9
sg8
I236
sg9
I8
sg10
I5
sg11
I0
sg12
I25
sg13
I0
sg14
I5
sg15
g16
sg17
S'1x instrument - cleave'
p729
sg19
I0
sg20
I0
sa(dp730
g3
I5
sg4
S'Waste 1'
p731
sg6
I4000
sg7
I9
sg8
I237
sg9
I8
sg10
I5
sg11
I0
sg12
I25
sg13
I0
sg14
I5
sg15
g16
sg17
S'1x instrument - cleave'
p732
sg19
I0
sg20
I0
sa(dp733
g3
I5
sg4
S'Output 1'
p734
sg6
I900
sg7
I8
sg8
I238
sg9
I20
sg10
I5
sg11
I0
sg12
I25
sg13
I0
sg14
I5
sg15
g16
sg17
S'1x instrument - cleave'
p735
sg19
I0
sg20
I0
sa(dp736
g3
I5
sg4
S'Cleave solution 1'
p737
sg6
I700
sg7
I1
sg8
I239
sg9
I21
sg10
I5
sg11
I0
sg12
I25
sg13
I0
sg14
I7
sg15
g16
sg17
S'Air 1'
p738
sg19
I0
sg20
I0
sa(dp739
g3
I5
sg4
S'Cleave 2 part 1'
p740
sg6
I700
sg7
I2
sg8
I240
sg9
I21
sg10
I5
sg11
I0
sg12
I25
sg13
I0
sg14
I2
sg15
g16
sg17
S'Cleave 2 part 1'
p741
sg19
I0
sg20
I0
sa(dp742
g3
I5
sg4
S'Cleave solution 2.1'
p743
sg6
I270
sg7
I4
sg8
I241
sg9
I20
sg10
I5
sg11
I0
sg12
I25
sg13
I0
sg14
I2
sg15
g16
sg17
S'Cleave 2 part 1'
p744
sg19
I0
sg20
I0
sa(dp745
g3
I5
sg4
S'Cleave solution 2.1'
p746
sg6
I700
sg7
I4
sg8
I242
sg9
I21
sg10
I5
sg11
I0
sg12
I25
sg13
I0
sg14
I7
sg15
g16
sg17
S'Air 1'
p747
sg19
I0
sg20
I0
sa(dp748
g3
I5
sg4
S'Cleave 2 part 1'
p749
sg6
I700
sg7
I2
sg8
I243
sg9
I21
sg10
I5
sg11
I0
sg12
I25
sg13
I0
sg14
I7
sg15
g16
sg17
S'Air 1'
p750
sg19
I0
sg20
I0
sa(dp751
g3
I5
sg4
S'Waste 1'
p752
sg6
I4000
sg7
I9
sg8
I244
sg9
I8
sg10
I5
sg11
I0
sg12
I25
sg13
I0
sg14
I6
sg15
g16
sg17
S'dH2O - cleave'
p753
sg19
I0
sg20
I0
sa(dp754
g3
I5
sg4
S'Waste 1'
p755
sg6
I4000
sg7
I9
sg8
I245
sg9
I8
sg10
I5
sg11
I0
sg12
I25
sg13
I0
sg14
I6
sg15
g16
sg17
S'dH2O - cleave'
p756
sg19
I0
sg20
I0
sa(dp757
g3
I5
sg4
S'Waste 1'
p758
sg6
I4000
sg7
I9
sg8
I246
sg9
I8
sg10
I5
sg11
I0
sg12
I25
sg13
I0
sg14
I5
sg15
g16
sg17
S'1x instrument - cleave'
p759
sg19
I0
sg20
I0
sa(dp760
g3
I5
sg4
S'Waste 1'
p761
sg6
I4000
sg7
I9
sg8
I247
sg9
I8
sg10
I5
sg11
I0
sg12
I25
sg13
I0
sg14
I5
sg15
g16
sg17
S'1x instrument - cleave'
p762
sg19
I0
sg20
I0
sa(dp763
g3
I5
sg4
S'Cleave 2 part 2'
p764
sg6
I700
sg7
I3
sg8
I248
sg9
I21
sg10
I5
sg11
I0
sg12
I25
sg13
I0
sg14
I3
sg15
g16
sg17
S'Cleave 2 part 2'
p765
sg19
I0
sg20
I0
sa(dp766
g3
I5
sg4
S'Cleave solution 2.1'
p767
sg6
I750
sg7
I4
sg8
I249
sg9
I20
sg10
I5
sg11
I0
sg12
I25
sg13
I0
sg14
I3
sg15
g16
sg17
S'Cleave 2 part 2'
p768
sg19
I0
sg20
I0
sa(dp769
g3
I5
sg4
S'Cleave solution 2.1'
p770
sg6
I700
sg7
I4
sg8
I250
sg9
I21
sg10
I5
sg11
I0
sg12
I25
sg13
I0
sg14
I7
sg15
g16
sg17
S'Air 1'
p771
sg19
I0
sg20
I0
sa(dp772
g3
I5
sg4
S'Cleave 2 part 2'
p773
sg6
I700
sg7
I3
sg8
I251
sg9
I21
sg10
I5
sg11
I0
sg12
I25
sg13
I0
sg14
I7
sg15
g16
sg17
S'Air 1'
p774
sg19
I0
sg20
I0
sa(dp775
g3
I5
sg4
S'Cleave solution 2.1'
p776
sg6
I4500
sg7
I4
sg8
I252
sg9
I8
sg10
I5
sg11
I0
sg12
I25
sg13
I0
sg14
I7
sg15
g16
sg17
S'Air 1'
p777
sg19
I0
sg20
I0
sa(dp778
g3
I5
sg4
S'Waste 2'
p779
sg6
I1000
sg7
I9
sg8
I253
sg9
I30
sg10
I5
sg11
I0
sg12
I25
sg13
I0
sg14
I8
sg15
g23
sg17
S'Output 2'
p780
sg19
I0
sg20
I0
sa(dp781
g3
I5
sg4
S'Cleave solution 2.1'
p782
sg6
I700
sg7
I4
sg8
I254
sg9
I21
sg10
I5
sg11
I0
sg12
I25
sg13
I0
sg14
I4
sg15
g16
sg17
S'Cleave solution 2.1'
p783
sg19
I0
sg20
I0
sa(dp784
g3
I5
sg4
S'Output 1'
p785
sg6
I300
sg7
I8
sg8
I255
sg9
I20
sg10
I5
sg11
I0
sg12
I25
sg13
I0
sg14
I4
sg15
g16
sg17
S'Cleave solution 2.1'
p786
sg19
I0
sg20
I0
sa(dp787
g3
I5
sg4
S'Output 1'
p788
sg6
I35
sg7
I8
sg8
I256
sg9
I25
sg10
I5
sg11
I0
sg12
I25
sg13
I0
sg14
I7
sg15
g16
sg17
S'Air 1'
p789
sg19
I0
sg20
I0
sa(dp790
g3
I5
sg4
S'Cleave solution 2.1'
p791
sg6
I700
sg7
I4
sg8
I257
sg9
I21
sg10
I5
sg11
I5
sg12
I25
sg13
I0
sg14
I7
sg15
g16
sg17
S'Air 1'
p792
sg19
I0
sg20
I0
sa(dp793
g3
I5
sg4
S'Waste 2'
p794
sg6
I400
sg7
I9
sg8
I258
sg9
I30
sg10
I5
sg11
I0
sg12
I25
sg13
I0
sg14
I8
sg15
g23
sg17
S'Output 2'
p795
sg19
I0
sg20
I0
sa(dp796
g3
I5
sg4
S'Cleave solution 2.1'
p797
sg6
I700
sg7
I4
sg8
I259
sg9
I21
sg10
I5
sg11
I0
sg12
I25
sg13
I0
sg14
I4
sg15
g16
sg17
S'Cleave solution 2.1'
p798
sg19
I0
sg20
I0
sa(dp799
g3
I5
sg4
S'Output 1'
p800
sg6
I300
sg7
I8
sg8
I260
sg9
I20
sg10
I5
sg11
I0
sg12
I25
sg13
I0
sg14
I4
sg15
g16
sg17
S'Cleave solution 2.1'
p801
sg19
I0
sg20
I0
sa(dp802
g3
I5
sg4
S'Output 1'
p803
sg6
I35
sg7
I8
sg8
I261
sg9
I25
sg10
I5
sg11
I0
sg12
I25
sg13
I0
sg14
I7
sg15
g16
sg17
S'Air 1'
p804
sg19
I0
sg20
I0
sa(dp805
g3
I5
sg4
S'Cleave solution 2.1'
p806
sg6
I700
sg7
I4
sg8
I262
sg9
I21
sg10
I5
sg11
I5
sg12
I25
sg13
I0
sg14
I7
sg15
g16
sg17
S'Air 1'
p807
sg19
I0
sg20
I0
sa(dp808
g3
I5
sg4
S'Waste 2'
p809
sg6
I400
sg7
I9
sg8
I263
sg9
I30
sg10
I5
sg11
I0
sg12
I25
sg13
I0
sg14
I8
sg15
g23
sg17
S'Output 2'
p810
sg19
I0
sg20
I0
sa(dp811
g3
I5
sg4
S'Waste 1'
p812
sg6
I2000
sg7
I9
sg8
I264
sg9
I16
sg10
I5
sg11
I0
sg12
I25
sg13
I0
sg14
I4
sg15
g16
sg17
S'Cleave solution 2.1'
p813
sg19
I0
sg20
I0
sa(dp814
g3
I5
sg4
S'Waste 1'
p815
sg6
I4000
sg7
I9
sg8
I265
sg9
I8
sg10
I5
sg11
I0
sg12
I25
sg13
I0
sg14
I6
sg15
g16
sg17
S'dH2O - cleave'
p816
sg19
I0
sg20
I0
sa(dp817
g3
I5
sg4
S'Waste 1'
p818
sg6
I4000
sg7
I9
sg8
I266
sg9
I8
sg10
I5
sg11
I0
sg12
I25
sg13
I0
sg14
I6
sg15
g16
sg17
S'dH2O - cleave'
p819
sg19
I0
sg20
I0
sa(dp820
g3
I5
sg4
S'Waste 1'
p821
sg6
I4000
sg7
I9
sg8
I267
sg9
I8
sg10
I5
sg11
I0
sg12
I25
sg13
I0
sg14
I5
sg15
g16
sg17
S'1x instrument - cleave'
p822
sg19
I0
sg20
I0
sa(dp823
g3
I5
sg4
S'Waste 1'
p824
sg6
I4000
sg7
I9
sg8
I268
sg9
I8
sg10
I5
sg11
I0
sg12
I25
sg13
I0
sg14
I5
sg15
g16
sg17
S'1x instrument - cleave'
p825
sg19
I0
sg20
I0
sa(dp826
g3
I5
sg4
S'Output 1'
p827
sg6
I900
sg7
I8
sg8
I269
sg9
I20
sg10
I5
sg11
I5
sg12
I25
sg13
I0
sg14
I5
sg15
g16
sg17
S'1x instrument - cleave'
p828
sg19
I0
sg20
I0
sa(dp829
g3
I5
sg4
S'Waste 2'
p830
sg6
I1000
sg7
I9
sg8
I270
sg9
I30
sg10
I5
sg11
I0
sg12
I25
sg13
I0
sg14
I8
sg15
g23
sg17
S'Output 2'
p831
sg19
I0
sg20
I0
sa(dp832
g3
I5
sg4
S'Output 1'
p833
sg6
I900
sg7
I8
sg8
I271
sg9
I20
sg10
I5
sg11
I5
sg12
I25
sg13
I0
sg14
I5
sg15
g16
sg17
S'1x instrument - cleave'
p834
sg19
I0
sg20
I0
sa(dp835
g3
I5
sg4
S'Waste 2'
p836
sg6
I1000
sg7
I9
sg8
I272
sg9
I30
sg10
I5
sg11
I0
sg12
I25
sg13
I0
sg14
I8
sg15
g23
sg17
S'Output 2'
p837
sg19
I0
sg20
I0
sa(dp838
g3
I5
sg4
S'Output 1'
p839
sg6
I900
sg7
I8
sg8
I273
sg9
I20
sg10
I5
sg11
I5
sg12
I25
sg13
I0
sg14
I5
sg15
g16
sg17
S'1x instrument - cleave'
p840
sg19
I0
sg20
I0
sa(dp841
g3
I5
sg4
S'Waste 2'
p842
sg6
I1000
sg7
I9
sg8
I274
sg9
I30
sg10
I5
sg11
I0
sg12
I25
sg13
I0
sg14
I8
sg15
g23
sg17
S'Output 2'
p843
sg19
I0
sg20
I0
sa(dp844
g3
I5
sg4
S'Waste 2'
p845
sg6
I1000
sg7
I9
sg8
I275
sg9
I8
sg10
I5
sg11
I0
sg12
I25
sg13
I0
sg14
I4
sg15
g23
sg17
S'dH2O - ligase'
p846
sg19
I0
sg20
I0
sa(dp847
g3
I5
sg4
S'Waste 2'
p848
sg6
I1000
sg7
I9
sg8
I276
sg9
I8
sg10
I5
sg11
I0
sg12
I25
sg13
I0
sg14
I4
sg15
g23
sg17
S'dH2O - ligase'
p849
sg19
I0
sg20
I0
sa(dp850
g3
I5
sg4
S'Waste 2'
p851
sg6
I1000
sg7
I9
sg8
I277
sg9
I8
sg10
I5
sg11
I0
sg12
I25
sg13
I0
sg14
I4
sg15
g23
sg17
S'dH2O - ligase'
p852
sg19
I0
sg20
I0
sa(dp853
g3
I5
sg4
S'Waste 2'
p854
sg6
I1000
sg7
I9
sg8
I278
sg9
I8
sg10
I5
sg11
I0
sg12
I25
sg13
I0
sg14
I4
sg15
g23
sg17
S'dH2O - ligase'
p855
sg19
I0
sg20
I0
sa(dp856
g3
I5
sg4
S'Waste 2'
p857
sg6
I1000
sg7
I9
sg8
I279
sg9
I8
sg10
I5
sg11
I0
sg12
I25
sg13
I0
sg14
I3
sg15
g23
sg17
S'1x instrument - ligase'
p858
sg19
I0
sg20
I0
sa(dp859
g3
I5
sg4
S'Waste 2'
p860
sg6
I1000
sg7
I9
sg8
I280
sg9
I8
sg10
I5
sg11
I0
sg12
I25
sg13
I0
sg14
I3
sg15
g23
sg17
S'1x instrument - ligase'
p861
sg19
I0
sg20
I0
sa(dp862
g3
I5
sg4
S'Waste 2'
p863
sg6
I1000
sg7
I9
sg8
I281
sg9
I8
sg10
I5
sg11
I0
sg12
I25
sg13
I0
sg14
I3
sg15
g23
sg17
S'1x instrument - ligase'
p864
sg19
I0
sg20
I0
sa(dp865
g3
I5
sg4
S'Waste 2'
p866
sg6
I1000
sg7
I9
sg8
I282
sg9
I8
sg10
I5
sg11
I0
sg12
I25
sg13
I0
sg14
I3
sg15
g23
sg17
S'1x instrument - ligase'
p867
sg19
I0
sg20
I0
sa(dp868
g3
I5
sg4
S'Waste 2'
p869
sg6
I1000
sg7
I9
sg8
I283
sg9
I8
sg10
I5
sg11
I0
sg12
I25
sg13
I0
sg14
I3
sg15
g23
sg17
S'1x instrument - ligase'
p870
sg19
I0
sg20
I0
sa(dp871
g3
I5
sg4
S'Output 1'
p872
sg6
I900
sg7
I8
sg8
I284
sg9
I20
sg10
I5
sg11
I0
sg12
I25
sg13
I0
sg14
I5
sg15
g16
sg17
S'1x instrument - cleave'
p873
sg19
I0
sg20
I0
sa(dp874
g3
I5
sg4
S'Output 1'
p875
sg6
I3000
sg7
I8
sg8
I285
sg9
I21
sg10
I6
sg11
I0
sg12
I25
sg13
I0
sg14
I5
sg15
g16
sg17
S'1x instrument - cleave'
p876
sg19
I0
sg20
I0
sa(dp877
g3
I5
sg4
S'Waste 2'
p878
sg6
I1000
sg7
I9
sg8
I286
sg9
I30
sg10
I6
sg11
I0
sg12
I25
sg13
I0
sg14
I8
sg15
g23
sg17
S'Output 2'
p879
sg19
I0
sg20
I0
sa(dp880
g3
I5
sg4
S'Waste 2'
p881
sg6
I1000
sg7
I9
sg8
I287
sg9
I30
sg10
I6
sg11
I0
sg12
I25
sg13
I0
sg14
I8
sg15
g23
sg17
S'Output 2'
p882
sg19
I0
sg20
I0
sa(dp883
g3
I5
sg4
S'Waste 2'
p884
sg6
I1000
sg7
I9
sg8
I288
sg9
I30
sg10
I6
sg11
I0
sg12
I25
sg13
I0
sg14
I8
sg15
g23
sg17
S'Output 2'
p885
sg19
I0
sg20
I0
sa(dp886
g3
I5
sg4
S'Waste 2'
p887
sg6
I1000
sg7
I9
sg8
I289
sg9
I30
sg10
I6
sg11
I0
sg12
I25
sg13
I0
sg14
I8
sg15
g23
sg17
S'Output 2'
p888
sg19
I0
sg20
I0
sa(dp889
g3
I5
sg4
S'Output 2'
p890
sg6
I230
sg7
I8
sg8
I290
sg9
I16
sg10
I6
sg11
I0
sg12
I25
sg13
I0
sg14
I2
sg15
g23
sg17
S'T4 ligase mix'
p891
sg19
I0
sg20
I0
sa(dp892
g3
I5
sg4
S'Waste 2'
p893
sg6
I1000
sg7
I9
sg8
I291
sg9
I8
sg10
I6
sg11
I0
sg12
I25
sg13
I0
sg14
I3
sg15
g23
sg17
S'1x instrument - ligase'
p894
sg19
I0
sg20
I0
sa(dp895
g3
I5
sg4
S'Waste 2'
p896
sg6
I1000
sg7
I9
sg8
I292
sg9
I8
sg10
I6
sg11
I0
sg12
I25
sg13
I0
sg14
I3
sg15
g23
sg17
S'1x instrument - ligase'
p897
sg19
I0
sg20
I0
sa(dp898
g3
I5
sg4
S'Waste 2'
p899
sg6
I1000
sg7
I9
sg8
I293
sg9
I8
sg10
I6
sg11
I0
sg12
I25
sg13
I0
sg14
I3
sg15
g23
sg17
S'1x instrument - ligase'
p900
sg19
I0
sg20
I0
sa(dp901
g3
I5
sg4
S'Waste 2'
p902
sg6
I1000
sg7
I9
sg8
I294
sg9
I8
sg10
I6
sg11
I45
sg12
I25
sg13
I0
sg14
I3
sg15
g23
sg17
S'1x instrument - ligase'
p903
sg19
I0
sg20
I0
sa(dp904
g3
I5
sg4
S'Waste 2'
p905
sg6
I300
sg7
I9
sg8
I295
sg9
I30
sg10
I6
sg11
I0
sg12
I25
sg13
I0
sg14
I8
sg15
g23
sg17
S'Output 2'
p906
sg19
I0
sg20
I0
sa(dp907
g3
I5
sg4
S'Waste 2'
p908
sg6
I1000
sg7
I9
sg8
I296
sg9
I8
sg10
I6
sg11
I0
sg12
I25
sg13
I0
sg14
I3
sg15
g23
sg17
S'1x instrument - ligase'
p909
sg19
I0
sg20
I0
sa(dp910
g3
I5
sg4
S'Waste 2'
p911
sg6
I1000
sg7
I9
sg8
I297
sg9
I8
sg10
I6
sg11
I0
sg12
I25
sg13
I0
sg14
I3
sg15
g23
sg17
S'1x instrument - ligase'
p912
sg19
I0
sg20
I0
sa(dp913
g3
I5
sg4
S'Waste 2'
p914
sg6
I1000
sg7
I9
sg8
I298
sg9
I8
sg10
I6
sg11
I0
sg12
I25
sg13
I0
sg14
I3
sg15
g23
sg17
S'1x instrument - ligase'
p915
sg19
I0
sg20
I0
sa(dp916
g3
I5
sg4
S'Waste 2'
p917
sg6
I1000
sg7
I9
sg8
I299
sg9
I8
sg10
I6
sg11
I0
sg12
I25
sg13
I0
sg14
I3
sg15
g23
sg17
S'1x instrument - ligase'
p918
sg19
I0
sg20
I0
sa(dp919
g3
I5
sg4
S'Output 1'
p920
sg6
I3900
sg7
I8
sg8
I300
sg9
I21
sg10
I6
sg11
I2
sg12
I25
sg13
I0
sg14
I5
sg15
g16
sg17
S'1x instrument - cleave'
p921
sg19
I0
sg20
I0
sa(dp922
g3
I5
sg4
S'Waste 2'
p923
sg6
I1000
sg7
I9
sg8
I301
sg9
I30
sg10
I6
sg11
I0
sg12
I25
sg13
I0
sg14
I8
sg15
g23
sg17
S'Output 2'
p924
sg19
I0
sg20
I0
sa(dp925
g3
I5
sg4
S'Waste 2'
p926
sg6
I1000
sg7
I9
sg8
I302
sg9
I30
sg10
I6
sg11
I0
sg12
I25
sg13
I0
sg14
I8
sg15
g23
sg17
S'Output 2'
p927
sg19
I0
sg20
I0
sa(dp928
g3
I5
sg4
S'Waste 2'
p929
sg6
I1000
sg7
I9
sg8
I303
sg9
I30
sg10
I6
sg11
I0
sg12
I25
sg13
I0
sg14
I8
sg15
g23
sg17
S'Output 2'
p930
sg19
I0
sg20
I0
sa(dp931
g3
I5
sg4
S'Waste 2'
p932
sg6
I1000
sg7
I9
sg8
I304
sg9
I30
sg10
I6
sg11
I0
sg12
I25
sg13
I0
sg14
I8
sg15
g23
sg17
S'Output 2'
p933
sg19
I0
sg20
I0
sa(dp934
g3
I5
sg4
S'Output 1'
p935
sg6
I3900
sg7
I8
sg8
I305
sg9
I21
sg10
I6
sg11
I2
sg12
I25
sg13
I0
sg14
I5
sg15
g16
sg17
S'1x instrument - cleave'
p936
sg19
I0
sg20
I0
sa(dp937
g3
I5
sg4
S'Waste 2'
p938
sg6
I1000
sg7
I9
sg8
I306
sg9
I30
sg10
I6
sg11
I0
sg12
I25
sg13
I0
sg14
I8
sg15
g23
sg17
S'Output 2'
p939
sg19
I0
sg20
I0
sa(dp940
g3
I5
sg4
S'Waste 2'
p941
sg6
I1000
sg7
I9
sg8
I307
sg9
I30
sg10
I6
sg11
I0
sg12
I25
sg13
I0
sg14
I8
sg15
g23
sg17
S'Output 2'
p942
sg19
I0
sg20
I0
sa(dp943
g3
I5
sg4
S'Waste 2'
p944
sg6
I1000
sg7
I9
sg8
I308
sg9
I30
sg10
I6
sg11
I0
sg12
I25
sg13
I0
sg14
I8
sg15
g23
sg17
S'Output 2'
p945
sg19
I0
sg20
I0
sa(dp946
g3
I5
sg4
S'Waste 2'
p947
sg6
I1000
sg7
I9
sg8
I309
sg9
I30
sg10
I6
sg11
I0
sg12
I25
sg13
I0
sg14
I8
sg15
g23
sg17
S'Output 2'
p948
sg19
I0
sg20
I0
sa(dp949
g3
I5
sg4
S'Output 1'
p950
sg6
I3900
sg7
I8
sg8
I310
sg9
I21
sg10
I6
sg11
I2
sg12
I25
sg13
I0
sg14
I5
sg15
g16
sg17
S'1x instrument - cleave'
p951
sg19
I0
sg20
I0
sa(dp952
g3
I5
sg4
S'Waste 2'
p953
sg6
I1000
sg7
I9
sg8
I311
sg9
I30
sg10
I6
sg11
I0
sg12
I25
sg13
I0
sg14
I8
sg15
g23
sg17
S'Output 2'
p954
sg19
I0
sg20
I0
sa(dp955
g3
I5
sg4
S'Waste 2'
p956
sg6
I1000
sg7
I9
sg8
I312
sg9
I30
sg10
I6
sg11
I0
sg12
I25
sg13
I0
sg14
I8
sg15
g23
sg17
S'Output 2'
p957
sg19
I0
sg20
I0
sa(dp958
g3
I5
sg4
S'Waste 2'
p959
sg6
I1000
sg7
I9
sg8
I313
sg9
I30
sg10
I6
sg11
I0
sg12
I25
sg13
I0
sg14
I8
sg15
g23
sg17
S'Output 2'
p960
sg19
I0
sg20
I0
sa(dp961
g3
I5
sg4
S'Waste 2'
p962
sg6
I1000
sg7
I9
sg8
I314
sg9
I30
sg10
I6
sg11
I0
sg12
I25
sg13
I0
sg14
I8
sg15
g23
sg17
S'Output 2'
p963
sg19
I0
sg20
I0
sa(dp964
g3
I5
sg4
S'Output 1'
p965
sg6
I3900
sg7
I8
sg8
I315
sg9
I21
sg10
I6
sg11
I2
sg12
I25
sg13
I0
sg14
I5
sg15
g16
sg17
S'1x instrument - cleave'
p966
sg19
I0
sg20
I0
sa(dp967
g3
I5
sg4
S'Waste 2'
p968
sg6
I1000
sg7
I9
sg8
I316
sg9
I30
sg10
I6
sg11
I0
sg12
I25
sg13
I0
sg14
I8
sg15
g23
sg17
S'Output 2'
p969
sg19
I0
sg20
I0
sa(dp970
g3
I5
sg4
S'Waste 2'
p971
sg6
I1000
sg7
I9
sg8
I317
sg9
I30
sg10
I6
sg11
I0
sg12
I25
sg13
I0
sg14
I8
sg15
g23
sg17
S'Output 2'
p972
sg19
I0
sg20
I0
sa(dp973
g3
I5
sg4
S'Waste 2'
p974
sg6
I1000
sg7
I9
sg8
I318
sg9
I30
sg10
I6
sg11
I0
sg12
I25
sg13
I0
sg14
I8
sg15
g23
sg17
S'Output 2'
p975
sg19
I0
sg20
I0
sa(dp976
g3
I5
sg4
S'Waste 2'
p977
sg6
I1000
sg7
I9
sg8
I319
sg9
I30
sg10
I6
sg11
I0
sg12
I25
sg13
I0
sg14
I8
sg15
g23
sg17
S'Output 2'
p978
sg19
I0
sg20
I0
sa(dp979
g3
I5
sg4
S'Output 1'
p980
sg6
I900
sg7
I8
sg8
I320
sg9
I21
sg10
I6
sg11
I0
sg12
I25
sg13
I0
sg14
I5
sg15
g16
sg17
S'1x instrument - cleave'
p981
sg19
I0
sg20
I0
sa.