(lp1
(dp2
S'reagent'
p3
S''
sS'pump'
p4
S'/dev/ttyUSB1'
p5
sS'port'
p6
I1
sa(dp7
g3
S''
sg4
g5
sg6
I2
sa(dp8
g3
S'1x instrument buffer'
p9
sg4
g5
sg6
I3
sa(dp10
g3
S'Strip buffer'
p11
sg4
g5
sg6
I4
sa(dp12
g3
S''
sg4
g5
sg6
I5
sa(dp13
g3
S''
sg4
g5
sg6
I6
sa(dp14
g3
S'Air 1'
p15
sg4
g5
sg6
I7
sa(dp16
g3
S'Output 1'
p17
sg4
g5
sg6
I8
sa(dp18
g3
S'Waste 1'
p19
sg4
g5
sg6
I9
sa(dp20
g3
S''
sg4
S'/dev/ttyUSB0'
p21
sg6
I1
sa(dp22
g3
S''
sg4
g21
sg6
I2
sa(dp23
g3
S''
sg4
g21
sg6
I3
sa(dp24
g3
S''
sg4
g21
sg6
I4
sa(dp25
g3
S''
sg4
g21
sg6
I5
sa(dp26
g3
S''
sg4
g21
sg6
I6
sa(dp27
g3
S'Air 2'
p28
sg4
g21
sg6
I7
sa(dp29
g3
S'Output 2'
p30
sg4
g21
sg6
I8
sa(dp31
g3
S'Waste 2'
p32
sg4
g21
sg6
I9
sa.(lp1
(dp2
S'waitsecs'
p3
I5
sS'toportreagent'
p4
S'Waste 1'
p5
sS'volume'
p6
I1000
sS'toport'
p7
I9
sS'cmdnumber'
p8
I0
sS'speed'
p9
I30
sS'cycle'
p10
I0
sS'waitmins'
p11
I0
sS'temp'
p12
I25
sS'heatwhen'
p13
I0
sS'fromport'
p14
I8
sS'pump'
p15
S'/dev/ttyUSB1'
p16
sS'fromportreagent'
p17
S'Output 1'
p18
sS'waste'
p19
I0
sS'type'
p20
I0
sa(dp21
g3
I5
sg4
S'Waste 1'
p22
sg6
I1000
sg7
I9
sg8
I1
sg9
I8
sg10
I0
sg11
I0
sg12
I25
sg13
I0
sg14
I3
sg15
g16
sg17
S'1x instrument buffer'
p23
sg19
I0
sg20
I0
sa(dp24
g3
I5
sg4
S'Waste 1'
p25
sg6
I1000
sg7
I9
sg8
I2
sg9
I8
sg10
I0
sg11
I0
sg12
I25
sg13
I0
sg14
I3
sg15
g16
sg17
S'1x instrument buffer'
p26
sg19
I0
sg20
I0
sa(dp27
g3
I5
sg4
S'Waste 1'
p28
sg6
I150
sg7
I9
sg8
I3
sg9
I16
sg10
I0
sg11
I0
sg12
I25
sg13
I0
sg14
I4
sg15
g16
sg17
S'Strip buffer'
p29
sg19
I0
sg20
I0
sa(dp30
g3
I5
sg4
S'Output 1'
p31
sg6
I250
sg7
I8
sg8
I4
sg9
I16
sg10
I0
sg11
I5
sg12
I25
sg13
I0
sg14
I4
sg15
g16
sg17
S'Strip buffer'
p32
sg19
I1
sg20
I1
sa(dp33
g3
I5
sg4
S'Waste 1'
p34
sg6
I1000
sg7
I9
sg8
I5
sg9
I8
sg10
I0
sg11
I0
sg12
I25
sg13
I0
sg14
I3
sg15
g16
sg17
S'1x instrument buffer'
p35
sg19
I0
sg20
I0
sa(dp36
g3
I5
sg4
S'Waste 1'
p37
sg6
I1000
sg7
I9
sg8
I6
sg9
I8
sg10
I0
sg11
I0
sg12
I25
sg13
I0
sg14
I3
sg15
g16
sg17
S'1x instrument buffer'
p38
sg19
I0
sg20
I0
sa(dp39
g3
I5
sg4
S'Waste 1'
p40
sg6
I1000
sg7
I9
sg8
I7
sg9
I8
sg10
I0
sg11
I0
sg12
I25
sg13
I0
sg14
I3
sg15
g16
sg17
S'1x instrument buffer'
p41
sg19
I0
sg20
I0
sa(dp42
g3
I5
sg4
S'Waste 1'
p43
sg6
I150
sg7
I9
sg8
I8
sg9
I16
sg10
I0
sg11
I0
sg12
I25
sg13
I0
sg14
I4
sg15
g16
sg17
S'Strip buffer'
p44
sg19
I0
sg20
I0
sa(dp45
g3
I5
sg4
S'Output 1'
p46
sg6
I250
sg7
I8
sg8
I9
sg9
I16
sg10
I0
sg11
I5
sg12
I25
sg13
I0
sg14
I4
sg15
g16
sg17
S'Strip buffer'
p47
sg19
I1
sg20
I1
sa(dp48
g3
I5
sg4
S'Waste 1'
p49
sg6
I1000
sg7
I9
sg8
I10
sg9
I8
sg10
I0
sg11
I0
sg12
I25
sg13
I0
sg14
I3
sg15
g16
sg17
S'1x instrument buffer'
p50
sg19
I0
sg20
I0
sa(dp51
g3
I5
sg4
S'Waste 1'
p52
sg6
I1000
sg7
I9
sg8
I11
sg9
I8
sg10
I0
sg11
I0
sg12
I25
sg13
I0
sg14
I3
sg15
g16
sg17
S'1x instrument buffer'
p53
sg19
I0
sg20
I0
sa(dp54
g3
I5
sg4
S'Waste 1'
p55
sg6
I1000
sg7
I9
sg8
I12
sg9
I8
sg10
I0
sg11
I0
sg12
I25
sg13
I0
sg14
I3
sg15
g16
sg17
S'1x instrument buffer'
p56
sg19
I0
sg20
I0
sa(dp57
g3
I5
sg4
S'Waste 1'
p58
sg6
I150
sg7
I9
sg8
I13
sg9
I16
sg10
I0
sg11
I0
sg12
I25
sg13
I0
sg14
I4
sg15
g16
sg17
S'Strip buffer'
p59
sg19
I0
sg20
I0
sa(dp60
g3
I5
sg4
S'Output 1'
p61
sg6
I250
sg7
I8
sg8
I14
sg9
I16
sg10
I0
sg11
I5
sg12
I25
sg13
I0
sg14
I4
sg15
g16
sg17
S'Strip buffer'
p62
sg19
I1
sg20
I1
sa(dp63
g3
I5
sg4
S'Waste 1'
p64
sg6
I1000
sg7
I9
sg8
I15
sg9
I8
sg10
I0
sg11
I0
sg12
I25
sg13
I0
sg14
I3
sg15
g16
sg17
S'1x instrument buffer'
p65
sg19
I0
sg20
I0
sa(dp66
g3
I5
sg4
S'Waste 1'
p67
sg6
I1000
sg7
I9
sg8
I16
sg9
I8
sg10
I0
sg11
I0
sg12
I25
sg13
I0
sg14
I3
sg15
g16
sg17
S'1x instrument buffer'
p68
sg19
I0
sg20
I0
sa(dp69
g3
I5
sg4
S'Waste 1'
p70
sg6
I1000
sg7
I9
sg8
I17
sg9
I8
sg10
I0
sg11
I0
sg12
I25
sg13
I0
sg14
I3
sg15
g16
sg17
S'1x instrument buffer'
p71
sg19
I0
sg20
I0
sa(dp72
g3
I5
sg4
S'Waste 1'
p73
sg6
I150
sg7
I9
sg8
I18
sg9
I16
sg10
I0
sg11
I0
sg12
I25
sg13
I0
sg14
I4
sg15
g16
sg17
S'Strip buffer'
p74
sg19
I0
sg20
I0
sa(dp75
g3
I5
sg4
S'Output 1'
p76
sg6
I250
sg7
I8
sg8
I19
sg9
I16
sg10
I0
sg11
I5
sg12
I25
sg13
I0
sg14
I4
sg15
g16
sg17
S'Strip buffer'
p77
sg19
I1
sg20
I1
sa(dp78
g3
I5
sg4
S'Waste 1'
p79
sg6
I1000
sg7
I9
sg8
I20
sg9
I8
sg10
I0
sg11
I0
sg12
I25
sg13
I0
sg14
I3
sg15
g16
sg17
S'1x instrument buffer'
p80
sg19
I0
sg20
I0
sa(dp81
g3
I5
sg4
S'Waste 1'
p82
sg6
I1000
sg7
I9
sg8
I21
sg9
I8
sg10
I0
sg11
I0
sg12
I25
sg13
I0
sg14
I3
sg15
g16
sg17
S'1x instrument buffer'
p83
sg19
I0
sg20
I0
sa(dp84
g3
I5
sg4
S'Waste 1'
p85
sg6
I1000
sg7
I9
sg8
I22
sg9
I8
sg10
I0
sg11
I0
sg12
I25
sg13
I0
sg14
I3
sg15
g16
sg17
S'1x instrument buffer'
p86
sg19
I0
sg20
I0
sa(dp87
g3
I5
sg4
S'Output 1'
p88
sg6
I1000
sg7
I8
sg8
I23
sg9
I16
sg10
I0
sg11
I3
sg12
I25
sg13
I0
sg14
I3
sg15
g16
sg17
S'1x instrument buffer'
p89
sg19
I1
sg20
I1
sa(dp90
g3
I5
sg4
S'Output 1'
p91
sg6
I1000
sg7
I8
sg8
I24
sg9
I16
sg10
I0
sg11
I3
sg12
I25
sg13
I0
sg14
I3
sg15
g16
sg17
S'1x instrument buffer'
p92
sg19
I1
sg20
I1
sa(dp93
g3
I5
sg4
S'Output 1'
p94
sg6
I1000
sg7
I8
sg8
I25
sg9
I16
sg10
I0
sg11
I3
sg12
I25
sg13
I0
sg14
I3
sg15
g16
sg17
S'1x instrument buffer'
p95
sg19
I1
sg20
I1
sa(dp96
g3
I5
sg4
S'Waste 1'
p97
sg6
I1000
sg7
I9
sg8
I26
sg9
I8
sg10
I0
sg11
I0
sg12
I25
sg13
I0
sg14
I3
sg15
g16
sg17
S'1x instrument buffer'
p98
sg19
I0
sg20
I0
sa(dp99
g3
I5
sg4
S'Waste 1'
p100
sg6
I1000
sg7
I9
sg8
I27
sg9
I8
sg10
I0
sg11
I0
sg12
I25
sg13
I0
sg14
I3
sg15
g16
sg17
S'1x instrument buffer'
p101
sg19
I0
sg20
I0
sa(dp102
g3
I5
sg4
S'Waste 1'
p103
sg6
I1000
sg7
I9
sg8
I28
sg9
I8
sg10
I0
sg11
I0
sg12
I25
sg13
I0
sg14
I3
sg15
g16
sg17
S'1x instrument buffer'
p104
sg19
I0
sg20
I0
sa.