(lp1
(dp2
S'reagent'
p3
S''
sS'pump'
p4
S'/dev/ttyUSB1'
p5
sS'port'
p6
I1
sa(dp7
g3
S'T4 ligase mix'
p8
sg4
g5
sg6
I2
sa(dp9
g3
S'1x instrument buffer 1'
p10
sg4
g5
sg6
I3
sa(dp11
g3
S''
sg4
g5
sg6
I4
sa(dp12
g3
S''
sg4
g5
sg6
I5
sa(dp13
g3
S''
sg4
g5
sg6
I6
sa(dp14
g3
S'Air 1'
p15
sg4
g5
sg6
I7
sa(dp16
g3
S'Output 1'
p17
sg4
g5
sg6
I8
sa(dp18
g3
S'Waste 1'
p19
sg4
g5
sg6
I9
sa(dp20
g3
S'Cleave solution 1'
p21
sg4
S'/dev/ttyUSB0'
p22
sg6
I1
sa(dp23
g3
S'Cleave solution 2.1'
p24
sg4
g22
sg6
I2
sa(dp25
g3
S'1x instrument buffer 2'
p26
sg4
g22
sg6
I3
sa(dp27
g3
S''
sg4
g22
sg6
I4
sa(dp28
g3
S''
sg4
g22
sg6
I5
sa(dp29
g3
S''
sg4
g22
sg6
I6
sa(dp30
g3
S'Air 2'
p31
sg4
g22
sg6
I7
sa(dp32
g3
S'Output 2'
p33
sg4
g22
sg6
I8
sa(dp34
g3
S'Waste 2'
p35
sg4
g22
sg6
I9
sa.(lp1
(dp2
S'waitsecs'
p3
I5
sS'toportreagent'
p4
S'Waste 2'
p5
sS'volume'
p6
I900
sS'toport'
p7
I9
sS'cmdnumber'
p8
I0
sS'speed'
p9
I30
sS'cycle'
p10
I0
sS'waitmins'
p11
I0
sS'temp'
p12
I25
sS'heatwhen'
p13
I0
sS'fromport'
p14
I8
sS'pump'
p15
S'/dev/ttyUSB0'
p16
sS'fromportreagent'
p17
S'Output 2'
p18
sS'waste'
p19
I0
sS'type'
p20
I0
sa(dp21
g3
I5
sg4
S'Waste 2'
p22
sg6
I1000
sg7
I9
sg8
I1
sg9
I8
sg10
I0
sg11
I0
sg12
I25
sg13
I0
sg14
I3
sg15
g16
sg17
S'1x instrument buffer 2'
p23
sg19
I0
sg20
I0
sa(dp24
g3
I5
sg4
S'Waste 2'
p25
sg6
I1000
sg7
I9
sg8
I2
sg9
I8
sg10
I0
sg11
I0
sg12
I25
sg13
I0
sg14
I3
sg15
g16
sg17
S'1x instrument buffer 2'
p26
sg19
I0
sg20
I0
sa(dp27
g3
I5
sg4
S'Waste 2'
p28
sg6
I1000
sg7
I9
sg8
I3
sg9
I8
sg10
I0
sg11
I0
sg12
I25
sg13
I0
sg14
I3
sg15
g16
sg17
S'1x instrument buffer 2'
p29
sg19
I0
sg20
I0
sa(dp30
g3
I5
sg4
S'Waste 2'
p31
sg6
I1000
sg7
I9
sg8
I4
sg9
I8
sg10
I0
sg11
I0
sg12
I25
sg13
I0
sg14
I3
sg15
g16
sg17
S'1x instrument buffer 2'
p32
sg19
I0
sg20
I0
sa(dp33
g3
I5
sg4
S'Output 2'
p34
sg6
I250
sg7
I8
sg8
I5
sg9
I16
sg10
I0
sg11
I5
sg12
I25
sg13
I0
sg14
I1
sg15
g16
sg17
S'Cleave solution 1'
p35
sg19
I1
sg20
I1
sa(dp36
g3
I5
sg4
S'Waste 2'
p37
sg6
I1000
sg7
I9
sg8
I6
sg9
I8
sg10
I0
sg11
I0
sg12
I25
sg13
I0
sg14
I3
sg15
g16
sg17
S'1x instrument buffer 2'
p38
sg19
I0
sg20
I0
sa(dp39
g3
I5
sg4
S'Waste 2'
p40
sg6
I1000
sg7
I9
sg8
I7
sg9
I8
sg10
I0
sg11
I0
sg12
I25
sg13
I0
sg14
I3
sg15
g16
sg17
S'1x instrument buffer 2'
p41
sg19
I0
sg20
I0
sa(dp42
g3
I5
sg4
S'Waste 2'
p43
sg6
I1000
sg7
I9
sg8
I8
sg9
I8
sg10
I0
sg11
I0
sg12
I25
sg13
I0
sg14
I3
sg15
g16
sg17
S'1x instrument buffer 2'
p44
sg19
I0
sg20
I0
sa(dp45
g3
I5
sg4
S'Output 2'
p46
sg6
I250
sg7
I8
sg8
I9
sg9
I16
sg10
I0
sg11
I5
sg12
I25
sg13
I0
sg14
I1
sg15
g16
sg17
S'Cleave solution 1'
p47
sg19
I1
sg20
I1
sa(dp48
g3
I5
sg4
S'Waste 2'
p49
sg6
I1000
sg7
I9
sg8
I10
sg9
I8
sg10
I0
sg11
I0
sg12
I25
sg13
I0
sg14
I3
sg15
g16
sg17
S'1x instrument buffer 2'
p50
sg19
I0
sg20
I0
sa(dp51
g3
I5
sg4
S'Waste 2'
p52
sg6
I1000
sg7
I9
sg8
I11
sg9
I8
sg10
I0
sg11
I0
sg12
I25
sg13
I0
sg14
I3
sg15
g16
sg17
S'1x instrument buffer 2'
p53
sg19
I0
sg20
I0
sa(dp54
g3
I5
sg4
S'Waste 2'
p55
sg6
I1000
sg7
I9
sg8
I12
sg9
I8
sg10
I0
sg11
I0
sg12
I25
sg13
I0
sg14
I3
sg15
g16
sg17
S'1x instrument buffer 2'
p56
sg19
I0
sg20
I0
sa(dp57
g3
I5
sg4
S'Output 2'
p58
sg6
I250
sg7
I8
sg8
I13
sg9
I16
sg10
I0
sg11
I5
sg12
I25
sg13
I0
sg14
I2
sg15
g16
sg17
S'Cleave solution 2.1'
p59
sg19
I1
sg20
I1
sa(dp60
g3
I5
sg4
S'Waste 2'
p61
sg6
I1000
sg7
I9
sg8
I14
sg9
I8
sg10
I0
sg11
I0
sg12
I25
sg13
I0
sg14
I3
sg15
g16
sg17
S'1x instrument buffer 2'
p62
sg19
I0
sg20
I0
sa(dp63
g3
I5
sg4
S'Waste 2'
p64
sg6
I1000
sg7
I9
sg8
I15
sg9
I8
sg10
I0
sg11
I0
sg12
I25
sg13
I0
sg14
I3
sg15
g16
sg17
S'1x instrument buffer 2'
p65
sg19
I0
sg20
I0
sa(dp66
g3
I5
sg4
S'Waste 2'
p67
sg6
I1000
sg7
I9
sg8
I16
sg9
I8
sg10
I0
sg11
I0
sg12
I25
sg13
I0
sg14
I3
sg15
g16
sg17
S'1x instrument buffer 2'
p68
sg19
I0
sg20
I0
sa(dp69
g3
I5
sg4
S'Output 2'
p70
sg6
I250
sg7
I8
sg8
I17
sg9
I16
sg10
I0
sg11
I5
sg12
I25
sg13
I0
sg14
I2
sg15
g16
sg17
S'Cleave solution 2.1'
p71
sg19
I1
sg20
I1
sa(dp72
g3
I5
sg4
S'Waste 2'
p73
sg6
I1000
sg7
I9
sg8
I18
sg9
I8
sg10
I0
sg11
I0
sg12
I25
sg13
I0
sg14
I3
sg15
g16
sg17
S'1x instrument buffer 2'
p74
sg19
I0
sg20
I0
sa(dp75
g3
I5
sg4
S'Waste 2'
p76
sg6
I1000
sg7
I9
sg8
I19
sg9
I8
sg10
I0
sg11
I0
sg12
I25
sg13
I0
sg14
I3
sg15
g16
sg17
S'1x instrument buffer 2'
p77
sg19
I0
sg20
I0
sa(dp78
g3
I5
sg4
S'Waste 2'
p79
sg6
I1000
sg7
I9
sg8
I20
sg9
I8
sg10
I0
sg11
I0
sg12
I25
sg13
I0
sg14
I3
sg15
g16
sg17
S'1x instrument buffer 2'
p80
sg19
I0
sg20
I0
sa(dp81
g3
I5
sg4
S'Output 2'
p82
sg6
I1000
sg7
I8
sg8
I21
sg9
I16
sg10
I0
sg11
I5
sg12
I25
sg13
I0
sg14
I3
sg15
g16
sg17
S'1x instrument buffer 2'
p83
sg19
I1
sg20
I1
sa(dp84
g3
I5
sg4
S'Output 2'
p85
sg6
I1000
sg7
I8
sg8
I22
sg9
I16
sg10
I0
sg11
I5
sg12
I25
sg13
I0
sg14
I3
sg15
g16
sg17
S'1x instrument buffer 2'
p86
sg19
I1
sg20
I1
sa(dp87
g3
I5
sg4
S'Output 2'
p88
sg6
I1000
sg7
I8
sg8
I23
sg9
I16
sg10
I0
sg11
I5
sg12
I25
sg13
I0
sg14
I3
sg15
g16
sg17
S'1x instrument buffer 2'
p89
sg19
I1
sg20
I1
sa(dp90
g3
I5
sg4
S'Output 2'
p91
sg6
I1000
sg7
I8
sg8
I24
sg9
I16
sg10
I0
sg11
I5
sg12
I25
sg13
I0
sg14
I3
sg15
g16
sg17
S'1x instrument buffer 2'
p92
sg19
I1
sg20
I1
sa(dp93
g3
I5
sg4
S'Waste 1'
p94
sg6
I500
sg7
I9
sg8
I25
sg9
I30
sg10
I1
sg11
I0
sg12
I25
sg13
I0
sg14
I8
sg15
S'/dev/ttyUSB1'
p95
sg17
S'Output 1'
p96
sg19
I0
sg20
I0
sa(dp97
g3
I5
sg4
S'Waste 2'
p98
sg6
I500
sg7
I9
sg8
I26
sg9
I30
sg10
I1
sg11
I0
sg12
I25
sg13
I0
sg14
I8
sg15
g16
sg17
S'Output 2'
p99
sg19
I0
sg20
I0
sa(dp100
g3
I5
sg4
S'Waste 1'
p101
sg6
I1000
sg7
I9
sg8
I27
sg9
I8
sg10
I1
sg11
I0
sg12
I25
sg13
I0
sg14
I3
sg15
g95
sg17
S'1x instrument buffer 1'
p102
sg19
I0
sg20
I0
sa(dp103
g3
I5
sg4
S'Waste 1'
p104
sg6
I1000
sg7
I9
sg8
I28
sg9
I8
sg10
I1
sg11
I0
sg12
I25
sg13
I0
sg14
I3
sg15
g95
sg17
S'1x instrument buffer 1'
p105
sg19
I0
sg20
I0
sa(dp106
g3
I5
sg4
S'Waste 1'
p107
sg6
I1000
sg7
I9
sg8
I29
sg9
I8
sg10
I1
sg11
I0
sg12
I25
sg13
I0
sg14
I3
sg15
g95
sg17
S'1x instrument buffer 1'
p108
sg19
I0
sg20
I0
sa(dp109
g3
I5
sg4
S'Waste 1'
p110
sg6
I1000
sg7
I9
sg8
I30
sg9
I8
sg10
I1
sg11
I0
sg12
I25
sg13
I0
sg14
I3
sg15
g95
sg17
S'1x instrument buffer 1'
p111
sg19
I0
sg20
I0
sa(dp112
g3
I5
sg4
S'Waste 2'
p113
sg6
I1000
sg7
I9
sg8
I31
sg9
I8
sg10
I1
sg11
I0
sg12
I25
sg13
I0
sg14
I3
sg15
g16
sg17
S'1x instrument buffer 2'
p114
sg19
I0
sg20
I0
sa(dp115
g3
I5
sg4
S'Waste 2'
p116
sg6
I1000
sg7
I9
sg8
I32
sg9
I8
sg10
I1
sg11
I0
sg12
I25
sg13
I0
sg14
I3
sg15
g16
sg17
S'1x instrument buffer 2'
p117
sg19
I0
sg20
I0
sa(dp118
g3
I5
sg4
S'Output 1'
p119
sg6
I250
sg7
I8
sg8
I33
sg9
I16
sg10
I1
sg11
I45
sg12
I25
sg13
I0
sg14
I2
sg15
g95
sg17
S'T4 ligase mix'
p120
sg19
I0
sg20
I0
sa(dp121
g3
I5
sg4
S'Waste 1'
p122
sg6
I1000
sg7
I9
sg8
I34
sg9
I8
sg10
I1
sg11
I0
sg12
I25
sg13
I0
sg14
I3
sg15
g95
sg17
S'1x instrument buffer 1'
p123
sg19
I0
sg20
I0
sa(dp124
g3
I5
sg4
S'Waste 1'
p125
sg6
I1000
sg7
I9
sg8
I35
sg9
I8
sg10
I1
sg11
I0
sg12
I25
sg13
I0
sg14
I3
sg15
g95
sg17
S'1x instrument buffer 1'
p126
sg19
I0
sg20
I0
sa(dp127
g3
I5
sg4
S'Waste 1'
p128
sg6
I1000
sg7
I9
sg8
I36
sg9
I8
sg10
I1
sg11
I0
sg12
I25
sg13
I0
sg14
I3
sg15
g95
sg17
S'1x instrument buffer 1'
p129
sg19
I0
sg20
I0
sa(dp130
g3
I5
sg4
S'Waste 1'
p131
sg6
I1000
sg7
I9
sg8
I37
sg9
I8
sg10
I1
sg11
I0
sg12
I25
sg13
I0
sg14
I3
sg15
g95
sg17
S'1x instrument buffer 1'
p132
sg19
I0
sg20
I0
sa(dp133
g3
I5
sg4
S'Output 1'
p134
sg6
I1000
sg7
I8
sg8
I38
sg9
I16
sg10
I1
sg11
I5
sg12
I25
sg13
I0
sg14
I3
sg15
g95
sg17
S'1x instrument buffer 1'
p135
sg19
I1
sg20
I1
sa(dp136
g3
I5
sg4
S'Output 1'
p137
sg6
I1000
sg7
I8
sg8
I39
sg9
I16
sg10
I1
sg11
I5
sg12
I25
sg13
I0
sg14
I3
sg15
g95
sg17
S'1x instrument buffer 1'
p138
sg19
I1
sg20
I1
sa(dp139
g3
I5
sg4
S'Output 1'
p140
sg6
I1000
sg7
I8
sg8
I40
sg9
I16
sg10
I1
sg11
I5
sg12
I25
sg13
I0
sg14
I3
sg15
g95
sg17
S'1x instrument buffer 1'
p141
sg19
I1
sg20
I1
sa(dp142
g3
I5
sg4
S'Output 1'
p143
sg6
I1000
sg7
I8
sg8
I41
sg9
I16
sg10
I1
sg11
I5
sg12
I25
sg13
I0
sg14
I3
sg15
g95
sg17
S'1x instrument buffer 1'
p144
sg19
I1
sg20
I1
sa(dp145
g3
I5
sg4
S'Waste 1'
p146
sg6
I1000
sg7
I9
sg8
I42
sg9
I8
sg10
I1
sg11
I0
sg12
I25
sg13
I0
sg14
I3
sg15
g95
sg17
S'1x instrument buffer 1'
p147
sg19
I0
sg20
I0
sa(dp148
g3
I5
sg4
S'Waste 1'
p149
sg6
I1000
sg7
I9
sg8
I43
sg9
I8
sg10
I1
sg11
I0
sg12
I25
sg13
I0
sg14
I3
sg15
g95
sg17
S'1x instrument buffer 1'
p150
sg19
I0
sg20
I0
sa(dp151
g3
I5
sg4
S'Waste 1'
p152
sg6
I1000
sg7
I9
sg8
I44
sg9
I8
sg10
I1
sg11
I0
sg12
I25
sg13
I0
sg14
I3
sg15
g95
sg17
S'1x instrument buffer 1'
p153
sg19
I0
sg20
I0
sa(dp154
g3
I5
sg4
S'Output 1'
p155
sg6
I750
sg7
I8
sg8
I45
sg9
I16
sg10
I1
sg11
I0
sg12
I25
sg13
I0
sg14
I3
sg15
g95
sg17
S'1x instrument buffer 1'
p156
sg19
I0
sg20
I0
sa.