(lp1
(dp2
S'reagent'
p3
S'Cleave solution 1'
p4
sS'pump'
p5
S'/dev/ttyUSB1'
p6
sS'port'
p7
I1
sa(dp8
g3
S'Cleave solution 2.1'
p9
sg5
g6
sg7
I2
sa(dp10
g3
S'1x instrument - cleave'
p11
sg5
g6
sg7
I3
sa(dp12
g3
S'dH2O'
p13
sg5
g6
sg7
I4
sa(dp14
g3
S''
sg5
g6
sg7
I5
sa(dp15
g3
S''
sg5
g6
sg7
I6
sa(dp16
g3
S'Air 1'
p17
sg5
g6
sg7
I7
sa(dp18
g3
S'Output 1'
p19
sg5
g6
sg7
I8
sa(dp20
g3
S'Waste 1'
p21
sg5
g6
sg7
I9
sa(dp22
g3
S''
sg5
S'/dev/ttyUSB0'
p23
sg7
I1
sa(dp24
g3
S'T4 ligase mix'
p25
sg5
g23
sg7
I2
sa(dp26
g3
S'1x instrument - ligase'
p27
sg5
g23
sg7
I3
sa(dp28
g3
S'Imaging buffer'
p29
sg5
g23
sg7
I4
sa(dp30
g3
S''
sg5
g23
sg7
I5
sa(dp31
g3
S''
sg5
g23
sg7
I6
sa(dp32
g3
S'Air 2'
p33
sg5
g23
sg7
I7
sa(dp34
g3
S'Output 2'
p35
sg5
g23
sg7
I8
sa(dp36
g3
S'Waste 2'
p37
sg5
g23
sg7
I9
sa.(lp1
(dp2
S'waitmins'
p3
I0
sS'waitsecs'
p4
I5
sS'heatwhen'
p5
I0
sS'toportreagent'
p6
S'Waste 2'
p7
sS'cmdnum'
p8
I0
sS'volume'
p9
I1000
sS'fromport'
p10
I8
sS'pump'
p11
S'/dev/ttyUSB0'
p12
sS'temp'
p13
I25
sS'type'
p14
I0
sS'toport'
p15
I9
sS'cmdnumber'
p16
I71
sS'waste'
p17
I0
sS'speed'
p18
I30
sS'fromportreagent'
p19
S'Output 2'
p20
sS'cycle'
p21
I0
sa(dp22
g3
I0
sg4
I5
sg5
I0
sg6
g20
sg8
I1
sg9
I250
sg10
I2
sg11
g12
sg13
I25
sg14
I0
sg15
I8
sg16
I72
sg17
I0
sg18
I16
sg19
S'T4 ligase mix'
p23
sg21
I0
sa(dp24
g3
I0
sg4
I5
sg5
I0
sg6
g7
sg8
I2
sg9
I1000
sg10
I3
sg11
g12
sg13
I25
sg14
I0
sg15
I9
sg16
I73
sg17
I0
sg18
I8
sg19
S'1x instrument - ligase'
p25
sg21
I0
sa(dp26
g3
I0
sg4
I5
sg5
I0
sg6
g7
sg8
I3
sg9
I1000
sg10
I3
sg11
g12
sg13
I25
sg14
I0
sg15
I9
sg16
I74
sg17
I0
sg18
I8
sg19
g25
sg21
I0
sa(dp27
g3
I0
sg4
I5
sg5
I0
sg6
g7
sg8
I4
sg9
I1000
sg10
I3
sg11
g12
sg13
I25
sg14
I0
sg15
I9
sg16
I75
sg17
I0
sg18
I8
sg19
g25
sg21
I0
sa(dp28
g3
I45
sg4
I5
sg5
I0
sg6
g7
sg8
I5
sg9
I1000
sg10
I3
sg11
g12
sg13
I25
sg14
I0
sg15
I9
sg16
I76
sg17
I0
sg18
I8
sg19
g25
sg21
I0
sa(dp29
g3
I0
sg4
I5
sg5
I0
sg6
g7
sg8
I6
sg9
I350
sg10
I8
sg11
g12
sg13
I25
sg14
I0
sg15
I9
sg16
I77
sg17
I0
sg18
I30
sg19
g20
sg21
I0
sa(dp30
g3
I0
sg4
I5
sg5
I0
sg6
g7
sg8
I7
sg9
I1000
sg10
I3
sg11
g12
sg13
I25
sg14
I0
sg15
I9
sg16
I78
sg17
I0
sg18
I8
sg19
g25
sg21
I0
sa(dp31
g3
I0
sg4
I5
sg5
I0
sg6
g7
sg8
I8
sg9
I1000
sg10
I3
sg11
g12
sg13
I25
sg14
I0
sg15
I9
sg16
I79
sg17
I0
sg18
I8
sg19
g25
sg21
I0
sa(dp32
g3
I0
sg4
I5
sg5
I0
sg6
g7
sg8
I9
sg9
I1000
sg10
I3
sg11
g12
sg13
I25
sg14
I0
sg15
I9
sg16
I80
sg17
I0
sg18
I8
sg19
g25
sg21
I0
sa(dp33
g3
I0
sg4
I5
sg5
I0
sg6
g7
sg8
I10
sg9
I1000
sg10
I3
sg11
g12
sg13
I25
sg14
I0
sg15
I9
sg16
I81
sg17
I0
sg18
I8
sg19
g25
sg21
I0
sa(dp34
g3
I0
sg4
I5
sg5
I0
sg6
g20
sg8
I11
sg9
I250
sg10
I3
sg11
g12
sg13
I25
sg14
I1
sg15
I8
sg16
I82
sg17
I1
sg18
I16
sg19
g25
sg21
I0
sa(dp35
g3
I0
sg4
I5
sg5
I0
sg6
g20
sg8
I12
sg9
I250
sg10
I3
sg11
g12
sg13
I25
sg14
I1
sg15
I8
sg16
I83
sg17
I1
sg18
I16
sg19
g25
sg21
I0
sa(dp36
g3
I5
sg4
I5
sg5
I0
sg6
g20
sg8
I13
sg9
I1000
sg10
I3
sg11
g12
sg13
I25
sg14
I1
sg15
I8
sg16
I84
sg17
I1
sg18
I16
sg19
g25
sg21
I0
sa(dp37
g3
I5
sg4
I5
sg5
I0
sg6
g20
sg8
I14
sg9
I1000
sg10
I3
sg11
g12
sg13
I25
sg14
I1
sg15
I8
sg16
I85
sg17
I1
sg18
I16
sg19
g25
sg21
I0
sa(dp38
g3
I5
sg4
I5
sg5
I0
sg6
g20
sg8
I15
sg9
I1000
sg10
I3
sg11
g12
sg13
I25
sg14
I1
sg15
I8
sg16
I86
sg17
I1
sg18
I16
sg19
g25
sg21
I0
sa(dp39
g3
I5
sg4
I5
sg5
I0
sg6
g20
sg8
I16
sg9
I1000
sg10
I3
sg11
g12
sg13
I25
sg14
I1
sg15
I8
sg16
I87
sg17
I1
sg18
I16
sg19
g25
sg21
I0
sa(dp40
g3
I0
sg4
I5
sg5
I0
sg6
g20
sg8
I17
sg9
I750
sg10
I4
sg11
g12
sg13
I25
sg14
I0
sg15
I8
sg16
I88
sg17
I0
sg18
I16
sg19
S'Imaging buffer'
p41
sg21
I0
sa(dp42
g9
I4000
sg4
I5
sg5
I0
sg6
S'Waste 1'
p43
sg3
I0
sg10
I4
sg11
S'/dev/ttyUSB1'
p44
sg13
I25
sg15
I9
sg16
I18
sg17
I0
sg14
I0
sg19
S'dH2O'
p45
sg18
I8
sg21
I1
sa(dp46
g9
I4000
sg4
I5
sg5
I0
sg6
g43
sg3
I0
sg10
I4
sg11
g44
sg13
I25
sg15
I9
sg16
I19
sg17
I0
sg14
I0
sg19
g45
sg18
I8
sg21
I1
sa(dp47
g9
I4000
sg4
I5
sg5
I0
sg6
g43
sg3
I0
sg10
I4
sg11
g44
sg13
I25
sg15
I9
sg16
I20
sg17
I0
sg14
I0
sg19
g45
sg18
I8
sg21
I1
sa(dp48
g9
I4000
sg4
I5
sg5
I0
sg6
g43
sg3
I0
sg10
I3
sg11
g44
sg13
I25
sg15
I9
sg16
I21
sg17
I0
sg14
I0
sg19
S'1x instrument - cleave'
p49
sg18
I8
sg21
I1
sa(dp50
g9
I4000
sg4
I5
sg5
I0
sg6
g43
sg3
I0
sg10
I3
sg11
g44
sg13
I25
sg15
I9
sg16
I22
sg17
I0
sg14
I0
sg19
g49
sg18
I8
sg21
I1
sa(dp51
g9
I1000
sg4
I5
sg5
I0
sg6
g43
sg3
I0
sg10
I8
sg11
g44
sg13
I25
sg15
I9
sg16
I23
sg17
I0
sg14
I0
sg19
S'Output 1'
p52
sg18
I36
sg21
I1
sa(dp53
g9
I1000
sg4
I5
sg5
I0
sg6
g43
sg3
I0
sg10
I8
sg11
g44
sg13
I25
sg15
I9
sg16
I24
sg17
I0
sg14
I0
sg19
g52
sg18
I36
sg21
I1
sa(dp54
g9
I4000
sg4
I5
sg5
I0
sg6
g43
sg3
I0
sg10
I4
sg11
g44
sg13
I25
sg15
I9
sg16
I25
sg17
I0
sg14
I0
sg19
g45
sg18
I8
sg21
I1
sa(dp55
g9
I4000
sg4
I5
sg5
I0
sg6
g43
sg3
I0
sg10
I4
sg11
g44
sg13
I25
sg15
I9
sg16
I26
sg17
I0
sg14
I0
sg19
g45
sg18
I8
sg21
I1
sa(dp56
g9
I4000
sg4
I5
sg5
I0
sg6
g43
sg3
I0
sg10
I4
sg11
g44
sg13
I25
sg15
I9
sg16
I27
sg17
I0
sg14
I0
sg19
g45
sg18
I8
sg21
I1
sa(dp57
g9
I4000
sg4
I5
sg5
I0
sg6
g43
sg3
I0
sg10
I3
sg11
g44
sg13
I25
sg15
I9
sg16
I28
sg17
I0
sg14
I0
sg19
g49
sg18
I8
sg21
I1
sa(dp58
g9
I4000
sg4
I5
sg5
I0
sg6
g43
sg3
I0
sg10
I3
sg11
g44
sg13
I25
sg15
I9
sg16
I29
sg17
I0
sg14
I0
sg19
g49
sg18
I8
sg21
I1
sa(dp59
g9
I300
sg4
I5
sg5
I0
sg6
g52
sg3
I5
sg10
I1
sg11
g44
sg13
I25
sg15
I8
sg16
I30
sg17
I1
sg14
I1
sg19
S'Cleave solution 1'
p60
sg18
I20
sg21
I1
sa(dp61
g9
I4000
sg4
I5
sg5
I0
sg6
g43
sg3
I0
sg10
I4
sg11
g44
sg13
I25
sg15
I9
sg16
I31
sg17
I0
sg14
I0
sg19
g45
sg18
I8
sg21
I1
sa(dp62
g9
I4000
sg4
I5
sg5
I0
sg6
g43
sg3
I0
sg10
I4
sg11
g44
sg13
I25
sg15
I9
sg16
I32
sg17
I0
sg14
I0
sg19
g45
sg18
I8
sg21
I1
sa(dp63
g9
I4000
sg4
I5
sg5
I0
sg6
g43
sg3
I0
sg10
I4
sg11
g44
sg13
I25
sg15
I9
sg16
I33
sg17
I0
sg14
I0
sg19
g45
sg18
I8
sg21
I1
sa(dp64
g9
I4000
sg4
I5
sg5
I0
sg6
g43
sg3
I0
sg10
I3
sg11
g44
sg13
I25
sg15
I9
sg16
I34
sg17
I0
sg14
I0
sg19
g49
sg18
I8
sg21
I1
sa(dp65
g9
I4000
sg4
I5
sg5
I0
sg6
g43
sg3
I0
sg10
I3
sg11
g44
sg13
I25
sg15
I9
sg16
I35
sg17
I0
sg14
I0
sg19
g49
sg18
I8
sg21
I1
sa(dp66
g9
I300
sg4
I5
sg5
I0
sg6
g52
sg3
I5
sg10
I1
sg11
g44
sg13
I25
sg15
I8
sg16
I36
sg17
I1
sg14
I1
sg19
g60
sg18
I20
sg21
I1
sa(dp67
g9
I4000
sg4
I5
sg5
I0
sg6
g43
sg3
I0
sg10
I4
sg11
g44
sg13
I25
sg15
I9
sg16
I37
sg17
I0
sg14
I0
sg19
g45
sg18
I8
sg21
I1
sa(dp68
g9
I4000
sg4
I5
sg5
I0
sg6
g43
sg3
I0
sg10
I4
sg11
g44
sg13
I25
sg15
I9
sg16
I38
sg17
I0
sg14
I0
sg19
g45
sg18
I8
sg21
I1
sa(dp69
g9
I4000
sg4
I5
sg5
I0
sg6
g43
sg3
I0
sg10
I4
sg11
g44
sg13
I25
sg15
I9
sg16
I39
sg17
I0
sg14
I0
sg19
g45
sg18
I8
sg21
I1
sa(dp70
g9
I4000
sg4
I5
sg5
I0
sg6
g43
sg3
I0
sg10
I3
sg11
g44
sg13
I25
sg15
I9
sg16
I40
sg17
I0
sg14
I0
sg19
g49
sg18
I8
sg21
I1
sa(dp71
g9
I4000
sg4
I5
sg5
I0
sg6
g43
sg3
I0
sg10
I3
sg11
g44
sg13
I25
sg15
I9
sg16
I41
sg17
I0
sg14
I0
sg19
g49
sg18
I8
sg21
I1
sa(dp72
g9
I300
sg4
I5
sg5
I0
sg6
g52
sg3
I5
sg10
I1
sg11
g44
sg13
I25
sg15
I8
sg16
I42
sg17
I1
sg14
I1
sg19
g60
sg18
I20
sg21
I1
sa(dp73
g9
I4000
sg4
I5
sg5
I0
sg6
g43
sg3
I0
sg10
I4
sg11
g44
sg13
I25
sg15
I9
sg16
I43
sg17
I0
sg14
I0
sg19
g45
sg18
I8
sg21
I1
sa(dp74
g9
I4000
sg4
I5
sg5
I0
sg6
g43
sg3
I0
sg10
I4
sg11
g44
sg13
I25
sg15
I9
sg16
I44
sg17
I0
sg14
I0
sg19
g45
sg18
I8
sg21
I1
sa(dp75
g9
I4000
sg4
I5
sg5
I0
sg6
g43
sg3
I0
sg10
I4
sg11
g44
sg13
I25
sg15
I9
sg16
I45
sg17
I0
sg14
I0
sg19
g45
sg18
I8
sg21
I1
sa(dp76
g9
I4000
sg4
I5
sg5
I0
sg6
g43
sg3
I0
sg10
I3
sg11
g44
sg13
I25
sg15
I9
sg16
I46
sg17
I0
sg14
I0
sg19
g49
sg18
I8
sg21
I1
sa(dp77
g9
I4000
sg4
I5
sg5
I0
sg6
g43
sg3
I0
sg10
I3
sg11
g44
sg13
I25
sg15
I9
sg16
I47
sg17
I0
sg14
I0
sg19
g49
sg18
I8
sg21
I1
sa(dp78
g9
I300
sg4
I5
sg5
I0
sg6
g52
sg3
I5
sg10
I1
sg11
g44
sg13
I25
sg15
I8
sg16
I48
sg17
I1
sg14
I1
sg19
g60
sg18
I20
sg21
I1
sa(dp79
g9
I4000
sg4
I5
sg5
I0
sg6
g43
sg3
I0
sg10
I4
sg11
g44
sg13
I25
sg15
I9
sg16
I49
sg17
I0
sg14
I0
sg19
g45
sg18
I8
sg21
I1
sa(dp80
g9
I4000
sg4
I5
sg5
I0
sg6
g43
sg3
I0
sg10
I4
sg11
g44
sg13
I25
sg15
I9
sg16
I50
sg17
I0
sg14
I0
sg19
g45
sg18
I8
sg21
I1
sa(dp81
g9
I4000
sg4
I5
sg5
I0
sg6
g43
sg3
I0
sg10
I4
sg11
g44
sg13
I25
sg15
I9
sg16
I51
sg17
I0
sg14
I0
sg19
g45
sg18
I8
sg21
I1
sa(dp82
g9
I4000
sg4
I5
sg5
I0
sg6
g43
sg3
I0
sg10
I3
sg11
g44
sg13
I25
sg15
I9
sg16
I52
sg17
I0
sg14
I0
sg19
g49
sg18
I8
sg21
I1
sa(dp83
g9
I4000
sg4
I5
sg5
I0
sg6
g43
sg3
I0
sg10
I3
sg11
g44
sg13
I25
sg15
I9
sg16
I53
sg17
I0
sg14
I0
sg19
g49
sg18
I8
sg21
I1
sa(dp84
g9
I1000
sg4
I5
sg5
I0
sg6
g52
sg3
I0
sg10
I3
sg11
g44
sg13
I25
sg15
I8
sg16
I54
sg17
I1
sg14
I1
sg19
g49
sg18
I20
sg21
I1
sa(dp85
g9
I1000
sg4
I5
sg5
I0
sg6
g52
sg3
I0
sg10
I3
sg11
g44
sg13
I25
sg15
I8
sg16
I55
sg17
I1
sg14
I1
sg19
g49
sg18
I20
sg21
I1
sa(dp86
g9
I1000
sg4
I5
sg5
I0
sg6
g52
sg3
I5
sg10
I3
sg11
g44
sg13
I25
sg15
I8
sg16
I56
sg17
I1
sg14
I1
sg19
g49
sg18
I20
sg21
I1
sa(dp87
g9
I4000
sg4
I5
sg5
I0
sg6
g43
sg3
I0
sg10
I4
sg11
g44
sg13
I25
sg15
I9
sg16
I57
sg17
I0
sg14
I0
sg19
g45
sg18
I8
sg21
I1
sa(dp88
g9
I4000
sg4
I5
sg5
I0
sg6
g43
sg3
I0
sg10
I4
sg11
g44
sg13
I25
sg15
I9
sg16
I58
sg17
I0
sg14
I0
sg19
g45
sg18
I8
sg21
I1
sa(dp89
g9
I4000
sg4
I5
sg5
I0
sg6
g43
sg3
I0
sg10
I4
sg11
g44
sg13
I25
sg15
I9
sg16
I59
sg17
I0
sg14
I0
sg19
g45
sg18
I8
sg21
I1
sa(dp90
g9
I4000
sg4
I5
sg5
I0
sg6
g43
sg3
I0
sg10
I3
sg11
g44
sg13
I25
sg15
I9
sg16
I60
sg17
I0
sg14
I0
sg19
g49
sg18
I8
sg21
I1
sa(dp91
g9
I4000
sg4
I5
sg5
I0
sg6
g43
sg3
I0
sg10
I3
sg11
g44
sg13
I25
sg15
I9
sg16
I61
sg17
I0
sg14
I0
sg19
g49
sg18
I8
sg21
I1
sa(dp92
g9
I300
sg4
I5
sg5
I0
sg6
g52
sg3
I5
sg10
I2
sg11
g44
sg13
I25
sg15
I8
sg16
I62
sg17
I1
sg14
I1
sg19
S'Cleave solution 2.1'
p93
sg18
I20
sg21
I1
sa(dp94
g9
I4000
sg4
I5
sg5
I0
sg6
g43
sg3
I0
sg10
I4
sg11
g44
sg13
I25
sg15
I9
sg16
I63
sg17
I0
sg14
I0
sg19
g45
sg18
I8
sg21
I1
sa(dp95
g9
I4000
sg4
I5
sg5
I0
sg6
g43
sg3
I0
sg10
I4
sg11
g44
sg13
I25
sg15
I9
sg16
I64
sg17
I0
sg14
I0
sg19
g45
sg18
I8
sg21
I1
sa(dp96
g9
I4000
sg4
I5
sg5
I0
sg6
g43
sg3
I0
sg10
I4
sg11
g44
sg13
I25
sg15
I9
sg16
I65
sg17
I0
sg14
I0
sg19
g45
sg18
I8
sg21
I1
sa(dp97
g9
I4000
sg4
I5
sg5
I0
sg6
g43
sg3
I0
sg10
I3
sg11
g44
sg13
I25
sg15
I9
sg16
I66
sg17
I0
sg14
I0
sg19
g49
sg18
I8
sg21
I1
sa(dp98
g9
I4000
sg4
I5
sg5
I0
sg6
g43
sg3
I0
sg10
I3
sg11
g44
sg13
I25
sg15
I9
sg16
I67
sg17
I0
sg14
I0
sg19
g49
sg18
I8
sg21
I1
sa(dp99
g9
I300
sg4
I5
sg5
I0
sg6
g52
sg3
I5
sg10
I2
sg11
g44
sg13
I25
sg15
I8
sg16
I68
sg17
I1
sg14
I1
sg19
g93
sg18
I20
sg21
I1
sa(dp100
g9
I4000
sg4
I5
sg5
I0
sg6
g43
sg3
I0
sg10
I4
sg11
g44
sg13
I25
sg15
I9
sg16
I69
sg17
I0
sg14
I0
sg19
g45
sg18
I8
sg21
I1
sa(dp101
g9
I4000
sg4
I5
sg5
I0
sg6
g43
sg3
I0
sg10
I4
sg11
g44
sg13
I25
sg15
I9
sg16
I70
sg17
I0
sg14
I0
sg19
g45
sg18
I8
sg21
I1
sa(dp102
g9
I4000
sg4
I5
sg5
I0
sg6
g43
sg3
I0
sg10
I4
sg11
g44
sg13
I25
sg15
I9
sg16
I71
sg17
I0
sg14
I0
sg19
g45
sg18
I8
sg21
I1
sa(dp103
g9
I4000
sg4
I5
sg5
I0
sg6
g43
sg3
I0
sg10
I3
sg11
g44
sg13
I25
sg15
I9
sg16
I72
sg17
I0
sg14
I0
sg19
g49
sg18
I8
sg21
I1
sa(dp104
g9
I4000
sg4
I5
sg5
I0
sg6
g43
sg3
I0
sg10
I3
sg11
g44
sg13
I25
sg15
I9
sg16
I73
sg17
I0
sg14
I0
sg19
g49
sg18
I8
sg21
I1
sa(dp105
g9
I300
sg4
I5
sg5
I0
sg6
g52
sg3
I5
sg10
I2
sg11
g44
sg13
I25
sg15
I8
sg16
I74
sg17
I1
sg14
I1
sg19
g93
sg18
I20
sg21
I1
sa(dp106
g9
I4000
sg4
I5
sg5
I0
sg6
g43
sg3
I0
sg10
I4
sg11
g44
sg13
I25
sg15
I9
sg16
I75
sg17
I0
sg14
I0
sg19
g45
sg18
I8
sg21
I1
sa(dp107
g9
I4000
sg4
I5
sg5
I0
sg6
g43
sg3
I0
sg10
I4
sg11
g44
sg13
I25
sg15
I9
sg16
I76
sg17
I0
sg14
I0
sg19
g45
sg18
I8
sg21
I1
sa(dp108
g9
I4000
sg4
I5
sg5
I0
sg6
g43
sg3
I0
sg10
I4
sg11
g44
sg13
I25
sg15
I9
sg16
I77
sg17
I0
sg14
I0
sg19
g45
sg18
I8
sg21
I1
sa(dp109
g9
I4000
sg4
I5
sg5
I0
sg6
g43
sg3
I0
sg10
I3
sg11
g44
sg13
I25
sg15
I9
sg16
I78
sg17
I0
sg14
I0
sg19
g49
sg18
I8
sg21
I1
sa(dp110
g9
I4000
sg4
I5
sg5
I0
sg6
g43
sg3
I0
sg10
I3
sg11
g44
sg13
I25
sg15
I9
sg16
I79
sg17
I0
sg14
I0
sg19
g49
sg18
I8
sg21
I1
sa(dp111
g9
I300
sg4
I5
sg5
I0
sg6
g52
sg3
I5
sg10
I2
sg11
g44
sg13
I25
sg15
I8
sg16
I80
sg17
I1
sg14
I1
sg19
g93
sg18
I20
sg21
I1
sa(dp112
g9
I4000
sg4
I5
sg5
I0
sg6
g43
sg3
I0
sg10
I4
sg11
g44
sg13
I25
sg15
I9
sg16
I81
sg17
I0
sg14
I0
sg19
g45
sg18
I8
sg21
I1
sa(dp113
g9
I4000
sg4
I5
sg5
I0
sg6
g43
sg3
I0
sg10
I4
sg11
g44
sg13
I25
sg15
I9
sg16
I82
sg17
I0
sg14
I0
sg19
g45
sg18
I8
sg21
I1
sa(dp114
g9
I4000
sg4
I5
sg5
I0
sg6
g43
sg3
I0
sg10
I4
sg11
g44
sg13
I25
sg15
I9
sg16
I83
sg17
I0
sg14
I0
sg19
g45
sg18
I8
sg21
I1
sa(dp115
g9
I4000
sg4
I5
sg5
I0
sg6
g43
sg3
I0
sg10
I3
sg11
g44
sg13
I25
sg15
I9
sg16
I84
sg17
I0
sg14
I0
sg19
g49
sg18
I8
sg21
I1
sa(dp116
g9
I4000
sg4
I5
sg5
I0
sg6
g43
sg3
I0
sg10
I3
sg11
g44
sg13
I25
sg15
I9
sg16
I85
sg17
I0
sg14
I0
sg19
g49
sg18
I8
sg21
I1
sa(dp117
g9
I1000
sg4
I5
sg5
I0
sg6
g52
sg3
I5
sg10
I3
sg11
g44
sg13
I25
sg15
I8
sg16
I86
sg17
I1
sg14
I1
sg19
g49
sg18
I20
sg21
I1
sa(dp118
g9
I1000
sg4
I5
sg5
I0
sg6
g52
sg3
I5
sg10
I3
sg11
g44
sg13
I25
sg15
I8
sg16
I87
sg17
I1
sg14
I1
sg19
g49
sg18
I20
sg21
I1
sa(dp119
g9
I1000
sg4
I5
sg5
I0
sg6
g52
sg3
I5
sg10
I3
sg11
g44
sg13
I25
sg15
I8
sg16
I88
sg17
I1
sg14
I1
sg19
g49
sg18
I20
sg21
I1
sa(dp120
g9
I1000
sg4
I5
sg5
I0
sg6
g7
sg8
I0
sg3
I0
sg10
I8
sg11
g12
sg13
I25
sg15
I9
sg16
I89
sg17
I0
sg14
I0
sg19
g20
sg18
I30
sg21
I1
sa(dp121
g9
I250
sg4
I5
sg5
I0
sg6
g20
sg8
I1
sg3
I0
sg10
I2
sg11
g12
sg13
I25
sg15
I8
sg16
I90
sg17
I0
sg14
I0
sg19
g23
sg18
I16
sg21
I1
sa(dp122
g9
I1000
sg4
I5
sg5
I0
sg6
g7
sg8
I2
sg3
I0
sg10
I3
sg11
g12
sg13
I25
sg15
I9
sg16
I91
sg17
I0
sg14
I0
sg19
g25
sg18
I8
sg21
I1
sa(dp123
g9
I1000
sg4
I5
sg5
I0
sg6
g7
sg8
I3
sg3
I0
sg10
I3
sg11
g12
sg13
I25
sg15
I9
sg16
I92
sg17
I0
sg14
I0
sg19
g25
sg18
I8
sg21
I1
sa(dp124
g9
I1000
sg4
I5
sg5
I0
sg6
g7
sg8
I4
sg3
I0
sg10
I3
sg11
g12
sg13
I25
sg15
I9
sg16
I93
sg17
I0
sg14
I0
sg19
g25
sg18
I8
sg21
I1
sa(dp125
g9
I1000
sg4
I5
sg5
I0
sg6
g7
sg8
I5
sg3
I45
sg10
I3
sg11
g12
sg13
I25
sg15
I9
sg16
I94
sg17
I0
sg14
I0
sg19
g25
sg18
I8
sg21
I1
sa(dp126
g9
I350
sg4
I5
sg5
I0
sg6
g7
sg8
I6
sg3
I0
sg10
I8
sg11
g12
sg13
I25
sg15
I9
sg16
I95
sg17
I0
sg14
I0
sg19
g20
sg18
I30
sg21
I1
sa(dp127
g9
I1000
sg4
I5
sg5
I0
sg6
g7
sg8
I7
sg3
I0
sg10
I3
sg11
g12
sg13
I25
sg15
I9
sg16
I96
sg17
I0
sg14
I0
sg19
g25
sg18
I8
sg21
I1
sa(dp128
g9
I1000
sg4
I5
sg5
I0
sg6
g7
sg8
I8
sg3
I0
sg10
I3
sg11
g12
sg13
I25
sg15
I9
sg16
I97
sg17
I0
sg14
I0
sg19
g25
sg18
I8
sg21
I1
sa(dp129
g9
I1000
sg4
I5
sg5
I0
sg6
g7
sg8
I9
sg3
I0
sg10
I3
sg11
g12
sg13
I25
sg15
I9
sg16
I98
sg17
I0
sg14
I0
sg19
g25
sg18
I8
sg21
I1
sa(dp130
g9
I1000
sg4
I5
sg5
I0
sg6
g7
sg8
I10
sg3
I0
sg10
I3
sg11
g12
sg13
I25
sg15
I9
sg16
I99
sg17
I0
sg14
I0
sg19
g25
sg18
I8
sg21
I1
sa(dp131
g9
I250
sg4
I5
sg5
I0
sg6
g20
sg8
I11
sg3
I0
sg10
I3
sg11
g12
sg13
I25
sg15
I8
sg16
I100
sg17
I1
sg14
I1
sg19
g25
sg18
I16
sg21
I1
sa(dp132
g9
I250
sg4
I5
sg5
I0
sg6
g20
sg8
I12
sg3
I0
sg10
I3
sg11
g12
sg13
I25
sg15
I8
sg16
I101
sg17
I1
sg14
I1
sg19
g25
sg18
I16
sg21
I1
sa(dp133
g9
I1000
sg4
I5
sg5
I0
sg6
g20
sg8
I13
sg3
I5
sg10
I3
sg11
g12
sg13
I25
sg15
I8
sg16
I102
sg17
I1
sg14
I1
sg19
g25
sg18
I16
sg21
I1
sa(dp134
g9
I1000
sg4
I5
sg5
I0
sg6
g20
sg8
I14
sg3
I5
sg10
I3
sg11
g12
sg13
I25
sg15
I8
sg16
I103
sg17
I1
sg14
I1
sg19
g25
sg18
I16
sg21
I1
sa(dp135
g9
I1000
sg4
I5
sg5
I0
sg6
g20
sg8
I15
sg3
I5
sg10
I3
sg11
g12
sg13
I25
sg15
I8
sg16
I104
sg17
I1
sg14
I1
sg19
g25
sg18
I16
sg21
I1
sa(dp136
g9
I1000
sg4
I5
sg5
I0
sg6
g20
sg8
I16
sg3
I5
sg10
I3
sg11
g12
sg13
I25
sg15
I8
sg16
I105
sg17
I1
sg14
I1
sg19
g25
sg18
I16
sg21
I1
sa(dp137
g9
I750
sg4
I5
sg5
I0
sg6
g20
sg8
I17
sg3
I0
sg10
I4
sg11
g12
sg13
I25
sg15
I8
sg16
I106
sg17
I0
sg14
I0
sg19
g41
sg18
I16
sg21
I1
sa(dp138
g9
I4000
sg4
I5
sg5
I0
sg6
g43
sg3
I0
sg10
I4
sg11
g44
sg13
I25
sg15
I9
sg16
I107
sg17
I0
sg14
I0
sg19
g45
sg18
I8
sg21
I2
sa(dp139
g9
I4000
sg4
I5
sg5
I0
sg6
g43
sg3
I0
sg10
I4
sg11
g44
sg13
I25
sg15
I9
sg16
I108
sg17
I0
sg14
I0
sg19
g45
sg18
I8
sg21
I2
sa(dp140
g9
I4000
sg4
I5
sg5
I0
sg6
g43
sg3
I0
sg10
I4
sg11
g44
sg13
I25
sg15
I9
sg16
I109
sg17
I0
sg14
I0
sg19
g45
sg18
I8
sg21
I2
sa(dp141
g9
I4000
sg4
I5
sg5
I0
sg6
g43
sg3
I0
sg10
I3
sg11
g44
sg13
I25
sg15
I9
sg16
I110
sg17
I0
sg14
I0
sg19
g49
sg18
I8
sg21
I2
sa(dp142
g9
I4000
sg4
I5
sg5
I0
sg6
g43
sg3
I0
sg10
I3
sg11
g44
sg13
I25
sg15
I9
sg16
I111
sg17
I0
sg14
I0
sg19
g49
sg18
I8
sg21
I2
sa(dp143
g9
I1000
sg4
I5
sg5
I0
sg6
g43
sg3
I0
sg10
I8
sg11
g44
sg13
I25
sg15
I9
sg16
I112
sg17
I0
sg14
I0
sg19
g52
sg18
I36
sg21
I2
sa(dp144
g9
I1000
sg4
I5
sg5
I0
sg6
g43
sg3
I0
sg10
I8
sg11
g44
sg13
I25
sg15
I9
sg16
I113
sg17
I0
sg14
I0
sg19
g52
sg18
I36
sg21
I2
sa(dp145
g9
I4000
sg4
I5
sg5
I0
sg6
g43
sg3
I0
sg10
I4
sg11
g44
sg13
I25
sg15
I9
sg16
I114
sg17
I0
sg14
I0
sg19
g45
sg18
I8
sg21
I2
sa(dp146
g9
I4000
sg4
I5
sg5
I0
sg6
g43
sg3
I0
sg10
I4
sg11
g44
sg13
I25
sg15
I9
sg16
I115
sg17
I0
sg14
I0
sg19
g45
sg18
I8
sg21
I2
sa(dp147
g9
I4000
sg4
I5
sg5
I0
sg6
g43
sg3
I0
sg10
I4
sg11
g44
sg13
I25
sg15
I9
sg16
I116
sg17
I0
sg14
I0
sg19
g45
sg18
I8
sg21
I2
sa(dp148
g9
I4000
sg4
I5
sg5
I0
sg6
g43
sg3
I0
sg10
I3
sg11
g44
sg13
I25
sg15
I9
sg16
I117
sg17
I0
sg14
I0
sg19
g49
sg18
I8
sg21
I2
sa(dp149
g9
I4000
sg4
I5
sg5
I0
sg6
g43
sg3
I0
sg10
I3
sg11
g44
sg13
I25
sg15
I9
sg16
I118
sg17
I0
sg14
I0
sg19
g49
sg18
I8
sg21
I2
sa(dp150
g9
I300
sg4
I5
sg5
I0
sg6
g52
sg3
I5
sg10
I1
sg11
g44
sg13
I25
sg15
I8
sg16
I119
sg17
I1
sg14
I1
sg19
g60
sg18
I20
sg21
I2
sa(dp151
g9
I4000
sg4
I5
sg5
I0
sg6
g43
sg3
I0
sg10
I4
sg11
g44
sg13
I25
sg15
I9
sg16
I120
sg17
I0
sg14
I0
sg19
g45
sg18
I8
sg21
I2
sa(dp152
g9
I4000
sg4
I5
sg5
I0
sg6
g43
sg3
I0
sg10
I4
sg11
g44
sg13
I25
sg15
I9
sg16
I121
sg17
I0
sg14
I0
sg19
g45
sg18
I8
sg21
I2
sa(dp153
g9
I4000
sg4
I5
sg5
I0
sg6
g43
sg3
I0
sg10
I4
sg11
g44
sg13
I25
sg15
I9
sg16
I122
sg17
I0
sg14
I0
sg19
g45
sg18
I8
sg21
I2
sa(dp154
g9
I4000
sg4
I5
sg5
I0
sg6
g43
sg3
I0
sg10
I3
sg11
g44
sg13
I25
sg15
I9
sg16
I123
sg17
I0
sg14
I0
sg19
g49
sg18
I8
sg21
I2
sa(dp155
g9
I4000
sg4
I5
sg5
I0
sg6
g43
sg3
I0
sg10
I3
sg11
g44
sg13
I25
sg15
I9
sg16
I124
sg17
I0
sg14
I0
sg19
g49
sg18
I8
sg21
I2
sa(dp156
g9
I300
sg4
I5
sg5
I0
sg6
g52
sg3
I5
sg10
I1
sg11
g44
sg13
I25
sg15
I8
sg16
I125
sg17
I1
sg14
I1
sg19
g60
sg18
I20
sg21
I2
sa(dp157
g9
I4000
sg4
I5
sg5
I0
sg6
g43
sg3
I0
sg10
I4
sg11
g44
sg13
I25
sg15
I9
sg16
I126
sg17
I0
sg14
I0
sg19
g45
sg18
I8
sg21
I2
sa(dp158
g9
I4000
sg4
I5
sg5
I0
sg6
g43
sg3
I0
sg10
I4
sg11
g44
sg13
I25
sg15
I9
sg16
I127
sg17
I0
sg14
I0
sg19
g45
sg18
I8
sg21
I2
sa(dp159
g9
I4000
sg4
I5
sg5
I0
sg6
g43
sg3
I0
sg10
I4
sg11
g44
sg13
I25
sg15
I9
sg16
I128
sg17
I0
sg14
I0
sg19
g45
sg18
I8
sg21
I2
sa(dp160
g9
I4000
sg4
I5
sg5
I0
sg6
g43
sg3
I0
sg10
I3
sg11
g44
sg13
I25
sg15
I9
sg16
I129
sg17
I0
sg14
I0
sg19
g49
sg18
I8
sg21
I2
sa(dp161
g9
I4000
sg4
I5
sg5
I0
sg6
g43
sg3
I0
sg10
I3
sg11
g44
sg13
I25
sg15
I9
sg16
I130
sg17
I0
sg14
I0
sg19
g49
sg18
I8
sg21
I2
sa(dp162
g9
I300
sg4
I5
sg5
I0
sg6
g52
sg3
I5
sg10
I1
sg11
g44
sg13
I25
sg15
I8
sg16
I131
sg17
I1
sg14
I1
sg19
g60
sg18
I20
sg21
I2
sa(dp163
g9
I4000
sg4
I5
sg5
I0
sg6
g43
sg3
I0
sg10
I4
sg11
g44
sg13
I25
sg15
I9
sg16
I132
sg17
I0
sg14
I0
sg19
g45
sg18
I8
sg21
I2
sa(dp164
g9
I4000
sg4
I5
sg5
I0
sg6
g43
sg3
I0
sg10
I4
sg11
g44
sg13
I25
sg15
I9
sg16
I133
sg17
I0
sg14
I0
sg19
g45
sg18
I8
sg21
I2
sa(dp165
g9
I4000
sg4
I5
sg5
I0
sg6
g43
sg3
I0
sg10
I4
sg11
g44
sg13
I25
sg15
I9
sg16
I134
sg17
I0
sg14
I0
sg19
g45
sg18
I8
sg21
I2
sa(dp166
g9
I4000
sg4
I5
sg5
I0
sg6
g43
sg3
I0
sg10
I3
sg11
g44
sg13
I25
sg15
I9
sg16
I135
sg17
I0
sg14
I0
sg19
g49
sg18
I8
sg21
I2
sa(dp167
g9
I4000
sg4
I5
sg5
I0
sg6
g43
sg3
I0
sg10
I3
sg11
g44
sg13
I25
sg15
I9
sg16
I136
sg17
I0
sg14
I0
sg19
g49
sg18
I8
sg21
I2
sa(dp168
g9
I300
sg4
I5
sg5
I0
sg6
g52
sg3
I5
sg10
I1
sg11
g44
sg13
I25
sg15
I8
sg16
I137
sg17
I1
sg14
I1
sg19
g60
sg18
I20
sg21
I2
sa(dp169
g9
I4000
sg4
I5
sg5
I0
sg6
g43
sg3
I0
sg10
I4
sg11
g44
sg13
I25
sg15
I9
sg16
I138
sg17
I0
sg14
I0
sg19
g45
sg18
I8
sg21
I2
sa(dp170
g9
I4000
sg4
I5
sg5
I0
sg6
g43
sg3
I0
sg10
I4
sg11
g44
sg13
I25
sg15
I9
sg16
I139
sg17
I0
sg14
I0
sg19
g45
sg18
I8
sg21
I2
sa(dp171
g9
I4000
sg4
I5
sg5
I0
sg6
g43
sg3
I0
sg10
I4
sg11
g44
sg13
I25
sg15
I9
sg16
I140
sg17
I0
sg14
I0
sg19
g45
sg18
I8
sg21
I2
sa(dp172
g9
I4000
sg4
I5
sg5
I0
sg6
g43
sg3
I0
sg10
I3
sg11
g44
sg13
I25
sg15
I9
sg16
I141
sg17
I0
sg14
I0
sg19
g49
sg18
I8
sg21
I2
sa(dp173
g9
I4000
sg4
I5
sg5
I0
sg6
g43
sg3
I0
sg10
I3
sg11
g44
sg13
I25
sg15
I9
sg16
I142
sg17
I0
sg14
I0
sg19
g49
sg18
I8
sg21
I2
sa(dp174
g9
I1000
sg4
I5
sg5
I0
sg6
g52
sg3
I0
sg10
I3
sg11
g44
sg13
I25
sg15
I8
sg16
I143
sg17
I1
sg14
I1
sg19
g49
sg18
I20
sg21
I2
sa(dp175
g9
I1000
sg4
I5
sg5
I0
sg6
g52
sg3
I0
sg10
I3
sg11
g44
sg13
I25
sg15
I8
sg16
I144
sg17
I1
sg14
I1
sg19
g49
sg18
I20
sg21
I2
sa(dp176
g9
I1000
sg4
I5
sg5
I0
sg6
g52
sg3
I5
sg10
I3
sg11
g44
sg13
I25
sg15
I8
sg16
I145
sg17
I1
sg14
I1
sg19
g49
sg18
I20
sg21
I2
sa(dp177
g9
I4000
sg4
I5
sg5
I0
sg6
g43
sg3
I0
sg10
I4
sg11
g44
sg13
I25
sg15
I9
sg16
I146
sg17
I0
sg14
I0
sg19
g45
sg18
I8
sg21
I2
sa(dp178
g9
I4000
sg4
I5
sg5
I0
sg6
g43
sg3
I0
sg10
I4
sg11
g44
sg13
I25
sg15
I9
sg16
I147
sg17
I0
sg14
I0
sg19
g45
sg18
I8
sg21
I2
sa(dp179
g9
I4000
sg4
I5
sg5
I0
sg6
g43
sg3
I0
sg10
I4
sg11
g44
sg13
I25
sg15
I9
sg16
I148
sg17
I0
sg14
I0
sg19
g45
sg18
I8
sg21
I2
sa(dp180
g9
I4000
sg4
I5
sg5
I0
sg6
g43
sg3
I0
sg10
I3
sg11
g44
sg13
I25
sg15
I9
sg16
I149
sg17
I0
sg14
I0
sg19
g49
sg18
I8
sg21
I2
sa(dp181
g9
I4000
sg4
I5
sg5
I0
sg6
g43
sg3
I0
sg10
I3
sg11
g44
sg13
I25
sg15
I9
sg16
I150
sg17
I0
sg14
I0
sg19
g49
sg18
I8
sg21
I2
sa(dp182
g9
I300
sg4
I5
sg5
I0
sg6
g52
sg3
I5
sg10
I2
sg11
g44
sg13
I25
sg15
I8
sg16
I151
sg17
I1
sg14
I1
sg19
g93
sg18
I20
sg21
I2
sa(dp183
g9
I4000
sg4
I5
sg5
I0
sg6
g43
sg3
I0
sg10
I4
sg11
g44
sg13
I25
sg15
I9
sg16
I152
sg17
I0
sg14
I0
sg19
g45
sg18
I8
sg21
I2
sa(dp184
g9
I4000
sg4
I5
sg5
I0
sg6
g43
sg3
I0
sg10
I4
sg11
g44
sg13
I25
sg15
I9
sg16
I153
sg17
I0
sg14
I0
sg19
g45
sg18
I8
sg21
I2
sa(dp185
g9
I4000
sg4
I5
sg5
I0
sg6
g43
sg3
I0
sg10
I4
sg11
g44
sg13
I25
sg15
I9
sg16
I154
sg17
I0
sg14
I0
sg19
g45
sg18
I8
sg21
I2
sa(dp186
g9
I4000
sg4
I5
sg5
I0
sg6
g43
sg3
I0
sg10
I3
sg11
g44
sg13
I25
sg15
I9
sg16
I155
sg17
I0
sg14
I0
sg19
g49
sg18
I8
sg21
I2
sa(dp187
g9
I4000
sg4
I5
sg5
I0
sg6
g43
sg3
I0
sg10
I3
sg11
g44
sg13
I25
sg15
I9
sg16
I156
sg17
I0
sg14
I0
sg19
g49
sg18
I8
sg21
I2
sa(dp188
g9
I300
sg4
I5
sg5
I0
sg6
g52
sg3
I5
sg10
I2
sg11
g44
sg13
I25
sg15
I8
sg16
I157
sg17
I1
sg14
I1
sg19
g93
sg18
I20
sg21
I2
sa(dp189
g9
I4000
sg4
I5
sg5
I0
sg6
g43
sg3
I0
sg10
I4
sg11
g44
sg13
I25
sg15
I9
sg16
I158
sg17
I0
sg14
I0
sg19
g45
sg18
I8
sg21
I2
sa(dp190
g9
I4000
sg4
I5
sg5
I0
sg6
g43
sg3
I0
sg10
I4
sg11
g44
sg13
I25
sg15
I9
sg16
I159
sg17
I0
sg14
I0
sg19
g45
sg18
I8
sg21
I2
sa(dp191
g9
I4000
sg4
I5
sg5
I0
sg6
g43
sg3
I0
sg10
I4
sg11
g44
sg13
I25
sg15
I9
sg16
I160
sg17
I0
sg14
I0
sg19
g45
sg18
I8
sg21
I2
sa(dp192
g9
I4000
sg4
I5
sg5
I0
sg6
g43
sg3
I0
sg10
I3
sg11
g44
sg13
I25
sg15
I9
sg16
I161
sg17
I0
sg14
I0
sg19
g49
sg18
I8
sg21
I2
sa(dp193
g9
I4000
sg4
I5
sg5
I0
sg6
g43
sg3
I0
sg10
I3
sg11
g44
sg13
I25
sg15
I9
sg16
I162
sg17
I0
sg14
I0
sg19
g49
sg18
I8
sg21
I2
sa(dp194
g9
I300
sg4
I5
sg5
I0
sg6
g52
sg3
I5
sg10
I2
sg11
g44
sg13
I25
sg15
I8
sg16
I163
sg17
I1
sg14
I1
sg19
g93
sg18
I20
sg21
I2
sa(dp195
g9
I4000
sg4
I5
sg5
I0
sg6
g43
sg3
I0
sg10
I4
sg11
g44
sg13
I25
sg15
I9
sg16
I164
sg17
I0
sg14
I0
sg19
g45
sg18
I8
sg21
I2
sa(dp196
g9
I4000
sg4
I5
sg5
I0
sg6
g43
sg3
I0
sg10
I4
sg11
g44
sg13
I25
sg15
I9
sg16
I165
sg17
I0
sg14
I0
sg19
g45
sg18
I8
sg21
I2
sa(dp197
g9
I4000
sg4
I5
sg5
I0
sg6
g43
sg3
I0
sg10
I4
sg11
g44
sg13
I25
sg15
I9
sg16
I166
sg17
I0
sg14
I0
sg19
g45
sg18
I8
sg21
I2
sa(dp198
g9
I4000
sg4
I5
sg5
I0
sg6
g43
sg3
I0
sg10
I3
sg11
g44
sg13
I25
sg15
I9
sg16
I167
sg17
I0
sg14
I0
sg19
g49
sg18
I8
sg21
I2
sa(dp199
g9
I4000
sg4
I5
sg5
I0
sg6
g43
sg3
I0
sg10
I3
sg11
g44
sg13
I25
sg15
I9
sg16
I168
sg17
I0
sg14
I0
sg19
g49
sg18
I8
sg21
I2
sa(dp200
g9
I300
sg4
I5
sg5
I0
sg6
g52
sg3
I5
sg10
I2
sg11
g44
sg13
I25
sg15
I8
sg16
I169
sg17
I1
sg14
I1
sg19
g93
sg18
I20
sg21
I2
sa(dp201
g9
I4000
sg4
I5
sg5
I0
sg6
g43
sg3
I0
sg10
I4
sg11
g44
sg13
I25
sg15
I9
sg16
I170
sg17
I0
sg14
I0
sg19
g45
sg18
I8
sg21
I2
sa(dp202
g9
I4000
sg4
I5
sg5
I0
sg6
g43
sg3
I0
sg10
I4
sg11
g44
sg13
I25
sg15
I9
sg16
I171
sg17
I0
sg14
I0
sg19
g45
sg18
I8
sg21
I2
sa(dp203
g9
I4000
sg4
I5
sg5
I0
sg6
g43
sg3
I0
sg10
I4
sg11
g44
sg13
I25
sg15
I9
sg16
I172
sg17
I0
sg14
I0
sg19
g45
sg18
I8
sg21
I2
sa(dp204
g9
I4000
sg4
I5
sg5
I0
sg6
g43
sg3
I0
sg10
I3
sg11
g44
sg13
I25
sg15
I9
sg16
I173
sg17
I0
sg14
I0
sg19
g49
sg18
I8
sg21
I2
sa(dp205
g9
I4000
sg4
I5
sg5
I0
sg6
g43
sg3
I0
sg10
I3
sg11
g44
sg13
I25
sg15
I9
sg16
I174
sg17
I0
sg14
I0
sg19
g49
sg18
I8
sg21
I2
sa(dp206
g9
I1000
sg4
I5
sg5
I0
sg6
g52
sg3
I5
sg10
I3
sg11
g44
sg13
I25
sg15
I8
sg16
I175
sg17
I1
sg14
I1
sg19
g49
sg18
I20
sg21
I2
sa(dp207
g9
I1000
sg4
I5
sg5
I0
sg6
g52
sg3
I5
sg10
I3
sg11
g44
sg13
I25
sg15
I8
sg16
I176
sg17
I1
sg14
I1
sg19
g49
sg18
I20
sg21
I2
sa(dp208
g9
I1000
sg4
I5
sg5
I0
sg6
g52
sg3
I5
sg10
I3
sg11
g44
sg13
I25
sg15
I8
sg16
I177
sg17
I1
sg14
I1
sg19
g49
sg18
I20
sg21
I2
sa(dp209
g9
I1000
sg4
I5
sg5
I0
sg6
g7
sg8
I0
sg3
I0
sg10
I8
sg11
g12
sg13
I25
sg15
I9
sg16
I178
sg17
I0
sg14
I0
sg19
g20
sg18
I30
sg21
I2
sa(dp210
g9
I250
sg4
I5
sg5
I0
sg6
g20
sg8
I1
sg3
I0
sg10
I2
sg11
g12
sg13
I25
sg15
I8
sg16
I179
sg17
I0
sg14
I0
sg19
g23
sg18
I16
sg21
I2
sa(dp211
g9
I1000
sg4
I5
sg5
I0
sg6
g7
sg8
I2
sg3
I0
sg10
I3
sg11
g12
sg13
I25
sg15
I9
sg16
I180
sg17
I0
sg14
I0
sg19
g25
sg18
I8
sg21
I2
sa(dp212
g9
I1000
sg4
I5
sg5
I0
sg6
g7
sg8
I3
sg3
I0
sg10
I3
sg11
g12
sg13
I25
sg15
I9
sg16
I181
sg17
I0
sg14
I0
sg19
g25
sg18
I8
sg21
I2
sa(dp213
g9
I1000
sg4
I5
sg5
I0
sg6
g7
sg8
I4
sg3
I0
sg10
I3
sg11
g12
sg13
I25
sg15
I9
sg16
I182
sg17
I0
sg14
I0
sg19
g25
sg18
I8
sg21
I2
sa(dp214
g9
I1000
sg4
I5
sg5
I0
sg6
g7
sg8
I5
sg3
I45
sg10
I3
sg11
g12
sg13
I25
sg15
I9
sg16
I183
sg17
I0
sg14
I0
sg19
g25
sg18
I8
sg21
I2
sa(dp215
g9
I350
sg4
I5
sg5
I0
sg6
g7
sg8
I6
sg3
I0
sg10
I8
sg11
g12
sg13
I25
sg15
I9
sg16
I184
sg17
I0
sg14
I0
sg19
g20
sg18
I30
sg21
I2
sa(dp216
g9
I1000
sg4
I5
sg5
I0
sg6
g7
sg8
I7
sg3
I0
sg10
I3
sg11
g12
sg13
I25
sg15
I9
sg16
I185
sg17
I0
sg14
I0
sg19
g25
sg18
I8
sg21
I2
sa(dp217
g9
I1000
sg4
I5
sg5
I0
sg6
g7
sg8
I8
sg3
I0
sg10
I3
sg11
g12
sg13
I25
sg15
I9
sg16
I186
sg17
I0
sg14
I0
sg19
g25
sg18
I8
sg21
I2
sa(dp218
g9
I1000
sg4
I5
sg5
I0
sg6
g7
sg8
I9
sg3
I0
sg10
I3
sg11
g12
sg13
I25
sg15
I9
sg16
I187
sg17
I0
sg14
I0
sg19
g25
sg18
I8
sg21
I2
sa(dp219
g9
I1000
sg4
I5
sg5
I0
sg6
g7
sg8
I10
sg3
I0
sg10
I3
sg11
g12
sg13
I25
sg15
I9
sg16
I188
sg17
I0
sg14
I0
sg19
g25
sg18
I8
sg21
I2
sa(dp220
g9
I250
sg4
I5
sg5
I0
sg6
g20
sg8
I11
sg3
I0
sg10
I3
sg11
g12
sg13
I25
sg15
I8
sg16
I189
sg17
I1
sg14
I1
sg19
g25
sg18
I16
sg21
I2
sa(dp221
g9
I250
sg4
I5
sg5
I0
sg6
g20
sg8
I12
sg3
I0
sg10
I3
sg11
g12
sg13
I25
sg15
I8
sg16
I190
sg17
I1
sg14
I1
sg19
g25
sg18
I16
sg21
I2
sa(dp222
g9
I1000
sg4
I5
sg5
I0
sg6
g20
sg8
I13
sg3
I5
sg10
I3
sg11
g12
sg13
I25
sg15
I8
sg16
I191
sg17
I1
sg14
I1
sg19
g25
sg18
I16
sg21
I2
sa(dp223
g9
I1000
sg4
I5
sg5
I0
sg6
g20
sg8
I14
sg3
I5
sg10
I3
sg11
g12
sg13
I25
sg15
I8
sg16
I192
sg17
I1
sg14
I1
sg19
g25
sg18
I16
sg21
I2
sa(dp224
g9
I1000
sg4
I5
sg5
I0
sg6
g20
sg8
I15
sg3
I5
sg10
I3
sg11
g12
sg13
I25
sg15
I8
sg16
I193
sg17
I1
sg14
I1
sg19
g25
sg18
I16
sg21
I2
sa(dp225
g9
I1000
sg4
I5
sg5
I0
sg6
g20
sg8
I16
sg3
I5
sg10
I3
sg11
g12
sg13
I25
sg15
I8
sg16
I194
sg17
I1
sg14
I1
sg19
g25
sg18
I16
sg21
I2
sa(dp226
g9
I750
sg4
I5
sg5
I0
sg6
g20
sg8
I17
sg3
I0
sg10
I4
sg11
g12
sg13
I25
sg15
I8
sg16
I195
sg17
I0
sg14
I0
sg19
g41
sg18
I16
sg21
I2
sa(dp227
g9
I4000
sg4
I5
sg5
I0
sg6
g43
sg3
I0
sg10
I4
sg11
g44
sg13
I25
sg15
I9
sg16
I196
sg17
I0
sg14
I0
sg19
g45
sg18
I8
sg21
I3
sa(dp228
g9
I4000
sg4
I5
sg5
I0
sg6
g43
sg3
I0
sg10
I4
sg11
g44
sg13
I25
sg15
I9
sg16
I197
sg17
I0
sg14
I0
sg19
g45
sg18
I8
sg21
I3
sa(dp229
g9
I4000
sg4
I5
sg5
I0
sg6
g43
sg3
I0
sg10
I4
sg11
g44
sg13
I25
sg15
I9
sg16
I198
sg17
I0
sg14
I0
sg19
g45
sg18
I8
sg21
I3
sa(dp230
g9
I4000
sg4
I5
sg5
I0
sg6
g43
sg3
I0
sg10
I3
sg11
g44
sg13
I25
sg15
I9
sg16
I199
sg17
I0
sg14
I0
sg19
g49
sg18
I8
sg21
I3
sa(dp231
g9
I4000
sg4
I5
sg5
I0
sg6
g43
sg3
I0
sg10
I3
sg11
g44
sg13
I25
sg15
I9
sg16
I200
sg17
I0
sg14
I0
sg19
g49
sg18
I8
sg21
I3
sa(dp232
g9
I1000
sg4
I5
sg5
I0
sg6
g43
sg3
I0
sg10
I8
sg11
g44
sg13
I25
sg15
I9
sg16
I201
sg17
I0
sg14
I0
sg19
g52
sg18
I36
sg21
I3
sa(dp233
g9
I1000
sg4
I5
sg5
I0
sg6
g43
sg3
I0
sg10
I8
sg11
g44
sg13
I25
sg15
I9
sg16
I202
sg17
I0
sg14
I0
sg19
g52
sg18
I36
sg21
I3
sa(dp234
g9
I4000
sg4
I5
sg5
I0
sg6
g43
sg3
I0
sg10
I4
sg11
g44
sg13
I25
sg15
I9
sg16
I203
sg17
I0
sg14
I0
sg19
g45
sg18
I8
sg21
I3
sa(dp235
g9
I4000
sg4
I5
sg5
I0
sg6
g43
sg3
I0
sg10
I4
sg11
g44
sg13
I25
sg15
I9
sg16
I204
sg17
I0
sg14
I0
sg19
g45
sg18
I8
sg21
I3
sa(dp236
g9
I4000
sg4
I5
sg5
I0
sg6
g43
sg3
I0
sg10
I4
sg11
g44
sg13
I25
sg15
I9
sg16
I205
sg17
I0
sg14
I0
sg19
g45
sg18
I8
sg21
I3
sa(dp237
g9
I4000
sg4
I5
sg5
I0
sg6
g43
sg3
I0
sg10
I3
sg11
g44
sg13
I25
sg15
I9
sg16
I206
sg17
I0
sg14
I0
sg19
g49
sg18
I8
sg21
I3
sa(dp238
g9
I4000
sg4
I5
sg5
I0
sg6
g43
sg3
I0
sg10
I3
sg11
g44
sg13
I25
sg15
I9
sg16
I207
sg17
I0
sg14
I0
sg19
g49
sg18
I8
sg21
I3
sa(dp239
g9
I300
sg4
I5
sg5
I0
sg6
g52
sg3
I5
sg10
I1
sg11
g44
sg13
I25
sg15
I8
sg16
I208
sg17
I1
sg14
I1
sg19
g60
sg18
I20
sg21
I3
sa(dp240
g9
I4000
sg4
I5
sg5
I0
sg6
g43
sg3
I0
sg10
I4
sg11
g44
sg13
I25
sg15
I9
sg16
I209
sg17
I0
sg14
I0
sg19
g45
sg18
I8
sg21
I3
sa(dp241
g9
I4000
sg4
I5
sg5
I0
sg6
g43
sg3
I0
sg10
I4
sg11
g44
sg13
I25
sg15
I9
sg16
I210
sg17
I0
sg14
I0
sg19
g45
sg18
I8
sg21
I3
sa(dp242
g9
I4000
sg4
I5
sg5
I0
sg6
g43
sg3
I0
sg10
I4
sg11
g44
sg13
I25
sg15
I9
sg16
I211
sg17
I0
sg14
I0
sg19
g45
sg18
I8
sg21
I3
sa(dp243
g9
I4000
sg4
I5
sg5
I0
sg6
g43
sg3
I0
sg10
I3
sg11
g44
sg13
I25
sg15
I9
sg16
I212
sg17
I0
sg14
I0
sg19
g49
sg18
I8
sg21
I3
sa(dp244
g9
I4000
sg4
I5
sg5
I0
sg6
g43
sg3
I0
sg10
I3
sg11
g44
sg13
I25
sg15
I9
sg16
I213
sg17
I0
sg14
I0
sg19
g49
sg18
I8
sg21
I3
sa(dp245
g9
I300
sg4
I5
sg5
I0
sg6
g52
sg3
I5
sg10
I1
sg11
g44
sg13
I25
sg15
I8
sg16
I214
sg17
I1
sg14
I1
sg19
g60
sg18
I20
sg21
I3
sa(dp246
g9
I4000
sg4
I5
sg5
I0
sg6
g43
sg3
I0
sg10
I4
sg11
g44
sg13
I25
sg15
I9
sg16
I215
sg17
I0
sg14
I0
sg19
g45
sg18
I8
sg21
I3
sa(dp247
g9
I4000
sg4
I5
sg5
I0
sg6
g43
sg3
I0
sg10
I4
sg11
g44
sg13
I25
sg15
I9
sg16
I216
sg17
I0
sg14
I0
sg19
g45
sg18
I8
sg21
I3
sa(dp248
g9
I4000
sg4
I5
sg5
I0
sg6
g43
sg3
I0
sg10
I4
sg11
g44
sg13
I25
sg15
I9
sg16
I217
sg17
I0
sg14
I0
sg19
g45
sg18
I8
sg21
I3
sa(dp249
g9
I4000
sg4
I5
sg5
I0
sg6
g43
sg3
I0
sg10
I3
sg11
g44
sg13
I25
sg15
I9
sg16
I218
sg17
I0
sg14
I0
sg19
g49
sg18
I8
sg21
I3
sa(dp250
g9
I4000
sg4
I5
sg5
I0
sg6
g43
sg3
I0
sg10
I3
sg11
g44
sg13
I25
sg15
I9
sg16
I219
sg17
I0
sg14
I0
sg19
g49
sg18
I8
sg21
I3
sa(dp251
g9
I300
sg4
I5
sg5
I0
sg6
g52
sg3
I5
sg10
I1
sg11
g44
sg13
I25
sg15
I8
sg16
I220
sg17
I1
sg14
I1
sg19
g60
sg18
I20
sg21
I3
sa(dp252
g9
I4000
sg4
I5
sg5
I0
sg6
g43
sg3
I0
sg10
I4
sg11
g44
sg13
I25
sg15
I9
sg16
I221
sg17
I0
sg14
I0
sg19
g45
sg18
I8
sg21
I3
sa(dp253
g9
I4000
sg4
I5
sg5
I0
sg6
g43
sg3
I0
sg10
I4
sg11
g44
sg13
I25
sg15
I9
sg16
I222
sg17
I0
sg14
I0
sg19
g45
sg18
I8
sg21
I3
sa(dp254
g9
I4000
sg4
I5
sg5
I0
sg6
g43
sg3
I0
sg10
I4
sg11
g44
sg13
I25
sg15
I9
sg16
I223
sg17
I0
sg14
I0
sg19
g45
sg18
I8
sg21
I3
sa(dp255
g9
I4000
sg4
I5
sg5
I0
sg6
g43
sg3
I0
sg10
I3
sg11
g44
sg13
I25
sg15
I9
sg16
I224
sg17
I0
sg14
I0
sg19
g49
sg18
I8
sg21
I3
sa(dp256
g9
I4000
sg4
I5
sg5
I0
sg6
g43
sg3
I0
sg10
I3
sg11
g44
sg13
I25
sg15
I9
sg16
I225
sg17
I0
sg14
I0
sg19
g49
sg18
I8
sg21
I3
sa(dp257
g9
I300
sg4
I5
sg5
I0
sg6
g52
sg3
I5
sg10
I1
sg11
g44
sg13
I25
sg15
I8
sg16
I226
sg17
I1
sg14
I1
sg19
g60
sg18
I20
sg21
I3
sa(dp258
g9
I4000
sg4
I5
sg5
I0
sg6
g43
sg3
I0
sg10
I4
sg11
g44
sg13
I25
sg15
I9
sg16
I227
sg17
I0
sg14
I0
sg19
g45
sg18
I8
sg21
I3
sa(dp259
g9
I4000
sg4
I5
sg5
I0
sg6
g43
sg3
I0
sg10
I4
sg11
g44
sg13
I25
sg15
I9
sg16
I228
sg17
I0
sg14
I0
sg19
g45
sg18
I8
sg21
I3
sa(dp260
g9
I4000
sg4
I5
sg5
I0
sg6
g43
sg3
I0
sg10
I4
sg11
g44
sg13
I25
sg15
I9
sg16
I229
sg17
I0
sg14
I0
sg19
g45
sg18
I8
sg21
I3
sa(dp261
g9
I4000
sg4
I5
sg5
I0
sg6
g43
sg3
I0
sg10
I3
sg11
g44
sg13
I25
sg15
I9
sg16
I230
sg17
I0
sg14
I0
sg19
g49
sg18
I8
sg21
I3
sa(dp262
g9
I4000
sg4
I5
sg5
I0
sg6
g43
sg3
I0
sg10
I3
sg11
g44
sg13
I25
sg15
I9
sg16
I231
sg17
I0
sg14
I0
sg19
g49
sg18
I8
sg21
I3
sa(dp263
g9
I1000
sg4
I5
sg5
I0
sg6
g52
sg3
I0
sg10
I3
sg11
g44
sg13
I25
sg15
I8
sg16
I232
sg17
I1
sg14
I1
sg19
g49
sg18
I20
sg21
I3
sa(dp264
g9
I1000
sg4
I5
sg5
I0
sg6
g52
sg3
I0
sg10
I3
sg11
g44
sg13
I25
sg15
I8
sg16
I233
sg17
I1
sg14
I1
sg19
g49
sg18
I20
sg21
I3
sa(dp265
g9
I1000
sg4
I5
sg5
I0
sg6
g52
sg3
I5
sg10
I3
sg11
g44
sg13
I25
sg15
I8
sg16
I234
sg17
I1
sg14
I1
sg19
g49
sg18
I20
sg21
I3
sa(dp266
g9
I4000
sg4
I5
sg5
I0
sg6
g43
sg3
I0
sg10
I4
sg11
g44
sg13
I25
sg15
I9
sg16
I235
sg17
I0
sg14
I0
sg19
g45
sg18
I8
sg21
I3
sa(dp267
g9
I4000
sg4
I5
sg5
I0
sg6
g43
sg3
I0
sg10
I4
sg11
g44
sg13
I25
sg15
I9
sg16
I236
sg17
I0
sg14
I0
sg19
g45
sg18
I8
sg21
I3
sa(dp268
g9
I4000
sg4
I5
sg5
I0
sg6
g43
sg3
I0
sg10
I4
sg11
g44
sg13
I25
sg15
I9
sg16
I237
sg17
I0
sg14
I0
sg19
g45
sg18
I8
sg21
I3
sa(dp269
g9
I4000
sg4
I5
sg5
I0
sg6
g43
sg3
I0
sg10
I3
sg11
g44
sg13
I25
sg15
I9
sg16
I238
sg17
I0
sg14
I0
sg19
g49
sg18
I8
sg21
I3
sa(dp270
g9
I4000
sg4
I5
sg5
I0
sg6
g43
sg3
I0
sg10
I3
sg11
g44
sg13
I25
sg15
I9
sg16
I239
sg17
I0
sg14
I0
sg19
g49
sg18
I8
sg21
I3
sa(dp271
g9
I300
sg4
I5
sg5
I0
sg6
g52
sg3
I5
sg10
I2
sg11
g44
sg13
I25
sg15
I8
sg16
I240
sg17
I1
sg14
I1
sg19
g93
sg18
I20
sg21
I3
sa(dp272
g9
I4000
sg4
I5
sg5
I0
sg6
g43
sg3
I0
sg10
I4
sg11
g44
sg13
I25
sg15
I9
sg16
I241
sg17
I0
sg14
I0
sg19
g45
sg18
I8
sg21
I3
sa(dp273
g9
I4000
sg4
I5
sg5
I0
sg6
g43
sg3
I0
sg10
I4
sg11
g44
sg13
I25
sg15
I9
sg16
I242
sg17
I0
sg14
I0
sg19
g45
sg18
I8
sg21
I3
sa(dp274
g9
I4000
sg4
I5
sg5
I0
sg6
g43
sg3
I0
sg10
I4
sg11
g44
sg13
I25
sg15
I9
sg16
I243
sg17
I0
sg14
I0
sg19
g45
sg18
I8
sg21
I3
sa(dp275
g9
I4000
sg4
I5
sg5
I0
sg6
g43
sg3
I0
sg10
I3
sg11
g44
sg13
I25
sg15
I9
sg16
I244
sg17
I0
sg14
I0
sg19
g49
sg18
I8
sg21
I3
sa(dp276
g9
I4000
sg4
I5
sg5
I0
sg6
g43
sg3
I0
sg10
I3
sg11
g44
sg13
I25
sg15
I9
sg16
I245
sg17
I0
sg14
I0
sg19
g49
sg18
I8
sg21
I3
sa(dp277
g9
I300
sg4
I5
sg5
I0
sg6
g52
sg3
I5
sg10
I2
sg11
g44
sg13
I25
sg15
I8
sg16
I246
sg17
I1
sg14
I1
sg19
g93
sg18
I20
sg21
I3
sa(dp278
g9
I4000
sg4
I5
sg5
I0
sg6
g43
sg3
I0
sg10
I4
sg11
g44
sg13
I25
sg15
I9
sg16
I247
sg17
I0
sg14
I0
sg19
g45
sg18
I8
sg21
I3
sa(dp279
g9
I4000
sg4
I5
sg5
I0
sg6
g43
sg3
I0
sg10
I4
sg11
g44
sg13
I25
sg15
I9
sg16
I248
sg17
I0
sg14
I0
sg19
g45
sg18
I8
sg21
I3
sa(dp280
g9
I4000
sg4
I5
sg5
I0
sg6
g43
sg3
I0
sg10
I4
sg11
g44
sg13
I25
sg15
I9
sg16
I249
sg17
I0
sg14
I0
sg19
g45
sg18
I8
sg21
I3
sa(dp281
g9
I4000
sg4
I5
sg5
I0
sg6
g43
sg3
I0
sg10
I3
sg11
g44
sg13
I25
sg15
I9
sg16
I250
sg17
I0
sg14
I0
sg19
g49
sg18
I8
sg21
I3
sa(dp282
g9
I4000
sg4
I5
sg5
I0
sg6
g43
sg3
I0
sg10
I3
sg11
g44
sg13
I25
sg15
I9
sg16
I251
sg17
I0
sg14
I0
sg19
g49
sg18
I8
sg21
I3
sa(dp283
g9
I300
sg4
I5
sg5
I0
sg6
g52
sg3
I5
sg10
I2
sg11
g44
sg13
I25
sg15
I8
sg16
I252
sg17
I1
sg14
I1
sg19
g93
sg18
I20
sg21
I3
sa(dp284
g9
I4000
sg4
I5
sg5
I0
sg6
g43
sg3
I0
sg10
I4
sg11
g44
sg13
I25
sg15
I9
sg16
I253
sg17
I0
sg14
I0
sg19
g45
sg18
I8
sg21
I3
sa(dp285
g9
I4000
sg4
I5
sg5
I0
sg6
g43
sg3
I0
sg10
I4
sg11
g44
sg13
I25
sg15
I9
sg16
I254
sg17
I0
sg14
I0
sg19
g45
sg18
I8
sg21
I3
sa(dp286
g9
I4000
sg4
I5
sg5
I0
sg6
g43
sg3
I0
sg10
I4
sg11
g44
sg13
I25
sg15
I9
sg16
I255
sg17
I0
sg14
I0
sg19
g45
sg18
I8
sg21
I3
sa(dp287
g9
I4000
sg4
I5
sg5
I0
sg6
g43
sg3
I0
sg10
I3
sg11
g44
sg13
I25
sg15
I9
sg16
I256
sg17
I0
sg14
I0
sg19
g49
sg18
I8
sg21
I3
sa(dp288
g9
I4000
sg4
I5
sg5
I0
sg6
g43
sg3
I0
sg10
I3
sg11
g44
sg13
I25
sg15
I9
sg16
I257
sg17
I0
sg14
I0
sg19
g49
sg18
I8
sg21
I3
sa(dp289
g9
I300
sg4
I5
sg5
I0
sg6
g52
sg3
I5
sg10
I2
sg11
g44
sg13
I25
sg15
I8
sg16
I258
sg17
I1
sg14
I1
sg19
g93
sg18
I20
sg21
I3
sa(dp290
g9
I4000
sg4
I5
sg5
I0
sg6
g43
sg3
I0
sg10
I4
sg11
g44
sg13
I25
sg15
I9
sg16
I259
sg17
I0
sg14
I0
sg19
g45
sg18
I8
sg21
I3
sa(dp291
g9
I4000
sg4
I5
sg5
I0
sg6
g43
sg3
I0
sg10
I4
sg11
g44
sg13
I25
sg15
I9
sg16
I260
sg17
I0
sg14
I0
sg19
g45
sg18
I8
sg21
I3
sa(dp292
g9
I4000
sg4
I5
sg5
I0
sg6
g43
sg3
I0
sg10
I4
sg11
g44
sg13
I25
sg15
I9
sg16
I261
sg17
I0
sg14
I0
sg19
g45
sg18
I8
sg21
I3
sa(dp293
g9
I4000
sg4
I5
sg5
I0
sg6
g43
sg3
I0
sg10
I3
sg11
g44
sg13
I25
sg15
I9
sg16
I262
sg17
I0
sg14
I0
sg19
g49
sg18
I8
sg21
I3
sa(dp294
g9
I4000
sg4
I5
sg5
I0
sg6
g43
sg3
I0
sg10
I3
sg11
g44
sg13
I25
sg15
I9
sg16
I263
sg17
I0
sg14
I0
sg19
g49
sg18
I8
sg21
I3
sa(dp295
g9
I1000
sg4
I5
sg5
I0
sg6
g52
sg3
I5
sg10
I3
sg11
g44
sg13
I25
sg15
I8
sg16
I264
sg17
I1
sg14
I1
sg19
g49
sg18
I20
sg21
I3
sa(dp296
g9
I1000
sg4
I5
sg5
I0
sg6
g52
sg3
I5
sg10
I3
sg11
g44
sg13
I25
sg15
I8
sg16
I265
sg17
I1
sg14
I1
sg19
g49
sg18
I20
sg21
I3
sa(dp297
g9
I1000
sg4
I5
sg5
I0
sg6
g52
sg3
I5
sg10
I3
sg11
g44
sg13
I25
sg15
I8
sg16
I266
sg17
I1
sg14
I1
sg19
g49
sg18
I20
sg21
I3
sa(dp298
g9
I1000
sg4
I5
sg5
I0
sg6
g7
sg8
I0
sg3
I0
sg10
I8
sg11
g12
sg13
I25
sg15
I9
sg16
I267
sg17
I0
sg14
I0
sg19
g20
sg18
I30
sg21
I3
sa(dp299
g9
I250
sg4
I5
sg5
I0
sg6
g20
sg8
I1
sg3
I0
sg10
I2
sg11
g12
sg13
I25
sg15
I8
sg16
I268
sg17
I0
sg14
I0
sg19
g23
sg18
I16
sg21
I3
sa(dp300
g9
I1000
sg4
I5
sg5
I0
sg6
g7
sg8
I2
sg3
I0
sg10
I3
sg11
g12
sg13
I25
sg15
I9
sg16
I269
sg17
I0
sg14
I0
sg19
g25
sg18
I8
sg21
I3
sa(dp301
g9
I1000
sg4
I5
sg5
I0
sg6
g7
sg8
I3
sg3
I0
sg10
I3
sg11
g12
sg13
I25
sg15
I9
sg16
I270
sg17
I0
sg14
I0
sg19
g25
sg18
I8
sg21
I3
sa(dp302
g9
I1000
sg4
I5
sg5
I0
sg6
g7
sg8
I4
sg3
I0
sg10
I3
sg11
g12
sg13
I25
sg15
I9
sg16
I271
sg17
I0
sg14
I0
sg19
g25
sg18
I8
sg21
I3
sa(dp303
g9
I1000
sg4
I5
sg5
I0
sg6
g7
sg8
I5
sg3
I45
sg10
I3
sg11
g12
sg13
I25
sg15
I9
sg16
I272
sg17
I0
sg14
I0
sg19
g25
sg18
I8
sg21
I3
sa(dp304
g9
I350
sg4
I5
sg5
I0
sg6
g7
sg8
I6
sg3
I0
sg10
I8
sg11
g12
sg13
I25
sg15
I9
sg16
I273
sg17
I0
sg14
I0
sg19
g20
sg18
I30
sg21
I3
sa(dp305
g9
I1000
sg4
I5
sg5
I0
sg6
g7
sg8
I7
sg3
I0
sg10
I3
sg11
g12
sg13
I25
sg15
I9
sg16
I274
sg17
I0
sg14
I0
sg19
g25
sg18
I8
sg21
I3
sa(dp306
g9
I1000
sg4
I5
sg5
I0
sg6
g7
sg8
I8
sg3
I0
sg10
I3
sg11
g12
sg13
I25
sg15
I9
sg16
I275
sg17
I0
sg14
I0
sg19
g25
sg18
I8
sg21
I3
sa(dp307
g9
I1000
sg4
I5
sg5
I0
sg6
g7
sg8
I9
sg3
I0
sg10
I3
sg11
g12
sg13
I25
sg15
I9
sg16
I276
sg17
I0
sg14
I0
sg19
g25
sg18
I8
sg21
I3
sa(dp308
g9
I1000
sg4
I5
sg5
I0
sg6
g7
sg8
I10
sg3
I0
sg10
I3
sg11
g12
sg13
I25
sg15
I9
sg16
I277
sg17
I0
sg14
I0
sg19
g25
sg18
I8
sg21
I3
sa(dp309
g9
I250
sg4
I5
sg5
I0
sg6
g20
sg8
I11
sg3
I0
sg10
I3
sg11
g12
sg13
I25
sg15
I8
sg16
I278
sg17
I1
sg14
I1
sg19
g25
sg18
I16
sg21
I3
sa(dp310
g9
I250
sg4
I5
sg5
I0
sg6
g20
sg8
I12
sg3
I0
sg10
I3
sg11
g12
sg13
I25
sg15
I8
sg16
I279
sg17
I1
sg14
I1
sg19
g25
sg18
I16
sg21
I3
sa(dp311
g9
I1000
sg4
I5
sg5
I0
sg6
g20
sg8
I13
sg3
I5
sg10
I3
sg11
g12
sg13
I25
sg15
I8
sg16
I280
sg17
I1
sg14
I1
sg19
g25
sg18
I16
sg21
I3
sa(dp312
g9
I1000
sg4
I5
sg5
I0
sg6
g20
sg8
I14
sg3
I5
sg10
I3
sg11
g12
sg13
I25
sg15
I8
sg16
I281
sg17
I1
sg14
I1
sg19
g25
sg18
I16
sg21
I3
sa(dp313
g9
I1000
sg4
I5
sg5
I0
sg6
g20
sg8
I15
sg3
I5
sg10
I3
sg11
g12
sg13
I25
sg15
I8
sg16
I282
sg17
I1
sg14
I1
sg19
g25
sg18
I16
sg21
I3
sa(dp314
g9
I1000
sg4
I5
sg5
I0
sg6
g20
sg8
I16
sg3
I5
sg10
I3
sg11
g12
sg13
I25
sg15
I8
sg16
I283
sg17
I1
sg14
I1
sg19
g25
sg18
I16
sg21
I3
sa(dp315
g9
I750
sg4
I5
sg5
I0
sg6
g20
sg8
I17
sg3
I0
sg10
I4
sg11
g12
sg13
I25
sg15
I8
sg16
I284
sg17
I0
sg14
I0
sg19
g41
sg18
I16
sg21
I3
sa(dp316
g9
I4000
sg4
I5
sg5
I0
sg6
g43
sg3
I0
sg10
I4
sg11
g44
sg13
I25
sg15
I9
sg16
I285
sg17
I0
sg14
I0
sg19
g45
sg18
I8
sg21
I4
sa(dp317
g9
I4000
sg4
I5
sg5
I0
sg6
g43
sg3
I0
sg10
I4
sg11
g44
sg13
I25
sg15
I9
sg16
I286
sg17
I0
sg14
I0
sg19
g45
sg18
I8
sg21
I4
sa(dp318
g9
I4000
sg4
I5
sg5
I0
sg6
g43
sg3
I0
sg10
I4
sg11
g44
sg13
I25
sg15
I9
sg16
I287
sg17
I0
sg14
I0
sg19
g45
sg18
I8
sg21
I4
sa(dp319
g9
I4000
sg4
I5
sg5
I0
sg6
g43
sg3
I0
sg10
I3
sg11
g44
sg13
I25
sg15
I9
sg16
I288
sg17
I0
sg14
I0
sg19
g49
sg18
I8
sg21
I4
sa(dp320
g9
I4000
sg4
I5
sg5
I0
sg6
g43
sg3
I0
sg10
I3
sg11
g44
sg13
I25
sg15
I9
sg16
I289
sg17
I0
sg14
I0
sg19
g49
sg18
I8
sg21
I4
sa(dp321
g9
I1000
sg4
I5
sg5
I0
sg6
g43
sg3
I0
sg10
I8
sg11
g44
sg13
I25
sg15
I9
sg16
I290
sg17
I0
sg14
I0
sg19
g52
sg18
I36
sg21
I4
sa(dp322
g9
I1000
sg4
I5
sg5
I0
sg6
g43
sg3
I0
sg10
I8
sg11
g44
sg13
I25
sg15
I9
sg16
I291
sg17
I0
sg14
I0
sg19
g52
sg18
I36
sg21
I4
sa(dp323
g9
I4000
sg4
I5
sg5
I0
sg6
g43
sg3
I0
sg10
I4
sg11
g44
sg13
I25
sg15
I9
sg16
I292
sg17
I0
sg14
I0
sg19
g45
sg18
I8
sg21
I4
sa(dp324
g9
I4000
sg4
I5
sg5
I0
sg6
g43
sg3
I0
sg10
I4
sg11
g44
sg13
I25
sg15
I9
sg16
I293
sg17
I0
sg14
I0
sg19
g45
sg18
I8
sg21
I4
sa(dp325
g9
I4000
sg4
I5
sg5
I0
sg6
g43
sg3
I0
sg10
I4
sg11
g44
sg13
I25
sg15
I9
sg16
I294
sg17
I0
sg14
I0
sg19
g45
sg18
I8
sg21
I4
sa(dp326
g9
I4000
sg4
I5
sg5
I0
sg6
g43
sg3
I0
sg10
I3
sg11
g44
sg13
I25
sg15
I9
sg16
I295
sg17
I0
sg14
I0
sg19
g49
sg18
I8
sg21
I4
sa(dp327
g9
I4000
sg4
I5
sg5
I0
sg6
g43
sg3
I0
sg10
I3
sg11
g44
sg13
I25
sg15
I9
sg16
I296
sg17
I0
sg14
I0
sg19
g49
sg18
I8
sg21
I4
sa(dp328
g9
I300
sg4
I5
sg5
I0
sg6
g52
sg3
I5
sg10
I1
sg11
g44
sg13
I25
sg15
I8
sg16
I297
sg17
I1
sg14
I1
sg19
g60
sg18
I20
sg21
I4
sa(dp329
g9
I4000
sg4
I5
sg5
I0
sg6
g43
sg3
I0
sg10
I4
sg11
g44
sg13
I25
sg15
I9
sg16
I298
sg17
I0
sg14
I0
sg19
g45
sg18
I8
sg21
I4
sa(dp330
g9
I4000
sg4
I5
sg5
I0
sg6
g43
sg3
I0
sg10
I4
sg11
g44
sg13
I25
sg15
I9
sg16
I299
sg17
I0
sg14
I0
sg19
g45
sg18
I8
sg21
I4
sa(dp331
g9
I4000
sg4
I5
sg5
I0
sg6
g43
sg3
I0
sg10
I4
sg11
g44
sg13
I25
sg15
I9
sg16
I300
sg17
I0
sg14
I0
sg19
g45
sg18
I8
sg21
I4
sa(dp332
g9
I4000
sg4
I5
sg5
I0
sg6
g43
sg3
I0
sg10
I3
sg11
g44
sg13
I25
sg15
I9
sg16
I301
sg17
I0
sg14
I0
sg19
g49
sg18
I8
sg21
I4
sa(dp333
g9
I4000
sg4
I5
sg5
I0
sg6
g43
sg3
I0
sg10
I3
sg11
g44
sg13
I25
sg15
I9
sg16
I302
sg17
I0
sg14
I0
sg19
g49
sg18
I8
sg21
I4
sa(dp334
g9
I300
sg4
I5
sg5
I0
sg6
g52
sg3
I5
sg10
I1
sg11
g44
sg13
I25
sg15
I8
sg16
I303
sg17
I1
sg14
I1
sg19
g60
sg18
I20
sg21
I4
sa(dp335
g9
I4000
sg4
I5
sg5
I0
sg6
g43
sg3
I0
sg10
I4
sg11
g44
sg13
I25
sg15
I9
sg16
I304
sg17
I0
sg14
I0
sg19
g45
sg18
I8
sg21
I4
sa(dp336
g9
I4000
sg4
I5
sg5
I0
sg6
g43
sg3
I0
sg10
I4
sg11
g44
sg13
I25
sg15
I9
sg16
I305
sg17
I0
sg14
I0
sg19
g45
sg18
I8
sg21
I4
sa(dp337
g9
I4000
sg4
I5
sg5
I0
sg6
g43
sg3
I0
sg10
I4
sg11
g44
sg13
I25
sg15
I9
sg16
I306
sg17
I0
sg14
I0
sg19
g45
sg18
I8
sg21
I4
sa(dp338
g9
I4000
sg4
I5
sg5
I0
sg6
g43
sg3
I0
sg10
I3
sg11
g44
sg13
I25
sg15
I9
sg16
I307
sg17
I0
sg14
I0
sg19
g49
sg18
I8
sg21
I4
sa(dp339
g9
I4000
sg4
I5
sg5
I0
sg6
g43
sg3
I0
sg10
I3
sg11
g44
sg13
I25
sg15
I9
sg16
I308
sg17
I0
sg14
I0
sg19
g49
sg18
I8
sg21
I4
sa(dp340
g9
I300
sg4
I5
sg5
I0
sg6
g52
sg3
I5
sg10
I1
sg11
g44
sg13
I25
sg15
I8
sg16
I309
sg17
I1
sg14
I1
sg19
g60
sg18
I20
sg21
I4
sa(dp341
g9
I4000
sg4
I5
sg5
I0
sg6
g43
sg3
I0
sg10
I4
sg11
g44
sg13
I25
sg15
I9
sg16
I310
sg17
I0
sg14
I0
sg19
g45
sg18
I8
sg21
I4
sa(dp342
g9
I4000
sg4
I5
sg5
I0
sg6
g43
sg3
I0
sg10
I4
sg11
g44
sg13
I25
sg15
I9
sg16
I311
sg17
I0
sg14
I0
sg19
g45
sg18
I8
sg21
I4
sa(dp343
g9
I4000
sg4
I5
sg5
I0
sg6
g43
sg3
I0
sg10
I4
sg11
g44
sg13
I25
sg15
I9
sg16
I312
sg17
I0
sg14
I0
sg19
g45
sg18
I8
sg21
I4
sa(dp344
g9
I4000
sg4
I5
sg5
I0
sg6
g43
sg3
I0
sg10
I3
sg11
g44
sg13
I25
sg15
I9
sg16
I313
sg17
I0
sg14
I0
sg19
g49
sg18
I8
sg21
I4
sa(dp345
g9
I4000
sg4
I5
sg5
I0
sg6
g43
sg3
I0
sg10
I3
sg11
g44
sg13
I25
sg15
I9
sg16
I314
sg17
I0
sg14
I0
sg19
g49
sg18
I8
sg21
I4
sa(dp346
g9
I300
sg4
I5
sg5
I0
sg6
g52
sg3
I5
sg10
I1
sg11
g44
sg13
I25
sg15
I8
sg16
I315
sg17
I1
sg14
I1
sg19
g60
sg18
I20
sg21
I4
sa(dp347
g9
I4000
sg4
I5
sg5
I0
sg6
g43
sg3
I0
sg10
I4
sg11
g44
sg13
I25
sg15
I9
sg16
I316
sg17
I0
sg14
I0
sg19
g45
sg18
I8
sg21
I4
sa(dp348
g9
I4000
sg4
I5
sg5
I0
sg6
g43
sg3
I0
sg10
I4
sg11
g44
sg13
I25
sg15
I9
sg16
I317
sg17
I0
sg14
I0
sg19
g45
sg18
I8
sg21
I4
sa(dp349
g9
I4000
sg4
I5
sg5
I0
sg6
g43
sg3
I0
sg10
I4
sg11
g44
sg13
I25
sg15
I9
sg16
I318
sg17
I0
sg14
I0
sg19
g45
sg18
I8
sg21
I4
sa(dp350
g9
I4000
sg4
I5
sg5
I0
sg6
g43
sg3
I0
sg10
I3
sg11
g44
sg13
I25
sg15
I9
sg16
I319
sg17
I0
sg14
I0
sg19
g49
sg18
I8
sg21
I4
sa(dp351
g9
I4000
sg4
I5
sg5
I0
sg6
g43
sg3
I0
sg10
I3
sg11
g44
sg13
I25
sg15
I9
sg16
I320
sg17
I0
sg14
I0
sg19
g49
sg18
I8
sg21
I4
sa(dp352
g9
I1000
sg4
I5
sg5
I0
sg6
g52
sg3
I0
sg10
I3
sg11
g44
sg13
I25
sg15
I8
sg16
I321
sg17
I1
sg14
I1
sg19
g49
sg18
I20
sg21
I4
sa(dp353
g9
I1000
sg4
I5
sg5
I0
sg6
g52
sg3
I0
sg10
I3
sg11
g44
sg13
I25
sg15
I8
sg16
I322
sg17
I1
sg14
I1
sg19
g49
sg18
I20
sg21
I4
sa(dp354
g9
I1000
sg4
I5
sg5
I0
sg6
g52
sg3
I5
sg10
I3
sg11
g44
sg13
I25
sg15
I8
sg16
I323
sg17
I1
sg14
I1
sg19
g49
sg18
I20
sg21
I4
sa(dp355
g9
I4000
sg4
I5
sg5
I0
sg6
g43
sg3
I0
sg10
I4
sg11
g44
sg13
I25
sg15
I9
sg16
I324
sg17
I0
sg14
I0
sg19
g45
sg18
I8
sg21
I4
sa(dp356
g9
I4000
sg4
I5
sg5
I0
sg6
g43
sg3
I0
sg10
I4
sg11
g44
sg13
I25
sg15
I9
sg16
I325
sg17
I0
sg14
I0
sg19
g45
sg18
I8
sg21
I4
sa(dp357
g9
I4000
sg4
I5
sg5
I0
sg6
g43
sg3
I0
sg10
I4
sg11
g44
sg13
I25
sg15
I9
sg16
I326
sg17
I0
sg14
I0
sg19
g45
sg18
I8
sg21
I4
sa(dp358
g9
I4000
sg4
I5
sg5
I0
sg6
g43
sg3
I0
sg10
I3
sg11
g44
sg13
I25
sg15
I9
sg16
I327
sg17
I0
sg14
I0
sg19
g49
sg18
I8
sg21
I4
sa(dp359
g9
I4000
sg4
I5
sg5
I0
sg6
g43
sg3
I0
sg10
I3
sg11
g44
sg13
I25
sg15
I9
sg16
I328
sg17
I0
sg14
I0
sg19
g49
sg18
I8
sg21
I4
sa(dp360
g9
I300
sg4
I5
sg5
I0
sg6
g52
sg3
I5
sg10
I2
sg11
g44
sg13
I25
sg15
I8
sg16
I329
sg17
I1
sg14
I1
sg19
g93
sg18
I20
sg21
I4
sa(dp361
g9
I4000
sg4
I5
sg5
I0
sg6
g43
sg3
I0
sg10
I4
sg11
g44
sg13
I25
sg15
I9
sg16
I330
sg17
I0
sg14
I0
sg19
g45
sg18
I8
sg21
I4
sa(dp362
g9
I4000
sg4
I5
sg5
I0
sg6
g43
sg3
I0
sg10
I4
sg11
g44
sg13
I25
sg15
I9
sg16
I331
sg17
I0
sg14
I0
sg19
g45
sg18
I8
sg21
I4
sa(dp363
g9
I4000
sg4
I5
sg5
I0
sg6
g43
sg3
I0
sg10
I4
sg11
g44
sg13
I25
sg15
I9
sg16
I332
sg17
I0
sg14
I0
sg19
g45
sg18
I8
sg21
I4
sa(dp364
g9
I4000
sg4
I5
sg5
I0
sg6
g43
sg3
I0
sg10
I3
sg11
g44
sg13
I25
sg15
I9
sg16
I333
sg17
I0
sg14
I0
sg19
g49
sg18
I8
sg21
I4
sa(dp365
g9
I4000
sg4
I5
sg5
I0
sg6
g43
sg3
I0
sg10
I3
sg11
g44
sg13
I25
sg15
I9
sg16
I334
sg17
I0
sg14
I0
sg19
g49
sg18
I8
sg21
I4
sa(dp366
g9
I300
sg4
I5
sg5
I0
sg6
g52
sg3
I5
sg10
I2
sg11
g44
sg13
I25
sg15
I8
sg16
I335
sg17
I1
sg14
I1
sg19
g93
sg18
I20
sg21
I4
sa(dp367
g9
I4000
sg4
I5
sg5
I0
sg6
g43
sg3
I0
sg10
I4
sg11
g44
sg13
I25
sg15
I9
sg16
I336
sg17
I0
sg14
I0
sg19
g45
sg18
I8
sg21
I4
sa(dp368
g9
I4000
sg4
I5
sg5
I0
sg6
g43
sg3
I0
sg10
I4
sg11
g44
sg13
I25
sg15
I9
sg16
I337
sg17
I0
sg14
I0
sg19
g45
sg18
I8
sg21
I4
sa(dp369
g9
I4000
sg4
I5
sg5
I0
sg6
g43
sg3
I0
sg10
I4
sg11
g44
sg13
I25
sg15
I9
sg16
I338
sg17
I0
sg14
I0
sg19
g45
sg18
I8
sg21
I4
sa(dp370
g9
I4000
sg4
I5
sg5
I0
sg6
g43
sg3
I0
sg10
I3
sg11
g44
sg13
I25
sg15
I9
sg16
I339
sg17
I0
sg14
I0
sg19
g49
sg18
I8
sg21
I4
sa(dp371
g9
I4000
sg4
I5
sg5
I0
sg6
g43
sg3
I0
sg10
I3
sg11
g44
sg13
I25
sg15
I9
sg16
I340
sg17
I0
sg14
I0
sg19
g49
sg18
I8
sg21
I4
sa(dp372
g9
I300
sg4
I5
sg5
I0
sg6
g52
sg3
I5
sg10
I2
sg11
g44
sg13
I25
sg15
I8
sg16
I341
sg17
I1
sg14
I1
sg19
g93
sg18
I20
sg21
I4
sa(dp373
g9
I4000
sg4
I5
sg5
I0
sg6
g43
sg3
I0
sg10
I4
sg11
g44
sg13
I25
sg15
I9
sg16
I342
sg17
I0
sg14
I0
sg19
g45
sg18
I8
sg21
I4
sa(dp374
g9
I4000
sg4
I5
sg5
I0
sg6
g43
sg3
I0
sg10
I4
sg11
g44
sg13
I25
sg15
I9
sg16
I343
sg17
I0
sg14
I0
sg19
g45
sg18
I8
sg21
I4
sa(dp375
g9
I4000
sg4
I5
sg5
I0
sg6
g43
sg3
I0
sg10
I4
sg11
g44
sg13
I25
sg15
I9
sg16
I344
sg17
I0
sg14
I0
sg19
g45
sg18
I8
sg21
I4
sa(dp376
g9
I4000
sg4
I5
sg5
I0
sg6
g43
sg3
I0
sg10
I3
sg11
g44
sg13
I25
sg15
I9
sg16
I345
sg17
I0
sg14
I0
sg19
g49
sg18
I8
sg21
I4
sa(dp377
g9
I4000
sg4
I5
sg5
I0
sg6
g43
sg3
I0
sg10
I3
sg11
g44
sg13
I25
sg15
I9
sg16
I346
sg17
I0
sg14
I0
sg19
g49
sg18
I8
sg21
I4
sa(dp378
g9
I300
sg4
I5
sg5
I0
sg6
g52
sg3
I5
sg10
I2
sg11
g44
sg13
I25
sg15
I8
sg16
I347
sg17
I1
sg14
I1
sg19
g93
sg18
I20
sg21
I4
sa(dp379
g9
I4000
sg4
I5
sg5
I0
sg6
g43
sg3
I0
sg10
I4
sg11
g44
sg13
I25
sg15
I9
sg16
I348
sg17
I0
sg14
I0
sg19
g45
sg18
I8
sg21
I4
sa(dp380
g9
I4000
sg4
I5
sg5
I0
sg6
g43
sg3
I0
sg10
I4
sg11
g44
sg13
I25
sg15
I9
sg16
I349
sg17
I0
sg14
I0
sg19
g45
sg18
I8
sg21
I4
sa(dp381
g9
I4000
sg4
I5
sg5
I0
sg6
g43
sg3
I0
sg10
I4
sg11
g44
sg13
I25
sg15
I9
sg16
I350
sg17
I0
sg14
I0
sg19
g45
sg18
I8
sg21
I4
sa(dp382
g9
I4000
sg4
I5
sg5
I0
sg6
g43
sg3
I0
sg10
I3
sg11
g44
sg13
I25
sg15
I9
sg16
I351
sg17
I0
sg14
I0
sg19
g49
sg18
I8
sg21
I4
sa(dp383
g9
I4000
sg4
I5
sg5
I0
sg6
g43
sg3
I0
sg10
I3
sg11
g44
sg13
I25
sg15
I9
sg16
I352
sg17
I0
sg14
I0
sg19
g49
sg18
I8
sg21
I4
sa(dp384
g9
I1000
sg4
I5
sg5
I0
sg6
g52
sg3
I5
sg10
I3
sg11
g44
sg13
I25
sg15
I8
sg16
I353
sg17
I1
sg14
I1
sg19
g49
sg18
I20
sg21
I4
sa(dp385
g9
I1000
sg4
I5
sg5
I0
sg6
g52
sg3
I5
sg10
I3
sg11
g44
sg13
I25
sg15
I8
sg16
I354
sg17
I1
sg14
I1
sg19
g49
sg18
I20
sg21
I4
sa(dp386
g9
I1000
sg4
I5
sg5
I0
sg6
g52
sg3
I5
sg10
I3
sg11
g44
sg13
I25
sg15
I8
sg16
I355
sg17
I1
sg14
I1
sg19
g49
sg18
I20
sg21
I4
sa(dp387
g9
I1000
sg4
I5
sg5
I0
sg6
g7
sg8
I0
sg3
I0
sg10
I8
sg11
g12
sg13
I25
sg15
I9
sg16
I356
sg17
I0
sg14
I0
sg19
g20
sg18
I30
sg21
I4
sa(dp388
g9
I250
sg4
I5
sg5
I0
sg6
g20
sg8
I1
sg3
I0
sg10
I2
sg11
g12
sg13
I25
sg15
I8
sg16
I357
sg17
I0
sg14
I0
sg19
g23
sg18
I16
sg21
I4
sa(dp389
g9
I1000
sg4
I5
sg5
I0
sg6
g7
sg8
I2
sg3
I0
sg10
I3
sg11
g12
sg13
I25
sg15
I9
sg16
I358
sg17
I0
sg14
I0
sg19
g25
sg18
I8
sg21
I4
sa(dp390
g9
I1000
sg4
I5
sg5
I0
sg6
g7
sg8
I3
sg3
I0
sg10
I3
sg11
g12
sg13
I25
sg15
I9
sg16
I359
sg17
I0
sg14
I0
sg19
g25
sg18
I8
sg21
I4
sa(dp391
g9
I1000
sg4
I5
sg5
I0
sg6
g7
sg8
I4
sg3
I0
sg10
I3
sg11
g12
sg13
I25
sg15
I9
sg16
I360
sg17
I0
sg14
I0
sg19
g25
sg18
I8
sg21
I4
sa(dp392
g9
I1000
sg4
I5
sg5
I0
sg6
g7
sg8
I5
sg3
I45
sg10
I3
sg11
g12
sg13
I25
sg15
I9
sg16
I361
sg17
I0
sg14
I0
sg19
g25
sg18
I8
sg21
I4
sa(dp393
g9
I350
sg4
I5
sg5
I0
sg6
g7
sg8
I6
sg3
I0
sg10
I8
sg11
g12
sg13
I25
sg15
I9
sg16
I362
sg17
I0
sg14
I0
sg19
g20
sg18
I30
sg21
I4
sa(dp394
g9
I1000
sg4
I5
sg5
I0
sg6
g7
sg8
I7
sg3
I0
sg10
I3
sg11
g12
sg13
I25
sg15
I9
sg16
I363
sg17
I0
sg14
I0
sg19
g25
sg18
I8
sg21
I4
sa(dp395
g9
I1000
sg4
I5
sg5
I0
sg6
g7
sg8
I8
sg3
I0
sg10
I3
sg11
g12
sg13
I25
sg15
I9
sg16
I364
sg17
I0
sg14
I0
sg19
g25
sg18
I8
sg21
I4
sa(dp396
g9
I1000
sg4
I5
sg5
I0
sg6
g7
sg8
I9
sg3
I0
sg10
I3
sg11
g12
sg13
I25
sg15
I9
sg16
I365
sg17
I0
sg14
I0
sg19
g25
sg18
I8
sg21
I4
sa(dp397
g9
I1000
sg4
I5
sg5
I0
sg6
g7
sg8
I10
sg3
I0
sg10
I3
sg11
g12
sg13
I25
sg15
I9
sg16
I366
sg17
I0
sg14
I0
sg19
g25
sg18
I8
sg21
I4
sa(dp398
g9
I250
sg4
I5
sg5
I0
sg6
g20
sg8
I11
sg3
I0
sg10
I3
sg11
g12
sg13
I25
sg15
I8
sg16
I367
sg17
I1
sg14
I1
sg19
g25
sg18
I16
sg21
I4
sa(dp399
g9
I250
sg4
I5
sg5
I0
sg6
g20
sg8
I12
sg3
I0
sg10
I3
sg11
g12
sg13
I25
sg15
I8
sg16
I368
sg17
I1
sg14
I1
sg19
g25
sg18
I16
sg21
I4
sa(dp400
g9
I1000
sg4
I5
sg5
I0
sg6
g20
sg8
I13
sg3
I5
sg10
I3
sg11
g12
sg13
I25
sg15
I8
sg16
I369
sg17
I1
sg14
I1
sg19
g25
sg18
I16
sg21
I4
sa(dp401
g9
I1000
sg4
I5
sg5
I0
sg6
g20
sg8
I14
sg3
I5
sg10
I3
sg11
g12
sg13
I25
sg15
I8
sg16
I370
sg17
I1
sg14
I1
sg19
g25
sg18
I16
sg21
I4
sa(dp402
g9
I1000
sg4
I5
sg5
I0
sg6
g20
sg8
I15
sg3
I5
sg10
I3
sg11
g12
sg13
I25
sg15
I8
sg16
I371
sg17
I1
sg14
I1
sg19
g25
sg18
I16
sg21
I4
sa(dp403
g9
I1000
sg4
I5
sg5
I0
sg6
g20
sg8
I16
sg3
I5
sg10
I3
sg11
g12
sg13
I25
sg15
I8
sg16
I372
sg17
I1
sg14
I1
sg19
g25
sg18
I16
sg21
I4
sa(dp404
g9
I750
sg4
I5
sg5
I0
sg6
g20
sg8
I17
sg3
I0
sg10
I4
sg11
g12
sg13
I25
sg15
I8
sg16
I373
sg17
I0
sg14
I0
sg19
g41
sg18
I16
sg21
I4
sa(dp405
g9
I4000
sg4
I5
sg5
I0
sg6
g43
sg3
I0
sg10
I4
sg11
g44
sg13
I25
sg15
I9
sg16
I374
sg17
I0
sg14
I0
sg19
g45
sg18
I8
sg21
I5
sa(dp406
g9
I4000
sg4
I5
sg5
I0
sg6
g43
sg3
I0
sg10
I4
sg11
g44
sg13
I25
sg15
I9
sg16
I375
sg17
I0
sg14
I0
sg19
g45
sg18
I8
sg21
I5
sa(dp407
g9
I4000
sg4
I5
sg5
I0
sg6
g43
sg3
I0
sg10
I4
sg11
g44
sg13
I25
sg15
I9
sg16
I376
sg17
I0
sg14
I0
sg19
g45
sg18
I8
sg21
I5
sa(dp408
g9
I4000
sg4
I5
sg5
I0
sg6
g43
sg3
I0
sg10
I3
sg11
g44
sg13
I25
sg15
I9
sg16
I377
sg17
I0
sg14
I0
sg19
g49
sg18
I8
sg21
I5
sa(dp409
g9
I4000
sg4
I5
sg5
I0
sg6
g43
sg3
I0
sg10
I3
sg11
g44
sg13
I25
sg15
I9
sg16
I378
sg17
I0
sg14
I0
sg19
g49
sg18
I8
sg21
I5
sa(dp410
g9
I1000
sg4
I5
sg5
I0
sg6
g43
sg3
I0
sg10
I8
sg11
g44
sg13
I25
sg15
I9
sg16
I379
sg17
I0
sg14
I0
sg19
g52
sg18
I36
sg21
I5
sa(dp411
g9
I1000
sg4
I5
sg5
I0
sg6
g43
sg3
I0
sg10
I8
sg11
g44
sg13
I25
sg15
I9
sg16
I380
sg17
I0
sg14
I0
sg19
g52
sg18
I36
sg21
I5
sa(dp412
g9
I4000
sg4
I5
sg5
I0
sg6
g43
sg3
I0
sg10
I4
sg11
g44
sg13
I25
sg15
I9
sg16
I381
sg17
I0
sg14
I0
sg19
g45
sg18
I8
sg21
I5
sa(dp413
g9
I4000
sg4
I5
sg5
I0
sg6
g43
sg3
I0
sg10
I4
sg11
g44
sg13
I25
sg15
I9
sg16
I382
sg17
I0
sg14
I0
sg19
g45
sg18
I8
sg21
I5
sa(dp414
g9
I4000
sg4
I5
sg5
I0
sg6
g43
sg3
I0
sg10
I4
sg11
g44
sg13
I25
sg15
I9
sg16
I383
sg17
I0
sg14
I0
sg19
g45
sg18
I8
sg21
I5
sa(dp415
g9
I4000
sg4
I5
sg5
I0
sg6
g43
sg3
I0
sg10
I3
sg11
g44
sg13
I25
sg15
I9
sg16
I384
sg17
I0
sg14
I0
sg19
g49
sg18
I8
sg21
I5
sa(dp416
g9
I4000
sg4
I5
sg5
I0
sg6
g43
sg3
I0
sg10
I3
sg11
g44
sg13
I25
sg15
I9
sg16
I385
sg17
I0
sg14
I0
sg19
g49
sg18
I8
sg21
I5
sa(dp417
g9
I300
sg4
I5
sg5
I0
sg6
g52
sg3
I5
sg10
I1
sg11
g44
sg13
I25
sg15
I8
sg16
I386
sg17
I1
sg14
I1
sg19
g60
sg18
I20
sg21
I5
sa(dp418
g9
I4000
sg4
I5
sg5
I0
sg6
g43
sg3
I0
sg10
I4
sg11
g44
sg13
I25
sg15
I9
sg16
I387
sg17
I0
sg14
I0
sg19
g45
sg18
I8
sg21
I5
sa(dp419
g9
I4000
sg4
I5
sg5
I0
sg6
g43
sg3
I0
sg10
I4
sg11
g44
sg13
I25
sg15
I9
sg16
I388
sg17
I0
sg14
I0
sg19
g45
sg18
I8
sg21
I5
sa(dp420
g9
I4000
sg4
I5
sg5
I0
sg6
g43
sg3
I0
sg10
I4
sg11
g44
sg13
I25
sg15
I9
sg16
I389
sg17
I0
sg14
I0
sg19
g45
sg18
I8
sg21
I5
sa(dp421
g9
I4000
sg4
I5
sg5
I0
sg6
g43
sg3
I0
sg10
I3
sg11
g44
sg13
I25
sg15
I9
sg16
I390
sg17
I0
sg14
I0
sg19
g49
sg18
I8
sg21
I5
sa(dp422
g9
I4000
sg4
I5
sg5
I0
sg6
g43
sg3
I0
sg10
I3
sg11
g44
sg13
I25
sg15
I9
sg16
I391
sg17
I0
sg14
I0
sg19
g49
sg18
I8
sg21
I5
sa(dp423
g9
I300
sg4
I5
sg5
I0
sg6
g52
sg3
I5
sg10
I1
sg11
g44
sg13
I25
sg15
I8
sg16
I392
sg17
I1
sg14
I1
sg19
g60
sg18
I20
sg21
I5
sa(dp424
g9
I4000
sg4
I5
sg5
I0
sg6
g43
sg3
I0
sg10
I4
sg11
g44
sg13
I25
sg15
I9
sg16
I393
sg17
I0
sg14
I0
sg19
g45
sg18
I8
sg21
I5
sa(dp425
g9
I4000
sg4
I5
sg5
I0
sg6
g43
sg3
I0
sg10
I4
sg11
g44
sg13
I25
sg15
I9
sg16
I394
sg17
I0
sg14
I0
sg19
g45
sg18
I8
sg21
I5
sa(dp426
g9
I4000
sg4
I5
sg5
I0
sg6
g43
sg3
I0
sg10
I4
sg11
g44
sg13
I25
sg15
I9
sg16
I395
sg17
I0
sg14
I0
sg19
g45
sg18
I8
sg21
I5
sa(dp427
g9
I4000
sg4
I5
sg5
I0
sg6
g43
sg3
I0
sg10
I3
sg11
g44
sg13
I25
sg15
I9
sg16
I396
sg17
I0
sg14
I0
sg19
g49
sg18
I8
sg21
I5
sa(dp428
g9
I4000
sg4
I5
sg5
I0
sg6
g43
sg3
I0
sg10
I3
sg11
g44
sg13
I25
sg15
I9
sg16
I397
sg17
I0
sg14
I0
sg19
g49
sg18
I8
sg21
I5
sa(dp429
g9
I300
sg4
I5
sg5
I0
sg6
g52
sg3
I5
sg10
I1
sg11
g44
sg13
I25
sg15
I8
sg16
I398
sg17
I1
sg14
I1
sg19
g60
sg18
I20
sg21
I5
sa(dp430
g9
I4000
sg4
I5
sg5
I0
sg6
g43
sg3
I0
sg10
I4
sg11
g44
sg13
I25
sg15
I9
sg16
I399
sg17
I0
sg14
I0
sg19
g45
sg18
I8
sg21
I5
sa(dp431
g9
I4000
sg4
I5
sg5
I0
sg6
g43
sg3
I0
sg10
I4
sg11
g44
sg13
I25
sg15
I9
sg16
I400
sg17
I0
sg14
I0
sg19
g45
sg18
I8
sg21
I5
sa(dp432
g9
I4000
sg4
I5
sg5
I0
sg6
g43
sg3
I0
sg10
I4
sg11
g44
sg13
I25
sg15
I9
sg16
I401
sg17
I0
sg14
I0
sg19
g45
sg18
I8
sg21
I5
sa(dp433
g9
I4000
sg4
I5
sg5
I0
sg6
g43
sg3
I0
sg10
I3
sg11
g44
sg13
I25
sg15
I9
sg16
I402
sg17
I0
sg14
I0
sg19
g49
sg18
I8
sg21
I5
sa(dp434
g9
I4000
sg4
I5
sg5
I0
sg6
g43
sg3
I0
sg10
I3
sg11
g44
sg13
I25
sg15
I9
sg16
I403
sg17
I0
sg14
I0
sg19
g49
sg18
I8
sg21
I5
sa(dp435
g9
I300
sg4
I5
sg5
I0
sg6
g52
sg3
I5
sg10
I1
sg11
g44
sg13
I25
sg15
I8
sg16
I404
sg17
I1
sg14
I1
sg19
g60
sg18
I20
sg21
I5
sa(dp436
g9
I4000
sg4
I5
sg5
I0
sg6
g43
sg3
I0
sg10
I4
sg11
g44
sg13
I25
sg15
I9
sg16
I405
sg17
I0
sg14
I0
sg19
g45
sg18
I8
sg21
I5
sa(dp437
g9
I4000
sg4
I5
sg5
I0
sg6
g43
sg3
I0
sg10
I4
sg11
g44
sg13
I25
sg15
I9
sg16
I406
sg17
I0
sg14
I0
sg19
g45
sg18
I8
sg21
I5
sa(dp438
g9
I4000
sg4
I5
sg5
I0
sg6
g43
sg3
I0
sg10
I4
sg11
g44
sg13
I25
sg15
I9
sg16
I407
sg17
I0
sg14
I0
sg19
g45
sg18
I8
sg21
I5
sa(dp439
g9
I4000
sg4
I5
sg5
I0
sg6
g43
sg3
I0
sg10
I3
sg11
g44
sg13
I25
sg15
I9
sg16
I408
sg17
I0
sg14
I0
sg19
g49
sg18
I8
sg21
I5
sa(dp440
g9
I4000
sg4
I5
sg5
I0
sg6
g43
sg3
I0
sg10
I3
sg11
g44
sg13
I25
sg15
I9
sg16
I409
sg17
I0
sg14
I0
sg19
g49
sg18
I8
sg21
I5
sa(dp441
g9
I1000
sg4
I5
sg5
I0
sg6
g52
sg3
I0
sg10
I3
sg11
g44
sg13
I25
sg15
I8
sg16
I410
sg17
I1
sg14
I1
sg19
g49
sg18
I20
sg21
I5
sa(dp442
g9
I1000
sg4
I5
sg5
I0
sg6
g52
sg3
I0
sg10
I3
sg11
g44
sg13
I25
sg15
I8
sg16
I411
sg17
I1
sg14
I1
sg19
g49
sg18
I20
sg21
I5
sa(dp443
g9
I1000
sg4
I5
sg5
I0
sg6
g52
sg3
I5
sg10
I3
sg11
g44
sg13
I25
sg15
I8
sg16
I412
sg17
I1
sg14
I1
sg19
g49
sg18
I20
sg21
I5
sa(dp444
g9
I4000
sg4
I5
sg5
I0
sg6
g43
sg3
I0
sg10
I4
sg11
g44
sg13
I25
sg15
I9
sg16
I413
sg17
I0
sg14
I0
sg19
g45
sg18
I8
sg21
I5
sa(dp445
g9
I4000
sg4
I5
sg5
I0
sg6
g43
sg3
I0
sg10
I4
sg11
g44
sg13
I25
sg15
I9
sg16
I414
sg17
I0
sg14
I0
sg19
g45
sg18
I8
sg21
I5
sa(dp446
g9
I4000
sg4
I5
sg5
I0
sg6
g43
sg3
I0
sg10
I4
sg11
g44
sg13
I25
sg15
I9
sg16
I415
sg17
I0
sg14
I0
sg19
g45
sg18
I8
sg21
I5
sa(dp447
g9
I4000
sg4
I5
sg5
I0
sg6
g43
sg3
I0
sg10
I3
sg11
g44
sg13
I25
sg15
I9
sg16
I416
sg17
I0
sg14
I0
sg19
g49
sg18
I8
sg21
I5
sa(dp448
g9
I4000
sg4
I5
sg5
I0
sg6
g43
sg3
I0
sg10
I3
sg11
g44
sg13
I25
sg15
I9
sg16
I417
sg17
I0
sg14
I0
sg19
g49
sg18
I8
sg21
I5
sa(dp449
g9
I300
sg4
I5
sg5
I0
sg6
g52
sg3
I5
sg10
I2
sg11
g44
sg13
I25
sg15
I8
sg16
I418
sg17
I1
sg14
I1
sg19
g93
sg18
I20
sg21
I5
sa(dp450
g9
I4000
sg4
I5
sg5
I0
sg6
g43
sg3
I0
sg10
I4
sg11
g44
sg13
I25
sg15
I9
sg16
I419
sg17
I0
sg14
I0
sg19
g45
sg18
I8
sg21
I5
sa(dp451
g9
I4000
sg4
I5
sg5
I0
sg6
g43
sg3
I0
sg10
I4
sg11
g44
sg13
I25
sg15
I9
sg16
I420
sg17
I0
sg14
I0
sg19
g45
sg18
I8
sg21
I5
sa(dp452
g9
I4000
sg4
I5
sg5
I0
sg6
g43
sg3
I0
sg10
I4
sg11
g44
sg13
I25
sg15
I9
sg16
I421
sg17
I0
sg14
I0
sg19
g45
sg18
I8
sg21
I5
sa(dp453
g9
I4000
sg4
I5
sg5
I0
sg6
g43
sg3
I0
sg10
I3
sg11
g44
sg13
I25
sg15
I9
sg16
I422
sg17
I0
sg14
I0
sg19
g49
sg18
I8
sg21
I5
sa(dp454
g9
I4000
sg4
I5
sg5
I0
sg6
g43
sg3
I0
sg10
I3
sg11
g44
sg13
I25
sg15
I9
sg16
I423
sg17
I0
sg14
I0
sg19
g49
sg18
I8
sg21
I5
sa(dp455
g9
I300
sg4
I5
sg5
I0
sg6
g52
sg3
I5
sg10
I2
sg11
g44
sg13
I25
sg15
I8
sg16
I424
sg17
I1
sg14
I1
sg19
g93
sg18
I20
sg21
I5
sa(dp456
g9
I4000
sg4
I5
sg5
I0
sg6
g43
sg3
I0
sg10
I4
sg11
g44
sg13
I25
sg15
I9
sg16
I425
sg17
I0
sg14
I0
sg19
g45
sg18
I8
sg21
I5
sa(dp457
g9
I4000
sg4
I5
sg5
I0
sg6
g43
sg3
I0
sg10
I4
sg11
g44
sg13
I25
sg15
I9
sg16
I426
sg17
I0
sg14
I0
sg19
g45
sg18
I8
sg21
I5
sa(dp458
g9
I4000
sg4
I5
sg5
I0
sg6
g43
sg3
I0
sg10
I4
sg11
g44
sg13
I25
sg15
I9
sg16
I427
sg17
I0
sg14
I0
sg19
g45
sg18
I8
sg21
I5
sa(dp459
g9
I4000
sg4
I5
sg5
I0
sg6
g43
sg3
I0
sg10
I3
sg11
g44
sg13
I25
sg15
I9
sg16
I428
sg17
I0
sg14
I0
sg19
g49
sg18
I8
sg21
I5
sa(dp460
g9
I4000
sg4
I5
sg5
I0
sg6
g43
sg3
I0
sg10
I3
sg11
g44
sg13
I25
sg15
I9
sg16
I429
sg17
I0
sg14
I0
sg19
g49
sg18
I8
sg21
I5
sa(dp461
g9
I300
sg4
I5
sg5
I0
sg6
g52
sg3
I5
sg10
I2
sg11
g44
sg13
I25
sg15
I8
sg16
I430
sg17
I1
sg14
I1
sg19
g93
sg18
I20
sg21
I5
sa(dp462
g9
I4000
sg4
I5
sg5
I0
sg6
g43
sg3
I0
sg10
I4
sg11
g44
sg13
I25
sg15
I9
sg16
I431
sg17
I0
sg14
I0
sg19
g45
sg18
I8
sg21
I5
sa(dp463
g9
I4000
sg4
I5
sg5
I0
sg6
g43
sg3
I0
sg10
I4
sg11
g44
sg13
I25
sg15
I9
sg16
I432
sg17
I0
sg14
I0
sg19
g45
sg18
I8
sg21
I5
sa(dp464
g9
I4000
sg4
I5
sg5
I0
sg6
g43
sg3
I0
sg10
I4
sg11
g44
sg13
I25
sg15
I9
sg16
I433
sg17
I0
sg14
I0
sg19
g45
sg18
I8
sg21
I5
sa(dp465
g9
I4000
sg4
I5
sg5
I0
sg6
g43
sg3
I0
sg10
I3
sg11
g44
sg13
I25
sg15
I9
sg16
I434
sg17
I0
sg14
I0
sg19
g49
sg18
I8
sg21
I5
sa(dp466
g9
I4000
sg4
I5
sg5
I0
sg6
g43
sg3
I0
sg10
I3
sg11
g44
sg13
I25
sg15
I9
sg16
I435
sg17
I0
sg14
I0
sg19
g49
sg18
I8
sg21
I5
sa(dp467
g9
I300
sg4
I5
sg5
I0
sg6
g52
sg3
I5
sg10
I2
sg11
g44
sg13
I25
sg15
I8
sg16
I436
sg17
I1
sg14
I1
sg19
g93
sg18
I20
sg21
I5
sa(dp468
g9
I4000
sg4
I5
sg5
I0
sg6
g43
sg3
I0
sg10
I4
sg11
g44
sg13
I25
sg15
I9
sg16
I437
sg17
I0
sg14
I0
sg19
g45
sg18
I8
sg21
I5
sa(dp469
g9
I4000
sg4
I5
sg5
I0
sg6
g43
sg3
I0
sg10
I4
sg11
g44
sg13
I25
sg15
I9
sg16
I438
sg17
I0
sg14
I0
sg19
g45
sg18
I8
sg21
I5
sa(dp470
g9
I4000
sg4
I5
sg5
I0
sg6
g43
sg3
I0
sg10
I4
sg11
g44
sg13
I25
sg15
I9
sg16
I439
sg17
I0
sg14
I0
sg19
g45
sg18
I8
sg21
I5
sa(dp471
g9
I4000
sg4
I5
sg5
I0
sg6
g43
sg3
I0
sg10
I3
sg11
g44
sg13
I25
sg15
I9
sg16
I440
sg17
I0
sg14
I0
sg19
g49
sg18
I8
sg21
I5
sa(dp472
g9
I4000
sg4
I5
sg5
I0
sg6
g43
sg3
I0
sg10
I3
sg11
g44
sg13
I25
sg15
I9
sg16
I441
sg17
I0
sg14
I0
sg19
g49
sg18
I8
sg21
I5
sa(dp473
g9
I1000
sg4
I5
sg5
I0
sg6
g52
sg3
I5
sg10
I3
sg11
g44
sg13
I25
sg15
I8
sg16
I442
sg17
I1
sg14
I1
sg19
g49
sg18
I20
sg21
I5
sa(dp474
g9
I1000
sg4
I5
sg5
I0
sg6
g52
sg3
I5
sg10
I3
sg11
g44
sg13
I25
sg15
I8
sg16
I443
sg17
I1
sg14
I1
sg19
g49
sg18
I20
sg21
I5
sa(dp475
g9
I1000
sg4
I5
sg5
I0
sg6
g52
sg3
I5
sg10
I3
sg11
g44
sg13
I25
sg15
I8
sg16
I444
sg17
I1
sg14
I1
sg19
g49
sg18
I20
sg21
I5
sa(dp476
g9
I1000
sg4
I5
sg5
I0
sg6
g7
sg8
I0
sg3
I0
sg10
I8
sg11
g12
sg13
I25
sg15
I9
sg16
I445
sg17
I0
sg14
I0
sg19
g20
sg18
I30
sg21
I5
sa(dp477
g9
I250
sg4
I5
sg5
I0
sg6
g20
sg8
I1
sg3
I0
sg10
I2
sg11
g12
sg13
I25
sg15
I8
sg16
I446
sg17
I0
sg14
I0
sg19
g23
sg18
I16
sg21
I5
sa(dp478
g9
I1000
sg4
I5
sg5
I0
sg6
g7
sg8
I2
sg3
I0
sg10
I3
sg11
g12
sg13
I25
sg15
I9
sg16
I447
sg17
I0
sg14
I0
sg19
g25
sg18
I8
sg21
I5
sa(dp479
g9
I1000
sg4
I5
sg5
I0
sg6
g7
sg8
I3
sg3
I0
sg10
I3
sg11
g12
sg13
I25
sg15
I9
sg16
I448
sg17
I0
sg14
I0
sg19
g25
sg18
I8
sg21
I5
sa(dp480
g9
I1000
sg4
I5
sg5
I0
sg6
g7
sg8
I4
sg3
I0
sg10
I3
sg11
g12
sg13
I25
sg15
I9
sg16
I449
sg17
I0
sg14
I0
sg19
g25
sg18
I8
sg21
I5
sa(dp481
g9
I1000
sg4
I5
sg5
I0
sg6
g7
sg8
I5
sg3
I45
sg10
I3
sg11
g12
sg13
I25
sg15
I9
sg16
I450
sg17
I0
sg14
I0
sg19
g25
sg18
I8
sg21
I5
sa(dp482
g9
I350
sg4
I5
sg5
I0
sg6
g7
sg8
I6
sg3
I0
sg10
I8
sg11
g12
sg13
I25
sg15
I9
sg16
I451
sg17
I0
sg14
I0
sg19
g20
sg18
I30
sg21
I5
sa(dp483
g9
I1000
sg4
I5
sg5
I0
sg6
g7
sg8
I7
sg3
I0
sg10
I3
sg11
g12
sg13
I25
sg15
I9
sg16
I452
sg17
I0
sg14
I0
sg19
g25
sg18
I8
sg21
I5
sa(dp484
g9
I1000
sg4
I5
sg5
I0
sg6
g7
sg8
I8
sg3
I0
sg10
I3
sg11
g12
sg13
I25
sg15
I9
sg16
I453
sg17
I0
sg14
I0
sg19
g25
sg18
I8
sg21
I5
sa(dp485
g9
I1000
sg4
I5
sg5
I0
sg6
g7
sg8
I9
sg3
I0
sg10
I3
sg11
g12
sg13
I25
sg15
I9
sg16
I454
sg17
I0
sg14
I0
sg19
g25
sg18
I8
sg21
I5
sa(dp486
g9
I1000
sg4
I5
sg5
I0
sg6
g7
sg8
I10
sg3
I0
sg10
I3
sg11
g12
sg13
I25
sg15
I9
sg16
I455
sg17
I0
sg14
I0
sg19
g25
sg18
I8
sg21
I5
sa(dp487
g9
I250
sg4
I5
sg5
I0
sg6
g20
sg8
I11
sg3
I0
sg10
I3
sg11
g12
sg13
I25
sg15
I8
sg16
I456
sg17
I1
sg14
I1
sg19
g25
sg18
I16
sg21
I5
sa(dp488
g9
I250
sg4
I5
sg5
I0
sg6
g20
sg8
I12
sg3
I0
sg10
I3
sg11
g12
sg13
I25
sg15
I8
sg16
I457
sg17
I1
sg14
I1
sg19
g25
sg18
I16
sg21
I5
sa(dp489
g9
I1000
sg4
I5
sg5
I0
sg6
g20
sg8
I13
sg3
I5
sg10
I3
sg11
g12
sg13
I25
sg15
I8
sg16
I458
sg17
I1
sg14
I1
sg19
g25
sg18
I16
sg21
I5
sa(dp490
g9
I1000
sg4
I5
sg5
I0
sg6
g20
sg8
I14
sg3
I5
sg10
I3
sg11
g12
sg13
I25
sg15
I8
sg16
I459
sg17
I1
sg14
I1
sg19
g25
sg18
I16
sg21
I5
sa(dp491
g9
I1000
sg4
I5
sg5
I0
sg6
g20
sg8
I15
sg3
I5
sg10
I3
sg11
g12
sg13
I25
sg15
I8
sg16
I460
sg17
I1
sg14
I1
sg19
g25
sg18
I16
sg21
I5
sa(dp492
g9
I1000
sg4
I5
sg5
I0
sg6
g20
sg8
I16
sg3
I5
sg10
I3
sg11
g12
sg13
I25
sg15
I8
sg16
I461
sg17
I1
sg14
I1
sg19
g25
sg18
I16
sg21
I5
sa(dp493
g9
I750
sg4
I5
sg5
I0
sg6
g20
sg8
I17
sg3
I0
sg10
I4
sg11
g12
sg13
I25
sg15
I8
sg16
I462
sg17
I0
sg14
I0
sg19
g41
sg18
I16
sg21
I5
sa.