(lp1
(dp2
S'reagent'
p3
S'cleave solution 1'
p4
sS'pump'
p5
S'/dev/ttyUSB1'
p6
sS'port'
p7
I1
sa(dp8
g3
S'cleave solution 2.1'
p9
sg5
g6
sg7
I2
sa(dp10
g3
S'1x instrument - cleave'
p11
sg5
g6
sg7
I3
sa(dp12
g3
S''
sg5
g6
sg7
I4
sa(dp13
g3
S''
sg5
g6
sg7
I5
sa(dp14
g3
S''
sg5
g6
sg7
I6
sa(dp15
g3
S'Air 1'
p16
sg5
g6
sg7
I7
sa(dp17
g3
S'Output 1'
p18
sg5
g6
sg7
I8
sa(dp19
g3
S'Waste 1'
p20
sg5
g6
sg7
I9
sa(dp21
g3
S''
sg5
S'/dev/ttyUSB0'
p22
sg7
I1
sa(dp23
g3
S'T4 ligase mix'
p24
sg5
g22
sg7
I2
sa(dp25
g3
S'1x instrument - ligase'
p26
sg5
g22
sg7
I3
sa(dp27
g3
S''
sg5
g22
sg7
I4
sa(dp28
g3
S''
sg5
g22
sg7
I5
sa(dp29
g3
S''
sg5
g22
sg7
I6
sa(dp30
g3
S'Air 2'
p31
sg5
g22
sg7
I7
sa(dp32
g3
S'Output 2'
p33
sg5
g22
sg7
I8
sa(dp34
g3
S'Waste 2'
p35
sg5
g22
sg7
I9
sa.(lp1
(dp2
S'waitsecs'
p3
I5
sS'toportreagent'
p4
S'Output 1'
p5
sS'volume'
p6
I1000
sS'toport'
p7
I8
sS'cmdnumber'
p8
I0
sS'speed'
p9
I16
sS'cycle'
p10
I0
sS'waitmins'
p11
I0
sS'temp'
p12
I25
sS'heatwhen'
p13
I0
sS'fromport'
p14
I3
sS'pump'
p15
S'/dev/ttyUSB1'
p16
sS'fromportreagent'
p17
S'1x instrument - cleave'
p18
sS'waste'
p19
I1
sS'type'
p20
I1
sa(dp21
g3
I5
sg4
S'Output 1'
p22
sg6
I1000
sg7
I8
sg8
I1
sg9
I16
sg10
I0
sg11
I0
sg12
I25
sg13
I0
sg14
I3
sg15
g16
sg17
S'1x instrument - cleave'
p23
sg19
I1
sg20
I1
sa(dp24
g3
I5
sg4
S'Waste 1'
p25
sg6
I400
sg7
I9
sg8
I2
sg9
I30
sg10
I0
sg11
I0
sg12
I25
sg13
I0
sg14
I8
sg15
g16
sg17
S'Output 1'
p26
sg19
I0
sg20
I0
sa(dp27
g3
I5
sg4
S'Output 2'
p28
sg6
I250
sg7
I8
sg8
I3
sg9
I16
sg10
I0
sg11
I0
sg12
I25
sg13
I0
sg14
I2
sg15
S'/dev/ttyUSB0'
p29
sg17
S'T4 ligase mix'
p30
sg19
I0
sg20
I0
sa(dp31
g3
I5
sg4
S'Waste 2'
p32
sg6
I1000
sg7
I9
sg8
I4
sg9
I8
sg10
I0
sg11
I0
sg12
I25
sg13
I0
sg14
I3
sg15
g29
sg17
S'1x instrument - ligase'
p33
sg19
I0
sg20
I0
sa(dp34
g3
I5
sg4
S'Waste 2'
p35
sg6
I1000
sg7
I9
sg8
I5
sg9
I8
sg10
I0
sg11
I0
sg12
I25
sg13
I0
sg14
I3
sg15
g29
sg17
S'1x instrument - ligase'
p36
sg19
I0
sg20
I0
sa(dp37
g3
I5
sg4
S'Waste 2'
p38
sg6
I1000
sg7
I9
sg8
I6
sg9
I8
sg10
I0
sg11
I0
sg12
I25
sg13
I0
sg14
I3
sg15
g29
sg17
S'1x instrument - ligase'
p39
sg19
I0
sg20
I0
sa(dp40
g3
I5
sg4
S'Waste 2'
p41
sg6
I1000
sg7
I9
sg8
I7
sg9
I16
sg10
I0
sg11
I45
sg12
I25
sg13
I0
sg14
I3
sg15
g29
sg17
S'1x instrument - ligase'
p42
sg19
I0
sg20
I0
sa(dp43
g3
I5
sg4
S'Waste 2'
p44
sg6
I400
sg7
I9
sg8
I8
sg9
I30
sg10
I0
sg11
I0
sg12
I25
sg13
I0
sg14
I8
sg15
g29
sg17
S'Output 2'
p45
sg19
I0
sg20
I0
sa(dp46
g3
I5
sg4
S'Waste 2'
p47
sg6
I1000
sg7
I9
sg8
I9
sg9
I8
sg10
I0
sg11
I0
sg12
I25
sg13
I0
sg14
I3
sg15
g29
sg17
S'1x instrument - ligase'
p48
sg19
I0
sg20
I0
sa(dp49
g3
I5
sg4
S'Waste 2'
p50
sg6
I1000
sg7
I9
sg8
I10
sg9
I8
sg10
I0
sg11
I0
sg12
I25
sg13
I0
sg14
I3
sg15
g29
sg17
S'1x instrument - ligase'
p51
sg19
I0
sg20
I0
sa(dp52
g3
I5
sg4
S'Waste 2'
p53
sg6
I1000
sg7
I9
sg8
I11
sg9
I8
sg10
I0
sg11
I0
sg12
I25
sg13
I0
sg14
I3
sg15
g29
sg17
S'1x instrument - ligase'
p54
sg19
I0
sg20
I0
sa(dp55
g3
I5
sg4
S'Output 2'
p56
sg6
I1000
sg7
I8
sg8
I12
sg9
I16
sg10
I0
sg11
I5
sg12
I25
sg13
I0
sg14
I3
sg15
g29
sg17
S'1x instrument - ligase'
p57
sg19
I1
sg20
I1
sa(dp58
g3
I5
sg4
S'Output 2'
p59
sg6
I1000
sg7
I8
sg8
I13
sg9
I16
sg10
I0
sg11
I5
sg12
I25
sg13
I0
sg14
I3
sg15
g29
sg17
S'1x instrument - ligase'
p60
sg19
I1
sg20
I1
sa(dp61
g3
I5
sg4
S'Output 2'
p62
sg6
I1000
sg7
I8
sg8
I14
sg9
I16
sg10
I0
sg11
I5
sg12
I25
sg13
I0
sg14
I3
sg15
g29
sg17
S'1x instrument - ligase'
p63
sg19
I1
sg20
I1
sa(dp64
g3
I5
sg4
S'Output 2'
p65
sg6
I1000
sg7
I8
sg8
I15
sg9
I16
sg10
I0
sg11
I5
sg12
I25
sg13
I0
sg14
I3
sg15
g29
sg17
S'1x instrument - ligase'
p66
sg19
I1
sg20
I1
sa(dp67
g3
I5
sg4
S'Output 2'
p68
sg6
I750
sg7
I8
sg8
I16
sg9
I16
sg10
I0
sg11
I0
sg12
I25
sg13
I0
sg14
I3
sg15
g29
sg17
S'1x instrument - ligase'
p69
sg19
I0
sg20
I0
sa(dp70
g3
I5
sg4
S'Waste 1'
p71
sg6
I900
sg7
I9
sg8
I17
sg9
I30
sg10
I1
sg11
I0
sg12
I25
sg13
I0
sg14
I8
sg15
g16
sg17
S'Output 1'
p72
sg19
I0
sg20
I0
sa(dp73
g3
I5
sg4
S'Waste 1'
p74
sg6
I1000
sg7
I9
sg8
I18
sg9
I8
sg10
I1
sg11
I0
sg12
I25
sg13
I0
sg14
I3
sg15
g16
sg17
S'1x instrument - cleave'
p75
sg19
I0
sg20
I0
sa(dp76
g3
I5
sg4
S'Waste 1'
p77
sg6
I1000
sg7
I9
sg8
I19
sg9
I8
sg10
I1
sg11
I0
sg12
I25
sg13
I0
sg14
I3
sg15
g16
sg17
S'1x instrument - cleave'
p78
sg19
I0
sg20
I0
sa(dp79
g3
I5
sg4
S'Waste 1'
p80
sg6
I1000
sg7
I9
sg8
I20
sg9
I8
sg10
I1
sg11
I0
sg12
I25
sg13
I0
sg14
I3
sg15
g16
sg17
S'1x instrument - cleave'
p81
sg19
I0
sg20
I0
sa(dp82
g3
I5
sg4
S'Output 1'
p83
sg6
I250
sg7
I8
sg8
I21
sg9
I16
sg10
I1
sg11
I5
sg12
I25
sg13
I0
sg14
I1
sg15
g16
sg17
S'cleave solution 1'
p84
sg19
I1
sg20
I1
sa(dp85
g3
I5
sg4
S'Waste 1'
p86
sg6
I1000
sg7
I9
sg8
I22
sg9
I8
sg10
I1
sg11
I0
sg12
I25
sg13
I0
sg14
I3
sg15
g16
sg17
S'1x instrument - cleave'
p87
sg19
I0
sg20
I0
sa(dp88
g3
I5
sg4
S'Waste 1'
p89
sg6
I1000
sg7
I9
sg8
I23
sg9
I8
sg10
I1
sg11
I0
sg12
I25
sg13
I0
sg14
I3
sg15
g16
sg17
S'1x instrument - cleave'
p90
sg19
I0
sg20
I0
sa(dp91
g3
I5
sg4
S'Waste 1'
p92
sg6
I1000
sg7
I9
sg8
I24
sg9
I8
sg10
I1
sg11
I0
sg12
I25
sg13
I0
sg14
I3
sg15
g16
sg17
S'1x instrument - cleave'
p93
sg19
I0
sg20
I0
sa(dp94
g3
I5
sg4
S'Output 1'
p95
sg6
I250
sg7
I8
sg8
I25
sg9
I16
sg10
I1
sg11
I5
sg12
I25
sg13
I0
sg14
I1
sg15
g16
sg17
S'cleave solution 1'
p96
sg19
I1
sg20
I1
sa(dp97
g3
I5
sg4
S'Waste 1'
p98
sg6
I1000
sg7
I9
sg8
I26
sg9
I8
sg10
I1
sg11
I0
sg12
I25
sg13
I0
sg14
I3
sg15
g16
sg17
S'1x instrument - cleave'
p99
sg19
I0
sg20
I0
sa(dp100
g3
I5
sg4
S'Waste 1'
p101
sg6
I1000
sg7
I9
sg8
I27
sg9
I8
sg10
I1
sg11
I0
sg12
I25
sg13
I0
sg14
I3
sg15
g16
sg17
S'1x instrument - cleave'
p102
sg19
I0
sg20
I0
sa(dp103
g3
I5
sg4
S'Waste 1'
p104
sg6
I1000
sg7
I9
sg8
I28
sg9
I8
sg10
I1
sg11
I0
sg12
I25
sg13
I0
sg14
I3
sg15
g16
sg17
S'1x instrument - cleave'
p105
sg19
I0
sg20
I0
sa(dp106
g3
I5
sg4
S'Output 1'
p107
sg6
I250
sg7
I8
sg8
I29
sg9
I16
sg10
I1
sg11
I5
sg12
I25
sg13
I0
sg14
I2
sg15
g16
sg17
S'cleave solution 2.1'
p108
sg19
I1
sg20
I1
sa(dp109
g3
I5
sg4
S'Waste 1'
p110
sg6
I1000
sg7
I9
sg8
I30
sg9
I8
sg10
I1
sg11
I0
sg12
I25
sg13
I0
sg14
I3
sg15
g16
sg17
S'1x instrument - cleave'
p111
sg19
I0
sg20
I0
sa(dp112
g3
I5
sg4
S'Waste 1'
p113
sg6
I1000
sg7
I9
sg8
I31
sg9
I8
sg10
I1
sg11
I0
sg12
I25
sg13
I0
sg14
I3
sg15
g16
sg17
S'1x instrument - cleave'
p114
sg19
I0
sg20
I0
sa(dp115
g3
I5
sg4
S'Waste 1'
p116
sg6
I1000
sg7
I9
sg8
I32
sg9
I8
sg10
I1
sg11
I0
sg12
I25
sg13
I0
sg14
I3
sg15
g16
sg17
S'1x instrument - cleave'
p117
sg19
I0
sg20
I0
sa(dp118
g3
I5
sg4
S'Output 1'
p119
sg6
I250
sg7
I8
sg8
I33
sg9
I16
sg10
I1
sg11
I5
sg12
I25
sg13
I0
sg14
I2
sg15
g16
sg17
S'cleave solution 2.1'
p120
sg19
I1
sg20
I1
sa(dp121
g3
I5
sg4
S'Waste 1'
p122
sg6
I1000
sg7
I9
sg8
I34
sg9
I16
sg10
I1
sg11
I0
sg12
I25
sg13
I0
sg14
I3
sg15
g16
sg17
S'1x instrument - cleave'
p123
sg19
I0
sg20
I0
sa(dp124
g3
I5
sg4
S'Waste 1'
p125
sg6
I1000
sg7
I9
sg8
I35
sg9
I16
sg10
I1
sg11
I0
sg12
I25
sg13
I0
sg14
I3
sg15
g16
sg17
S'1x instrument - cleave'
p126
sg19
I0
sg20
I0
sa(dp127
g3
I5
sg4
S'Waste 1'
p128
sg6
I1000
sg7
I9
sg8
I36
sg9
I16
sg10
I1
sg11
I0
sg12
I25
sg13
I0
sg14
I3
sg15
g16
sg17
S'1x instrument - cleave'
p129
sg19
I0
sg20
I0
sa(dp130
g3
I5
sg4
S'Output 1'
p131
sg6
I1000
sg7
I8
sg8
I37
sg9
I16
sg10
I1
sg11
I5
sg12
I25
sg13
I0
sg14
I3
sg15
g16
sg17
S'1x instrument - cleave'
p132
sg19
I1
sg20
I1
sa(dp133
g3
I5
sg4
S'Output 1'
p134
sg6
I1000
sg7
I8
sg8
I38
sg9
I16
sg10
I1
sg11
I5
sg12
I25
sg13
I0
sg14
I3
sg15
g16
sg17
S'1x instrument - cleave'
p135
sg19
I1
sg20
I1
sa(dp136
g3
I5
sg4
S'Output 1'
p137
sg6
I1000
sg7
I8
sg8
I39
sg9
I16
sg10
I1
sg11
I5
sg12
I25
sg13
I0
sg14
I3
sg15
g16
sg17
S'1x instrument - cleave'
p138
sg19
I1
sg20
I1
sa(dp139
g3
I5
sg4
S'Output 2'
p140
sg6
I250
sg7
I8
sg8
I40
sg9
I16
sg10
I1
sg11
I0
sg12
I25
sg13
I0
sg14
I2
sg15
g29
sg17
S'T4 ligase mix'
p141
sg19
I0
sg20
I0
sa(dp142
g3
I5
sg4
S'Waste 2'
p143
sg6
I1000
sg7
I9
sg8
I41
sg9
I8
sg10
I1
sg11
I0
sg12
I25
sg13
I0
sg14
I3
sg15
g29
sg17
S'1x instrument - ligase'
p144
sg19
I0
sg20
I0
sa(dp145
g3
I5
sg4
S'Waste 2'
p146
sg6
I1000
sg7
I9
sg8
I42
sg9
I8
sg10
I1
sg11
I0
sg12
I25
sg13
I0
sg14
I3
sg15
g29
sg17
S'1x instrument - ligase'
p147
sg19
I0
sg20
I0
sa(dp148
g3
I5
sg4
S'Waste 2'
p149
sg6
I1000
sg7
I9
sg8
I43
sg9
I8
sg10
I1
sg11
I0
sg12
I25
sg13
I0
sg14
I3
sg15
g29
sg17
S'1x instrument - ligase'
p150
sg19
I0
sg20
I0
sa(dp151
g3
I5
sg4
S'Waste 2'
p152
sg6
I1000
sg7
I9
sg8
I44
sg9
I8
sg10
I1
sg11
I45
sg12
I25
sg13
I0
sg14
I3
sg15
g29
sg17
S'1x instrument - ligase'
p153
sg19
I0
sg20
I0
sa(dp154
g3
I5
sg4
S'Waste 2'
p155
sg6
I400
sg7
I9
sg8
I45
sg9
I30
sg10
I1
sg11
I0
sg12
I25
sg13
I0
sg14
I8
sg15
g29
sg17
S'Output 2'
p156
sg19
I0
sg20
I0
sa(dp157
g3
I5
sg4
S'Waste 2'
p158
sg6
I1000
sg7
I9
sg8
I46
sg9
I8
sg10
I1
sg11
I0
sg12
I25
sg13
I0
sg14
I3
sg15
g29
sg17
S'1x instrument - ligase'
p159
sg19
I0
sg20
I0
sa(dp160
g3
I5
sg4
S'Waste 2'
p161
sg6
I1000
sg7
I9
sg8
I47
sg9
I8
sg10
I1
sg11
I0
sg12
I25
sg13
I0
sg14
I3
sg15
g29
sg17
S'1x instrument - ligase'
p162
sg19
I0
sg20
I0
sa(dp163
g3
I5
sg4
S'Waste 2'
p164
sg6
I1000
sg7
I9
sg8
I48
sg9
I8
sg10
I1
sg11
I0
sg12
I25
sg13
I0
sg14
I3
sg15
g29
sg17
S'1x instrument - ligase'
p165
sg19
I0
sg20
I0
sa(dp166
g3
I5
sg4
S'Output 2'
p167
sg6
I1000
sg7
I8
sg8
I49
sg9
I16
sg10
I1
sg11
I0
sg12
I25
sg13
I0
sg14
I3
sg15
g29
sg17
S'1x instrument - ligase'
p168
sg19
I1
sg20
I1
sa(dp169
g3
I5
sg4
S'Output 2'
p170
sg6
I1000
sg7
I8
sg8
I50
sg9
I16
sg10
I1
sg11
I0
sg12
I25
sg13
I0
sg14
I3
sg15
g29
sg17
S'1x instrument - ligase'
p171
sg19
I1
sg20
I1
sa(dp172
g3
I5
sg4
S'Output 2'
p173
sg6
I1000
sg7
I8
sg8
I51
sg9
I16
sg10
I1
sg11
I0
sg12
I25
sg13
I0
sg14
I3
sg15
g29
sg17
S'1x instrument - ligase'
p174
sg19
I1
sg20
I1
sa(dp175
g3
I5
sg4
S'Output 2'
p176
sg6
I1000
sg7
I8
sg8
I52
sg9
I16
sg10
I1
sg11
I0
sg12
I25
sg13
I0
sg14
I3
sg15
g29
sg17
S'1x instrument - ligase'
p177
sg19
I1
sg20
I1
sa(dp178
g3
I5
sg4
S'Output 2'
p179
sg6
I750
sg7
I8
sg8
I53
sg9
I16
sg10
I1
sg11
I0
sg12
I25
sg13
I0
sg14
I3
sg15
g29
sg17
S'1x instrument - ligase'
p180
sg19
I0
sg20
I0
sa(dp181
g3
I5
sg4
S'Waste 1'
p182
sg6
I900
sg7
I9
sg8
I54
sg9
I30
sg10
I2
sg11
I0
sg12
I25
sg13
I0
sg14
I8
sg15
g16
sg17
S'Output 1'
p183
sg19
I0
sg20
I0
sa(dp184
g3
I5
sg4
S'Waste 1'
p185
sg6
I1000
sg7
I9
sg8
I55
sg9
I8
sg10
I2
sg11
I0
sg12
I25
sg13
I0
sg14
I3
sg15
g16
sg17
S'1x instrument - cleave'
p186
sg19
I0
sg20
I0
sa(dp187
g3
I5
sg4
S'Waste 1'
p188
sg6
I1000
sg7
I9
sg8
I56
sg9
I8
sg10
I2
sg11
I0
sg12
I25
sg13
I0
sg14
I3
sg15
g16
sg17
S'1x instrument - cleave'
p189
sg19
I0
sg20
I0
sa(dp190
g3
I5
sg4
S'Waste 1'
p191
sg6
I1000
sg7
I9
sg8
I57
sg9
I8
sg10
I2
sg11
I0
sg12
I25
sg13
I0
sg14
I3
sg15
g16
sg17
S'1x instrument - cleave'
p192
sg19
I0
sg20
I0
sa(dp193
g3
I5
sg4
S'Output 1'
p194
sg6
I250
sg7
I8
sg8
I58
sg9
I16
sg10
I2
sg11
I5
sg12
I25
sg13
I0
sg14
I1
sg15
g16
sg17
S'cleave solution 1'
p195
sg19
I1
sg20
I1
sa(dp196
g3
I5
sg4
S'Waste 1'
p197
sg6
I1000
sg7
I9
sg8
I59
sg9
I8
sg10
I2
sg11
I0
sg12
I25
sg13
I0
sg14
I3
sg15
g16
sg17
S'1x instrument - cleave'
p198
sg19
I0
sg20
I0
sa(dp199
g3
I5
sg4
S'Waste 1'
p200
sg6
I1000
sg7
I9
sg8
I60
sg9
I8
sg10
I2
sg11
I0
sg12
I25
sg13
I0
sg14
I3
sg15
g16
sg17
S'1x instrument - cleave'
p201
sg19
I0
sg20
I0
sa(dp202
g3
I5
sg4
S'Waste 1'
p203
sg6
I1000
sg7
I9
sg8
I61
sg9
I8
sg10
I2
sg11
I0
sg12
I25
sg13
I0
sg14
I3
sg15
g16
sg17
S'1x instrument - cleave'
p204
sg19
I0
sg20
I0
sa(dp205
g3
I5
sg4
S'Output 1'
p206
sg6
I250
sg7
I8
sg8
I62
sg9
I16
sg10
I2
sg11
I5
sg12
I25
sg13
I0
sg14
I1
sg15
g16
sg17
S'cleave solution 1'
p207
sg19
I1
sg20
I1
sa(dp208
g3
I5
sg4
S'Waste 1'
p209
sg6
I1000
sg7
I9
sg8
I63
sg9
I8
sg10
I2
sg11
I0
sg12
I25
sg13
I0
sg14
I3
sg15
g16
sg17
S'1x instrument - cleave'
p210
sg19
I0
sg20
I0
sa(dp211
g3
I5
sg4
S'Waste 1'
p212
sg6
I1000
sg7
I9
sg8
I64
sg9
I8
sg10
I2
sg11
I0
sg12
I25
sg13
I0
sg14
I3
sg15
g16
sg17
S'1x instrument - cleave'
p213
sg19
I0
sg20
I0
sa(dp214
g3
I5
sg4
S'Waste 1'
p215
sg6
I1000
sg7
I9
sg8
I65
sg9
I8
sg10
I2
sg11
I0
sg12
I25
sg13
I0
sg14
I3
sg15
g16
sg17
S'1x instrument - cleave'
p216
sg19
I0
sg20
I0
sa(dp217
g3
I5
sg4
S'Output 1'
p218
sg6
I250
sg7
I8
sg8
I66
sg9
I16
sg10
I2
sg11
I5
sg12
I25
sg13
I0
sg14
I2
sg15
g16
sg17
S'cleave solution 2.1'
p219
sg19
I1
sg20
I1
sa(dp220
g3
I5
sg4
S'Waste 1'
p221
sg6
I1000
sg7
I9
sg8
I67
sg9
I8
sg10
I2
sg11
I0
sg12
I25
sg13
I0
sg14
I3
sg15
g16
sg17
S'1x instrument - cleave'
p222
sg19
I0
sg20
I0
sa(dp223
g3
I5
sg4
S'Waste 1'
p224
sg6
I1000
sg7
I9
sg8
I68
sg9
I8
sg10
I2
sg11
I0
sg12
I25
sg13
I0
sg14
I3
sg15
g16
sg17
S'1x instrument - cleave'
p225
sg19
I0
sg20
I0
sa(dp226
g3
I5
sg4
S'Waste 1'
p227
sg6
I1000
sg7
I9
sg8
I69
sg9
I8
sg10
I2
sg11
I0
sg12
I25
sg13
I0
sg14
I3
sg15
g16
sg17
S'1x instrument - cleave'
p228
sg19
I0
sg20
I0
sa(dp229
g3
I5
sg4
S'Output 1'
p230
sg6
I250
sg7
I8
sg8
I70
sg9
I16
sg10
I2
sg11
I5
sg12
I25
sg13
I0
sg14
I2
sg15
g16
sg17
S'cleave solution 2.1'
p231
sg19
I1
sg20
I1
sa(dp232
g3
I5
sg4
S'Waste 1'
p233
sg6
I1000
sg7
I9
sg8
I71
sg9
I16
sg10
I2
sg11
I0
sg12
I25
sg13
I0
sg14
I3
sg15
g16
sg17
S'1x instrument - cleave'
p234
sg19
I0
sg20
I0
sa(dp235
g3
I5
sg4
S'Waste 1'
p236
sg6
I1000
sg7
I9
sg8
I72
sg9
I16
sg10
I2
sg11
I0
sg12
I25
sg13
I0
sg14
I3
sg15
g16
sg17
S'1x instrument - cleave'
p237
sg19
I0
sg20
I0
sa(dp238
g3
I5
sg4
S'Waste 1'
p239
sg6
I1000
sg7
I9
sg8
I73
sg9
I16
sg10
I2
sg11
I0
sg12
I25
sg13
I0
sg14
I3
sg15
g16
sg17
S'1x instrument - cleave'
p240
sg19
I0
sg20
I0
sa(dp241
g3
I5
sg4
S'Output 1'
p242
sg6
I1000
sg7
I8
sg8
I74
sg9
I16
sg10
I2
sg11
I5
sg12
I25
sg13
I0
sg14
I3
sg15
g16
sg17
S'1x instrument - cleave'
p243
sg19
I1
sg20
I1
sa(dp244
g3
I5
sg4
S'Output 1'
p245
sg6
I1000
sg7
I8
sg8
I75
sg9
I16
sg10
I2
sg11
I5
sg12
I25
sg13
I0
sg14
I3
sg15
g16
sg17
S'1x instrument - cleave'
p246
sg19
I1
sg20
I1
sa(dp247
g3
I5
sg4
S'Output 1'
p248
sg6
I1000
sg7
I8
sg8
I76
sg9
I16
sg10
I2
sg11
I5
sg12
I25
sg13
I0
sg14
I3
sg15
g16
sg17
S'1x instrument - cleave'
p249
sg19
I1
sg20
I1
sa(dp250
g3
I5
sg4
S'Output 2'
p251
sg6
I250
sg7
I8
sg8
I77
sg9
I16
sg10
I2
sg11
I0
sg12
I25
sg13
I0
sg14
I2
sg15
g29
sg17
S'T4 ligase mix'
p252
sg19
I0
sg20
I0
sa(dp253
g3
I5
sg4
S'Waste 2'
p254
sg6
I1000
sg7
I9
sg8
I78
sg9
I8
sg10
I2
sg11
I0
sg12
I25
sg13
I0
sg14
I3
sg15
g29
sg17
S'1x instrument - ligase'
p255
sg19
I0
sg20
I0
sa(dp256
g3
I5
sg4
S'Waste 2'
p257
sg6
I1000
sg7
I9
sg8
I79
sg9
I8
sg10
I2
sg11
I0
sg12
I25
sg13
I0
sg14
I3
sg15
g29
sg17
S'1x instrument - ligase'
p258
sg19
I0
sg20
I0
sa(dp259
g3
I5
sg4
S'Waste 2'
p260
sg6
I1000
sg7
I9
sg8
I80
sg9
I8
sg10
I2
sg11
I0
sg12
I25
sg13
I0
sg14
I3
sg15
g29
sg17
S'1x instrument - ligase'
p261
sg19
I0
sg20
I0
sa(dp262
g3
I5
sg4
S'Waste 2'
p263
sg6
I1000
sg7
I9
sg8
I81
sg9
I8
sg10
I2
sg11
I45
sg12
I25
sg13
I0
sg14
I3
sg15
g29
sg17
S'1x instrument - ligase'
p264
sg19
I0
sg20
I0
sa(dp265
g3
I5
sg4
S'Waste 2'
p266
sg6
I400
sg7
I9
sg8
I82
sg9
I30
sg10
I2
sg11
I0
sg12
I25
sg13
I0
sg14
I8
sg15
g29
sg17
S'Output 2'
p267
sg19
I0
sg20
I0
sa(dp268
g3
I5
sg4
S'Waste 2'
p269
sg6
I1000
sg7
I9
sg8
I83
sg9
I8
sg10
I2
sg11
I0
sg12
I25
sg13
I0
sg14
I3
sg15
g29
sg17
S'1x instrument - ligase'
p270
sg19
I0
sg20
I0
sa(dp271
g3
I5
sg4
S'Waste 2'
p272
sg6
I1000
sg7
I9
sg8
I84
sg9
I8
sg10
I2
sg11
I0
sg12
I25
sg13
I0
sg14
I3
sg15
g29
sg17
S'1x instrument - ligase'
p273
sg19
I0
sg20
I0
sa(dp274
g3
I5
sg4
S'Waste 2'
p275
sg6
I1000
sg7
I9
sg8
I85
sg9
I8
sg10
I2
sg11
I0
sg12
I25
sg13
I0
sg14
I3
sg15
g29
sg17
S'1x instrument - ligase'
p276
sg19
I0
sg20
I0
sa(dp277
g3
I5
sg4
S'Output 2'
p278
sg6
I1000
sg7
I8
sg8
I86
sg9
I16
sg10
I2
sg11
I0
sg12
I25
sg13
I0
sg14
I3
sg15
g29
sg17
S'1x instrument - ligase'
p279
sg19
I1
sg20
I1
sa(dp280
g3
I5
sg4
S'Output 2'
p281
sg6
I1000
sg7
I8
sg8
I87
sg9
I16
sg10
I2
sg11
I0
sg12
I25
sg13
I0
sg14
I3
sg15
g29
sg17
S'1x instrument - ligase'
p282
sg19
I1
sg20
I1
sa(dp283
g3
I5
sg4
S'Output 2'
p284
sg6
I1000
sg7
I8
sg8
I88
sg9
I16
sg10
I2
sg11
I0
sg12
I25
sg13
I0
sg14
I3
sg15
g29
sg17
S'1x instrument - ligase'
p285
sg19
I1
sg20
I1
sa(dp286
g3
I5
sg4
S'Output 2'
p287
sg6
I1000
sg7
I8
sg8
I89
sg9
I16
sg10
I2
sg11
I0
sg12
I25
sg13
I0
sg14
I3
sg15
g29
sg17
S'1x instrument - ligase'
p288
sg19
I1
sg20
I1
sa(dp289
g3
I5
sg4
S'Output 2'
p290
sg6
I750
sg7
I8
sg8
I90
sg9
I16
sg10
I2
sg11
I0
sg12
I25
sg13
I0
sg14
I3
sg15
g29
sg17
S'1x instrument - ligase'
p291
sg19
I0
sg20
I0
sa(dp292
g3
I5
sg4
S'Waste 1'
p293
sg6
I900
sg7
I9
sg8
I91
sg9
I30
sg10
I3
sg11
I0
sg12
I25
sg13
I0
sg14
I8
sg15
g16
sg17
S'Output 1'
p294
sg19
I0
sg20
I0
sa(dp295
g3
I5
sg4
S'Waste 1'
p296
sg6
I1000
sg7
I9
sg8
I92
sg9
I8
sg10
I3
sg11
I0
sg12
I25
sg13
I0
sg14
I3
sg15
g16
sg17
S'1x instrument - cleave'
p297
sg19
I0
sg20
I0
sa(dp298
g3
I5
sg4
S'Waste 1'
p299
sg6
I1000
sg7
I9
sg8
I93
sg9
I8
sg10
I3
sg11
I0
sg12
I25
sg13
I0
sg14
I3
sg15
g16
sg17
S'1x instrument - cleave'
p300
sg19
I0
sg20
I0
sa(dp301
g3
I5
sg4
S'Waste 1'
p302
sg6
I1000
sg7
I9
sg8
I94
sg9
I8
sg10
I3
sg11
I0
sg12
I25
sg13
I0
sg14
I3
sg15
g16
sg17
S'1x instrument - cleave'
p303
sg19
I0
sg20
I0
sa(dp304
g3
I5
sg4
S'Output 1'
p305
sg6
I250
sg7
I8
sg8
I95
sg9
I16
sg10
I3
sg11
I5
sg12
I25
sg13
I0
sg14
I1
sg15
g16
sg17
S'cleave solution 1'
p306
sg19
I1
sg20
I1
sa(dp307
g3
I5
sg4
S'Waste 1'
p308
sg6
I1000
sg7
I9
sg8
I96
sg9
I8
sg10
I3
sg11
I0
sg12
I25
sg13
I0
sg14
I3
sg15
g16
sg17
S'1x instrument - cleave'
p309
sg19
I0
sg20
I0
sa(dp310
g3
I5
sg4
S'Waste 1'
p311
sg6
I1000
sg7
I9
sg8
I97
sg9
I8
sg10
I3
sg11
I0
sg12
I25
sg13
I0
sg14
I3
sg15
g16
sg17
S'1x instrument - cleave'
p312
sg19
I0
sg20
I0
sa(dp313
g3
I5
sg4
S'Waste 1'
p314
sg6
I1000
sg7
I9
sg8
I98
sg9
I8
sg10
I3
sg11
I0
sg12
I25
sg13
I0
sg14
I3
sg15
g16
sg17
S'1x instrument - cleave'
p315
sg19
I0
sg20
I0
sa(dp316
g3
I5
sg4
S'Output 1'
p317
sg6
I250
sg7
I8
sg8
I99
sg9
I16
sg10
I3
sg11
I5
sg12
I25
sg13
I0
sg14
I1
sg15
g16
sg17
S'cleave solution 1'
p318
sg19
I1
sg20
I1
sa(dp319
g3
I5
sg4
S'Waste 1'
p320
sg6
I1000
sg7
I9
sg8
I100
sg9
I8
sg10
I3
sg11
I0
sg12
I25
sg13
I0
sg14
I3
sg15
g16
sg17
S'1x instrument - cleave'
p321
sg19
I0
sg20
I0
sa(dp322
g3
I5
sg4
S'Waste 1'
p323
sg6
I1000
sg7
I9
sg8
I101
sg9
I8
sg10
I3
sg11
I0
sg12
I25
sg13
I0
sg14
I3
sg15
g16
sg17
S'1x instrument - cleave'
p324
sg19
I0
sg20
I0
sa(dp325
g3
I5
sg4
S'Waste 1'
p326
sg6
I1000
sg7
I9
sg8
I102
sg9
I8
sg10
I3
sg11
I0
sg12
I25
sg13
I0
sg14
I3
sg15
g16
sg17
S'1x instrument - cleave'
p327
sg19
I0
sg20
I0
sa(dp328
g3
I5
sg4
S'Output 1'
p329
sg6
I250
sg7
I8
sg8
I103
sg9
I16
sg10
I3
sg11
I5
sg12
I25
sg13
I0
sg14
I2
sg15
g16
sg17
S'cleave solution 2.1'
p330
sg19
I1
sg20
I1
sa(dp331
g3
I5
sg4
S'Waste 1'
p332
sg6
I1000
sg7
I9
sg8
I104
sg9
I8
sg10
I3
sg11
I0
sg12
I25
sg13
I0
sg14
I3
sg15
g16
sg17
S'1x instrument - cleave'
p333
sg19
I0
sg20
I0
sa(dp334
g3
I5
sg4
S'Waste 1'
p335
sg6
I1000
sg7
I9
sg8
I105
sg9
I8
sg10
I3
sg11
I0
sg12
I25
sg13
I0
sg14
I3
sg15
g16
sg17
S'1x instrument - cleave'
p336
sg19
I0
sg20
I0
sa(dp337
g3
I5
sg4
S'Waste 1'
p338
sg6
I1000
sg7
I9
sg8
I106
sg9
I8
sg10
I3
sg11
I0
sg12
I25
sg13
I0
sg14
I3
sg15
g16
sg17
S'1x instrument - cleave'
p339
sg19
I0
sg20
I0
sa(dp340
g3
I5
sg4
S'Output 1'
p341
sg6
I250
sg7
I8
sg8
I107
sg9
I16
sg10
I3
sg11
I5
sg12
I25
sg13
I0
sg14
I2
sg15
g16
sg17
S'cleave solution 2.1'
p342
sg19
I1
sg20
I1
sa(dp343
g3
I5
sg4
S'Waste 1'
p344
sg6
I1000
sg7
I9
sg8
I108
sg9
I16
sg10
I3
sg11
I0
sg12
I25
sg13
I0
sg14
I3
sg15
g16
sg17
S'1x instrument - cleave'
p345
sg19
I0
sg20
I0
sa(dp346
g3
I5
sg4
S'Waste 1'
p347
sg6
I1000
sg7
I9
sg8
I109
sg9
I16
sg10
I3
sg11
I0
sg12
I25
sg13
I0
sg14
I3
sg15
g16
sg17
S'1x instrument - cleave'
p348
sg19
I0
sg20
I0
sa(dp349
g3
I5
sg4
S'Waste 1'
p350
sg6
I1000
sg7
I9
sg8
I110
sg9
I16
sg10
I3
sg11
I0
sg12
I25
sg13
I0
sg14
I3
sg15
g16
sg17
S'1x instrument - cleave'
p351
sg19
I0
sg20
I0
sa(dp352
g3
I5
sg4
S'Output 1'
p353
sg6
I1000
sg7
I8
sg8
I111
sg9
I16
sg10
I3
sg11
I5
sg12
I25
sg13
I0
sg14
I3
sg15
g16
sg17
S'1x instrument - cleave'
p354
sg19
I1
sg20
I1
sa(dp355
g3
I5
sg4
S'Output 1'
p356
sg6
I1000
sg7
I8
sg8
I112
sg9
I16
sg10
I3
sg11
I5
sg12
I25
sg13
I0
sg14
I3
sg15
g16
sg17
S'1x instrument - cleave'
p357
sg19
I1
sg20
I1
sa(dp358
g3
I5
sg4
S'Output 1'
p359
sg6
I1000
sg7
I8
sg8
I113
sg9
I16
sg10
I3
sg11
I5
sg12
I25
sg13
I0
sg14
I3
sg15
g16
sg17
S'1x instrument - cleave'
p360
sg19
I1
sg20
I1
sa(dp361
g3
I5
sg4
S'Output 2'
p362
sg6
I250
sg7
I8
sg8
I114
sg9
I16
sg10
I3
sg11
I0
sg12
I25
sg13
I0
sg14
I2
sg15
g29
sg17
S'T4 ligase mix'
p363
sg19
I0
sg20
I0
sa(dp364
g3
I5
sg4
S'Waste 2'
p365
sg6
I1000
sg7
I9
sg8
I115
sg9
I8
sg10
I3
sg11
I0
sg12
I25
sg13
I0
sg14
I3
sg15
g29
sg17
S'1x instrument - ligase'
p366
sg19
I0
sg20
I0
sa(dp367
g3
I5
sg4
S'Waste 2'
p368
sg6
I1000
sg7
I9
sg8
I116
sg9
I8
sg10
I3
sg11
I0
sg12
I25
sg13
I0
sg14
I3
sg15
g29
sg17
S'1x instrument - ligase'
p369
sg19
I0
sg20
I0
sa(dp370
g3
I5
sg4
S'Waste 2'
p371
sg6
I1000
sg7
I9
sg8
I117
sg9
I8
sg10
I3
sg11
I0
sg12
I25
sg13
I0
sg14
I3
sg15
g29
sg17
S'1x instrument - ligase'
p372
sg19
I0
sg20
I0
sa(dp373
g3
I5
sg4
S'Waste 2'
p374
sg6
I1000
sg7
I9
sg8
I118
sg9
I8
sg10
I3
sg11
I45
sg12
I25
sg13
I0
sg14
I3
sg15
g29
sg17
S'1x instrument - ligase'
p375
sg19
I0
sg20
I0
sa(dp376
g3
I5
sg4
S'Waste 2'
p377
sg6
I400
sg7
I9
sg8
I119
sg9
I30
sg10
I3
sg11
I0
sg12
I25
sg13
I0
sg14
I8
sg15
g29
sg17
S'Output 2'
p378
sg19
I0
sg20
I0
sa(dp379
g3
I5
sg4
S'Waste 2'
p380
sg6
I1000
sg7
I9
sg8
I120
sg9
I8
sg10
I3
sg11
I0
sg12
I25
sg13
I0
sg14
I3
sg15
g29
sg17
S'1x instrument - ligase'
p381
sg19
I0
sg20
I0
sa(dp382
g3
I5
sg4
S'Waste 2'
p383
sg6
I1000
sg7
I9
sg8
I121
sg9
I8
sg10
I3
sg11
I0
sg12
I25
sg13
I0
sg14
I3
sg15
g29
sg17
S'1x instrument - ligase'
p384
sg19
I0
sg20
I0
sa(dp385
g3
I5
sg4
S'Waste 2'
p386
sg6
I1000
sg7
I9
sg8
I122
sg9
I8
sg10
I3
sg11
I0
sg12
I25
sg13
I0
sg14
I3
sg15
g29
sg17
S'1x instrument - ligase'
p387
sg19
I0
sg20
I0
sa(dp388
g3
I5
sg4
S'Output 2'
p389
sg6
I1000
sg7
I8
sg8
I123
sg9
I16
sg10
I3
sg11
I0
sg12
I25
sg13
I0
sg14
I3
sg15
g29
sg17
S'1x instrument - ligase'
p390
sg19
I1
sg20
I1
sa(dp391
g3
I5
sg4
S'Output 2'
p392
sg6
I1000
sg7
I8
sg8
I124
sg9
I16
sg10
I3
sg11
I0
sg12
I25
sg13
I0
sg14
I3
sg15
g29
sg17
S'1x instrument - ligase'
p393
sg19
I1
sg20
I1
sa(dp394
g3
I5
sg4
S'Output 2'
p395
sg6
I1000
sg7
I8
sg8
I125
sg9
I16
sg10
I3
sg11
I0
sg12
I25
sg13
I0
sg14
I3
sg15
g29
sg17
S'1x instrument - ligase'
p396
sg19
I1
sg20
I1
sa(dp397
g3
I5
sg4
S'Output 2'
p398
sg6
I1000
sg7
I8
sg8
I126
sg9
I16
sg10
I3
sg11
I0
sg12
I25
sg13
I0
sg14
I3
sg15
g29
sg17
S'1x instrument - ligase'
p399
sg19
I1
sg20
I1
sa(dp400
g3
I5
sg4
S'Output 2'
p401
sg6
I750
sg7
I8
sg8
I127
sg9
I16
sg10
I3
sg11
I0
sg12
I25
sg13
I0
sg14
I3
sg15
g29
sg17
S'1x instrument - ligase'
p402
sg19
I0
sg20
I0
sa(dp403
g3
I5
sg4
S'Waste 1'
p404
sg6
I900
sg7
I9
sg8
I128
sg9
I30
sg10
I4
sg11
I0
sg12
I25
sg13
I0
sg14
I8
sg15
g16
sg17
S'Output 1'
p405
sg19
I0
sg20
I0
sa(dp406
g3
I5
sg4
S'Waste 1'
p407
sg6
I1000
sg7
I9
sg8
I129
sg9
I8
sg10
I4
sg11
I0
sg12
I25
sg13
I0
sg14
I3
sg15
g16
sg17
S'1x instrument - cleave'
p408
sg19
I0
sg20
I0
sa(dp409
g3
I5
sg4
S'Waste 1'
p410
sg6
I1000
sg7
I9
sg8
I130
sg9
I8
sg10
I4
sg11
I0
sg12
I25
sg13
I0
sg14
I3
sg15
g16
sg17
S'1x instrument - cleave'
p411
sg19
I0
sg20
I0
sa(dp412
g3
I5
sg4
S'Waste 1'
p413
sg6
I1000
sg7
I9
sg8
I131
sg9
I8
sg10
I4
sg11
I0
sg12
I25
sg13
I0
sg14
I3
sg15
g16
sg17
S'1x instrument - cleave'
p414
sg19
I0
sg20
I0
sa(dp415
g3
I5
sg4
S'Output 1'
p416
sg6
I250
sg7
I8
sg8
I132
sg9
I16
sg10
I4
sg11
I5
sg12
I25
sg13
I0
sg14
I1
sg15
g16
sg17
S'cleave solution 1'
p417
sg19
I1
sg20
I1
sa(dp418
g3
I5
sg4
S'Waste 1'
p419
sg6
I1000
sg7
I9
sg8
I133
sg9
I8
sg10
I4
sg11
I0
sg12
I25
sg13
I0
sg14
I3
sg15
g16
sg17
S'1x instrument - cleave'
p420
sg19
I0
sg20
I0
sa(dp421
g3
I5
sg4
S'Waste 1'
p422
sg6
I1000
sg7
I9
sg8
I134
sg9
I8
sg10
I4
sg11
I0
sg12
I25
sg13
I0
sg14
I3
sg15
g16
sg17
S'1x instrument - cleave'
p423
sg19
I0
sg20
I0
sa(dp424
g3
I5
sg4
S'Waste 1'
p425
sg6
I1000
sg7
I9
sg8
I135
sg9
I8
sg10
I4
sg11
I0
sg12
I25
sg13
I0
sg14
I3
sg15
g16
sg17
S'1x instrument - cleave'
p426
sg19
I0
sg20
I0
sa(dp427
g3
I5
sg4
S'Output 1'
p428
sg6
I250
sg7
I8
sg8
I136
sg9
I16
sg10
I4
sg11
I5
sg12
I25
sg13
I0
sg14
I1
sg15
g16
sg17
S'cleave solution 1'
p429
sg19
I1
sg20
I1
sa(dp430
g3
I5
sg4
S'Waste 1'
p431
sg6
I1000
sg7
I9
sg8
I137
sg9
I8
sg10
I4
sg11
I0
sg12
I25
sg13
I0
sg14
I3
sg15
g16
sg17
S'1x instrument - cleave'
p432
sg19
I0
sg20
I0
sa(dp433
g3
I5
sg4
S'Waste 1'
p434
sg6
I1000
sg7
I9
sg8
I138
sg9
I8
sg10
I4
sg11
I0
sg12
I25
sg13
I0
sg14
I3
sg15
g16
sg17
S'1x instrument - cleave'
p435
sg19
I0
sg20
I0
sa(dp436
g3
I5
sg4
S'Waste 1'
p437
sg6
I1000
sg7
I9
sg8
I139
sg9
I8
sg10
I4
sg11
I0
sg12
I25
sg13
I0
sg14
I3
sg15
g16
sg17
S'1x instrument - cleave'
p438
sg19
I0
sg20
I0
sa(dp439
g3
I5
sg4
S'Output 1'
p440
sg6
I250
sg7
I8
sg8
I140
sg9
I16
sg10
I4
sg11
I5
sg12
I25
sg13
I0
sg14
I2
sg15
g16
sg17
S'cleave solution 2.1'
p441
sg19
I1
sg20
I1
sa(dp442
g3
I5
sg4
S'Waste 1'
p443
sg6
I1000
sg7
I9
sg8
I141
sg9
I8
sg10
I4
sg11
I0
sg12
I25
sg13
I0
sg14
I3
sg15
g16
sg17
S'1x instrument - cleave'
p444
sg19
I0
sg20
I0
sa(dp445
g3
I5
sg4
S'Waste 1'
p446
sg6
I1000
sg7
I9
sg8
I142
sg9
I8
sg10
I4
sg11
I0
sg12
I25
sg13
I0
sg14
I3
sg15
g16
sg17
S'1x instrument - cleave'
p447
sg19
I0
sg20
I0
sa(dp448
g3
I5
sg4
S'Waste 1'
p449
sg6
I1000
sg7
I9
sg8
I143
sg9
I8
sg10
I4
sg11
I0
sg12
I25
sg13
I0
sg14
I3
sg15
g16
sg17
S'1x instrument - cleave'
p450
sg19
I0
sg20
I0
sa(dp451
g3
I5
sg4
S'Output 1'
p452
sg6
I250
sg7
I8
sg8
I144
sg9
I16
sg10
I4
sg11
I5
sg12
I25
sg13
I0
sg14
I2
sg15
g16
sg17
S'cleave solution 2.1'
p453
sg19
I1
sg20
I1
sa(dp454
g3
I5
sg4
S'Waste 1'
p455
sg6
I1000
sg7
I9
sg8
I145
sg9
I16
sg10
I4
sg11
I0
sg12
I25
sg13
I0
sg14
I3
sg15
g16
sg17
S'1x instrument - cleave'
p456
sg19
I0
sg20
I0
sa(dp457
g3
I5
sg4
S'Waste 1'
p458
sg6
I1000
sg7
I9
sg8
I146
sg9
I16
sg10
I4
sg11
I0
sg12
I25
sg13
I0
sg14
I3
sg15
g16
sg17
S'1x instrument - cleave'
p459
sg19
I0
sg20
I0
sa(dp460
g3
I5
sg4
S'Waste 1'
p461
sg6
I1000
sg7
I9
sg8
I147
sg9
I16
sg10
I4
sg11
I0
sg12
I25
sg13
I0
sg14
I3
sg15
g16
sg17
S'1x instrument - cleave'
p462
sg19
I0
sg20
I0
sa(dp463
g3
I5
sg4
S'Output 1'
p464
sg6
I1000
sg7
I8
sg8
I148
sg9
I16
sg10
I4
sg11
I5
sg12
I25
sg13
I0
sg14
I3
sg15
g16
sg17
S'1x instrument - cleave'
p465
sg19
I1
sg20
I1
sa(dp466
g3
I5
sg4
S'Output 1'
p467
sg6
I1000
sg7
I8
sg8
I149
sg9
I16
sg10
I4
sg11
I5
sg12
I25
sg13
I0
sg14
I3
sg15
g16
sg17
S'1x instrument - cleave'
p468
sg19
I1
sg20
I1
sa(dp469
g3
I5
sg4
S'Output 1'
p470
sg6
I1000
sg7
I8
sg8
I150
sg9
I16
sg10
I4
sg11
I5
sg12
I25
sg13
I0
sg14
I3
sg15
g16
sg17
S'1x instrument - cleave'
p471
sg19
I1
sg20
I1
sa(dp472
g3
I5
sg4
S'Output 2'
p473
sg6
I250
sg7
I8
sg8
I151
sg9
I16
sg10
I4
sg11
I0
sg12
I25
sg13
I0
sg14
I2
sg15
g29
sg17
S'T4 ligase mix'
p474
sg19
I0
sg20
I0
sa(dp475
g3
I5
sg4
S'Waste 2'
p476
sg6
I1000
sg7
I9
sg8
I152
sg9
I8
sg10
I4
sg11
I0
sg12
I25
sg13
I0
sg14
I3
sg15
g29
sg17
S'1x instrument - ligase'
p477
sg19
I0
sg20
I0
sa(dp478
g3
I5
sg4
S'Waste 2'
p479
sg6
I1000
sg7
I9
sg8
I153
sg9
I8
sg10
I4
sg11
I0
sg12
I25
sg13
I0
sg14
I3
sg15
g29
sg17
S'1x instrument - ligase'
p480
sg19
I0
sg20
I0
sa(dp481
g3
I5
sg4
S'Waste 2'
p482
sg6
I1000
sg7
I9
sg8
I154
sg9
I8
sg10
I4
sg11
I0
sg12
I25
sg13
I0
sg14
I3
sg15
g29
sg17
S'1x instrument - ligase'
p483
sg19
I0
sg20
I0
sa(dp484
g3
I5
sg4
S'Waste 2'
p485
sg6
I1000
sg7
I9
sg8
I155
sg9
I8
sg10
I4
sg11
I45
sg12
I25
sg13
I0
sg14
I3
sg15
g29
sg17
S'1x instrument - ligase'
p486
sg19
I0
sg20
I0
sa(dp487
g3
I5
sg4
S'Waste 2'
p488
sg6
I400
sg7
I9
sg8
I156
sg9
I30
sg10
I4
sg11
I0
sg12
I25
sg13
I0
sg14
I8
sg15
g29
sg17
S'Output 2'
p489
sg19
I0
sg20
I0
sa(dp490
g3
I5
sg4
S'Waste 2'
p491
sg6
I1000
sg7
I9
sg8
I157
sg9
I8
sg10
I4
sg11
I0
sg12
I25
sg13
I0
sg14
I3
sg15
g29
sg17
S'1x instrument - ligase'
p492
sg19
I0
sg20
I0
sa(dp493
g3
I5
sg4
S'Waste 2'
p494
sg6
I1000
sg7
I9
sg8
I158
sg9
I8
sg10
I4
sg11
I0
sg12
I25
sg13
I0
sg14
I3
sg15
g29
sg17
S'1x instrument - ligase'
p495
sg19
I0
sg20
I0
sa(dp496
g3
I5
sg4
S'Waste 2'
p497
sg6
I1000
sg7
I9
sg8
I159
sg9
I8
sg10
I4
sg11
I0
sg12
I25
sg13
I0
sg14
I3
sg15
g29
sg17
S'1x instrument - ligase'
p498
sg19
I0
sg20
I0
sa(dp499
g3
I5
sg4
S'Output 2'
p500
sg6
I1000
sg7
I8
sg8
I160
sg9
I16
sg10
I4
sg11
I0
sg12
I25
sg13
I0
sg14
I3
sg15
g29
sg17
S'1x instrument - ligase'
p501
sg19
I1
sg20
I1
sa(dp502
g3
I5
sg4
S'Output 2'
p503
sg6
I1000
sg7
I8
sg8
I161
sg9
I16
sg10
I4
sg11
I0
sg12
I25
sg13
I0
sg14
I3
sg15
g29
sg17
S'1x instrument - ligase'
p504
sg19
I1
sg20
I1
sa(dp505
g3
I5
sg4
S'Output 2'
p506
sg6
I1000
sg7
I8
sg8
I162
sg9
I16
sg10
I4
sg11
I0
sg12
I25
sg13
I0
sg14
I3
sg15
g29
sg17
S'1x instrument - ligase'
p507
sg19
I1
sg20
I1
sa(dp508
g3
I5
sg4
S'Output 2'
p509
sg6
I1000
sg7
I8
sg8
I163
sg9
I16
sg10
I4
sg11
I0
sg12
I25
sg13
I0
sg14
I3
sg15
g29
sg17
S'1x instrument - ligase'
p510
sg19
I1
sg20
I1
sa(dp511
g3
I5
sg4
S'Output 2'
p512
sg6
I750
sg7
I8
sg8
I164
sg9
I16
sg10
I4
sg11
I0
sg12
I25
sg13
I0
sg14
I3
sg15
g29
sg17
S'1x instrument - ligase'
p513
sg19
I0
sg20
I0
sa(dp514
g3
I5
sg4
S'Waste 1'
p515
sg6
I900
sg7
I9
sg8
I165
sg9
I30
sg10
I5
sg11
I0
sg12
I25
sg13
I0
sg14
I8
sg15
g16
sg17
S'Output 1'
p516
sg19
I0
sg20
I0
sa(dp517
g3
I5
sg4
S'Waste 1'
p518
sg6
I1000
sg7
I9
sg8
I166
sg9
I8
sg10
I5
sg11
I0
sg12
I25
sg13
I0
sg14
I3
sg15
g16
sg17
S'1x instrument - cleave'
p519
sg19
I0
sg20
I0
sa(dp520
g3
I5
sg4
S'Waste 1'
p521
sg6
I1000
sg7
I9
sg8
I167
sg9
I8
sg10
I5
sg11
I0
sg12
I25
sg13
I0
sg14
I3
sg15
g16
sg17
S'1x instrument - cleave'
p522
sg19
I0
sg20
I0
sa(dp523
g3
I5
sg4
S'Waste 1'
p524
sg6
I1000
sg7
I9
sg8
I168
sg9
I8
sg10
I5
sg11
I0
sg12
I25
sg13
I0
sg14
I3
sg15
g16
sg17
S'1x instrument - cleave'
p525
sg19
I0
sg20
I0
sa(dp526
g3
I5
sg4
S'Output 1'
p527
sg6
I250
sg7
I8
sg8
I169
sg9
I16
sg10
I5
sg11
I5
sg12
I25
sg13
I0
sg14
I1
sg15
g16
sg17
S'cleave solution 1'
p528
sg19
I1
sg20
I1
sa(dp529
g3
I5
sg4
S'Waste 1'
p530
sg6
I1000
sg7
I9
sg8
I170
sg9
I8
sg10
I5
sg11
I0
sg12
I25
sg13
I0
sg14
I3
sg15
g16
sg17
S'1x instrument - cleave'
p531
sg19
I0
sg20
I0
sa(dp532
g3
I5
sg4
S'Waste 1'
p533
sg6
I1000
sg7
I9
sg8
I171
sg9
I8
sg10
I5
sg11
I0
sg12
I25
sg13
I0
sg14
I3
sg15
g16
sg17
S'1x instrument - cleave'
p534
sg19
I0
sg20
I0
sa(dp535
g3
I5
sg4
S'Waste 1'
p536
sg6
I1000
sg7
I9
sg8
I172
sg9
I8
sg10
I5
sg11
I0
sg12
I25
sg13
I0
sg14
I3
sg15
g16
sg17
S'1x instrument - cleave'
p537
sg19
I0
sg20
I0
sa(dp538
g3
I5
sg4
S'Output 1'
p539
sg6
I250
sg7
I8
sg8
I173
sg9
I16
sg10
I5
sg11
I5
sg12
I25
sg13
I0
sg14
I1
sg15
g16
sg17
S'cleave solution 1'
p540
sg19
I1
sg20
I1
sa(dp541
g3
I5
sg4
S'Waste 1'
p542
sg6
I1000
sg7
I9
sg8
I174
sg9
I8
sg10
I5
sg11
I0
sg12
I25
sg13
I0
sg14
I3
sg15
g16
sg17
S'1x instrument - cleave'
p543
sg19
I0
sg20
I0
sa(dp544
g3
I5
sg4
S'Waste 1'
p545
sg6
I1000
sg7
I9
sg8
I175
sg9
I8
sg10
I5
sg11
I0
sg12
I25
sg13
I0
sg14
I3
sg15
g16
sg17
S'1x instrument - cleave'
p546
sg19
I0
sg20
I0
sa(dp547
g3
I5
sg4
S'Waste 1'
p548
sg6
I1000
sg7
I9
sg8
I176
sg9
I8
sg10
I5
sg11
I0
sg12
I25
sg13
I0
sg14
I3
sg15
g16
sg17
S'1x instrument - cleave'
p549
sg19
I0
sg20
I0
sa(dp550
g3
I5
sg4
S'Output 1'
p551
sg6
I250
sg7
I8
sg8
I177
sg9
I16
sg10
I5
sg11
I5
sg12
I25
sg13
I0
sg14
I2
sg15
g16
sg17
S'cleave solution 2.1'
p552
sg19
I1
sg20
I1
sa(dp553
g3
I5
sg4
S'Waste 1'
p554
sg6
I1000
sg7
I9
sg8
I178
sg9
I8
sg10
I5
sg11
I0
sg12
I25
sg13
I0
sg14
I3
sg15
g16
sg17
S'1x instrument - cleave'
p555
sg19
I0
sg20
I0
sa(dp556
g3
I5
sg4
S'Waste 1'
p557
sg6
I1000
sg7
I9
sg8
I179
sg9
I8
sg10
I5
sg11
I0
sg12
I25
sg13
I0
sg14
I3
sg15
g16
sg17
S'1x instrument - cleave'
p558
sg19
I0
sg20
I0
sa(dp559
g3
I5
sg4
S'Waste 1'
p560
sg6
I1000
sg7
I9
sg8
I180
sg9
I8
sg10
I5
sg11
I0
sg12
I25
sg13
I0
sg14
I3
sg15
g16
sg17
S'1x instrument - cleave'
p561
sg19
I0
sg20
I0
sa(dp562
g3
I5
sg4
S'Output 1'
p563
sg6
I250
sg7
I8
sg8
I181
sg9
I16
sg10
I5
sg11
I5
sg12
I25
sg13
I0
sg14
I2
sg15
g16
sg17
S'cleave solution 2.1'
p564
sg19
I1
sg20
I1
sa(dp565
g3
I5
sg4
S'Waste 1'
p566
sg6
I1000
sg7
I9
sg8
I182
sg9
I16
sg10
I5
sg11
I0
sg12
I25
sg13
I0
sg14
I3
sg15
g16
sg17
S'1x instrument - cleave'
p567
sg19
I0
sg20
I0
sa(dp568
g3
I5
sg4
S'Waste 1'
p569
sg6
I1000
sg7
I9
sg8
I183
sg9
I16
sg10
I5
sg11
I0
sg12
I25
sg13
I0
sg14
I3
sg15
g16
sg17
S'1x instrument - cleave'
p570
sg19
I0
sg20
I0
sa(dp571
g3
I5
sg4
S'Waste 1'
p572
sg6
I1000
sg7
I9
sg8
I184
sg9
I16
sg10
I5
sg11
I0
sg12
I25
sg13
I0
sg14
I3
sg15
g16
sg17
S'1x instrument - cleave'
p573
sg19
I0
sg20
I0
sa(dp574
g3
I5
sg4
S'Output 1'
p575
sg6
I1000
sg7
I8
sg8
I185
sg9
I16
sg10
I5
sg11
I5
sg12
I25
sg13
I0
sg14
I3
sg15
g16
sg17
S'1x instrument - cleave'
p576
sg19
I1
sg20
I1
sa(dp577
g3
I5
sg4
S'Output 1'
p578
sg6
I1000
sg7
I8
sg8
I186
sg9
I16
sg10
I5
sg11
I5
sg12
I25
sg13
I0
sg14
I3
sg15
g16
sg17
S'1x instrument - cleave'
p579
sg19
I1
sg20
I1
sa(dp580
g3
I5
sg4
S'Output 1'
p581
sg6
I1000
sg7
I8
sg8
I187
sg9
I16
sg10
I5
sg11
I5
sg12
I25
sg13
I0
sg14
I3
sg15
g16
sg17
S'1x instrument - cleave'
p582
sg19
I1
sg20
I1
sa(dp583
g3
I5
sg4
S'Output 2'
p584
sg6
I250
sg7
I8
sg8
I188
sg9
I16
sg10
I5
sg11
I0
sg12
I25
sg13
I0
sg14
I2
sg15
g29
sg17
S'T4 ligase mix'
p585
sg19
I0
sg20
I0
sa(dp586
g3
I5
sg4
S'Waste 2'
p587
sg6
I1000
sg7
I9
sg8
I189
sg9
I8
sg10
I5
sg11
I0
sg12
I25
sg13
I0
sg14
I3
sg15
g29
sg17
S'1x instrument - ligase'
p588
sg19
I0
sg20
I0
sa(dp589
g3
I5
sg4
S'Waste 2'
p590
sg6
I1000
sg7
I9
sg8
I190
sg9
I8
sg10
I5
sg11
I0
sg12
I25
sg13
I0
sg14
I3
sg15
g29
sg17
S'1x instrument - ligase'
p591
sg19
I0
sg20
I0
sa(dp592
g3
I5
sg4
S'Waste 2'
p593
sg6
I1000
sg7
I9
sg8
I191
sg9
I8
sg10
I5
sg11
I0
sg12
I25
sg13
I0
sg14
I3
sg15
g29
sg17
S'1x instrument - ligase'
p594
sg19
I0
sg20
I0
sa(dp595
g3
I5
sg4
S'Waste 2'
p596
sg6
I1000
sg7
I9
sg8
I192
sg9
I8
sg10
I5
sg11
I45
sg12
I25
sg13
I0
sg14
I3
sg15
g29
sg17
S'1x instrument - ligase'
p597
sg19
I0
sg20
I0
sa(dp598
g3
I5
sg4
S'Waste 2'
p599
sg6
I400
sg7
I9
sg8
I193
sg9
I30
sg10
I5
sg11
I0
sg12
I25
sg13
I0
sg14
I8
sg15
g29
sg17
S'Output 2'
p600
sg19
I0
sg20
I0
sa(dp601
g3
I5
sg4
S'Waste 2'
p602
sg6
I1000
sg7
I9
sg8
I194
sg9
I8
sg10
I5
sg11
I0
sg12
I25
sg13
I0
sg14
I3
sg15
g29
sg17
S'1x instrument - ligase'
p603
sg19
I0
sg20
I0
sa(dp604
g3
I5
sg4
S'Waste 2'
p605
sg6
I1000
sg7
I9
sg8
I195
sg9
I8
sg10
I5
sg11
I0
sg12
I25
sg13
I0
sg14
I3
sg15
g29
sg17
S'1x instrument - ligase'
p606
sg19
I0
sg20
I0
sa(dp607
g3
I5
sg4
S'Waste 2'
p608
sg6
I1000
sg7
I9
sg8
I196
sg9
I8
sg10
I5
sg11
I0
sg12
I25
sg13
I0
sg14
I3
sg15
g29
sg17
S'1x instrument - ligase'
p609
sg19
I0
sg20
I0
sa(dp610
g3
I5
sg4
S'Output 2'
p611
sg6
I1000
sg7
I8
sg8
I197
sg9
I16
sg10
I5
sg11
I0
sg12
I25
sg13
I0
sg14
I3
sg15
g29
sg17
S'1x instrument - ligase'
p612
sg19
I1
sg20
I1
sa(dp613
g3
I5
sg4
S'Output 2'
p614
sg6
I1000
sg7
I8
sg8
I198
sg9
I16
sg10
I5
sg11
I0
sg12
I25
sg13
I0
sg14
I3
sg15
g29
sg17
S'1x instrument - ligase'
p615
sg19
I1
sg20
I1
sa(dp616
g3
I5
sg4
S'Output 2'
p617
sg6
I1000
sg7
I8
sg8
I199
sg9
I16
sg10
I5
sg11
I0
sg12
I25
sg13
I0
sg14
I3
sg15
g29
sg17
S'1x instrument - ligase'
p618
sg19
I1
sg20
I1
sa(dp619
g3
I5
sg4
S'Output 2'
p620
sg6
I1000
sg7
I8
sg8
I200
sg9
I16
sg10
I5
sg11
I0
sg12
I25
sg13
I0
sg14
I3
sg15
g29
sg17
S'1x instrument - ligase'
p621
sg19
I1
sg20
I1
sa(dp622
g3
I5
sg4
S'Output 2'
p623
sg6
I750
sg7
I8
sg8
I201
sg9
I16
sg10
I5
sg11
I0
sg12
I25
sg13
I0
sg14
I3
sg15
g29
sg17
S'1x instrument - ligase'
p624
sg19
I0
sg20
I0
sa(dp625
g3
I5
sg4
S'Waste 1'
p626
sg6
I900
sg7
I9
sg8
I202
sg9
I30
sg10
I6
sg11
I0
sg12
I25
sg13
I0
sg14
I8
sg15
g16
sg17
S'Output 1'
p627
sg19
I0
sg20
I0
sa(dp628
g3
I5
sg4
S'Waste 1'
p629
sg6
I1000
sg7
I9
sg8
I203
sg9
I8
sg10
I6
sg11
I0
sg12
I25
sg13
I0
sg14
I3
sg15
g16
sg17
S'1x instrument - cleave'
p630
sg19
I0
sg20
I0
sa(dp631
g3
I5
sg4
S'Waste 1'
p632
sg6
I1000
sg7
I9
sg8
I204
sg9
I8
sg10
I6
sg11
I0
sg12
I25
sg13
I0
sg14
I3
sg15
g16
sg17
S'1x instrument - cleave'
p633
sg19
I0
sg20
I0
sa(dp634
g3
I5
sg4
S'Waste 1'
p635
sg6
I1000
sg7
I9
sg8
I205
sg9
I8
sg10
I6
sg11
I0
sg12
I25
sg13
I0
sg14
I3
sg15
g16
sg17
S'1x instrument - cleave'
p636
sg19
I0
sg20
I0
sa(dp637
g3
I5
sg4
S'Output 1'
p638
sg6
I250
sg7
I8
sg8
I206
sg9
I16
sg10
I6
sg11
I5
sg12
I25
sg13
I0
sg14
I1
sg15
g16
sg17
S'cleave solution 1'
p639
sg19
I1
sg20
I1
sa(dp640
g3
I5
sg4
S'Waste 1'
p641
sg6
I1000
sg7
I9
sg8
I207
sg9
I8
sg10
I6
sg11
I0
sg12
I25
sg13
I0
sg14
I3
sg15
g16
sg17
S'1x instrument - cleave'
p642
sg19
I0
sg20
I0
sa(dp643
g3
I5
sg4
S'Waste 1'
p644
sg6
I1000
sg7
I9
sg8
I208
sg9
I8
sg10
I6
sg11
I0
sg12
I25
sg13
I0
sg14
I3
sg15
g16
sg17
S'1x instrument - cleave'
p645
sg19
I0
sg20
I0
sa(dp646
g3
I5
sg4
S'Waste 1'
p647
sg6
I1000
sg7
I9
sg8
I209
sg9
I8
sg10
I6
sg11
I0
sg12
I25
sg13
I0
sg14
I3
sg15
g16
sg17
S'1x instrument - cleave'
p648
sg19
I0
sg20
I0
sa(dp649
g3
I5
sg4
S'Output 1'
p650
sg6
I250
sg7
I8
sg8
I210
sg9
I16
sg10
I6
sg11
I5
sg12
I25
sg13
I0
sg14
I1
sg15
g16
sg17
S'cleave solution 1'
p651
sg19
I1
sg20
I1
sa(dp652
g3
I5
sg4
S'Waste 1'
p653
sg6
I1000
sg7
I9
sg8
I211
sg9
I8
sg10
I6
sg11
I0
sg12
I25
sg13
I0
sg14
I3
sg15
g16
sg17
S'1x instrument - cleave'
p654
sg19
I0
sg20
I0
sa(dp655
g3
I5
sg4
S'Waste 1'
p656
sg6
I1000
sg7
I9
sg8
I212
sg9
I8
sg10
I6
sg11
I0
sg12
I25
sg13
I0
sg14
I3
sg15
g16
sg17
S'1x instrument - cleave'
p657
sg19
I0
sg20
I0
sa(dp658
g3
I5
sg4
S'Waste 1'
p659
sg6
I1000
sg7
I9
sg8
I213
sg9
I8
sg10
I6
sg11
I0
sg12
I25
sg13
I0
sg14
I3
sg15
g16
sg17
S'1x instrument - cleave'
p660
sg19
I0
sg20
I0
sa(dp661
g3
I5
sg4
S'Output 1'
p662
sg6
I250
sg7
I8
sg8
I214
sg9
I16
sg10
I6
sg11
I5
sg12
I25
sg13
I0
sg14
I2
sg15
g16
sg17
S'cleave solution 2.1'
p663
sg19
I1
sg20
I1
sa(dp664
g3
I5
sg4
S'Waste 1'
p665
sg6
I1000
sg7
I9
sg8
I215
sg9
I8
sg10
I6
sg11
I0
sg12
I25
sg13
I0
sg14
I3
sg15
g16
sg17
S'1x instrument - cleave'
p666
sg19
I0
sg20
I0
sa(dp667
g3
I5
sg4
S'Waste 1'
p668
sg6
I1000
sg7
I9
sg8
I216
sg9
I8
sg10
I6
sg11
I0
sg12
I25
sg13
I0
sg14
I3
sg15
g16
sg17
S'1x instrument - cleave'
p669
sg19
I0
sg20
I0
sa(dp670
g3
I5
sg4
S'Waste 1'
p671
sg6
I1000
sg7
I9
sg8
I217
sg9
I8
sg10
I6
sg11
I0
sg12
I25
sg13
I0
sg14
I3
sg15
g16
sg17
S'1x instrument - cleave'
p672
sg19
I0
sg20
I0
sa(dp673
g3
I5
sg4
S'Output 1'
p674
sg6
I250
sg7
I8
sg8
I218
sg9
I16
sg10
I6
sg11
I5
sg12
I25
sg13
I0
sg14
I2
sg15
g16
sg17
S'cleave solution 2.1'
p675
sg19
I1
sg20
I1
sa(dp676
g3
I5
sg4
S'Waste 1'
p677
sg6
I1000
sg7
I9
sg8
I219
sg9
I16
sg10
I6
sg11
I0
sg12
I25
sg13
I0
sg14
I3
sg15
g16
sg17
S'1x instrument - cleave'
p678
sg19
I0
sg20
I0
sa(dp679
g3
I5
sg4
S'Waste 1'
p680
sg6
I1000
sg7
I9
sg8
I220
sg9
I16
sg10
I6
sg11
I0
sg12
I25
sg13
I0
sg14
I3
sg15
g16
sg17
S'1x instrument - cleave'
p681
sg19
I0
sg20
I0
sa(dp682
g3
I5
sg4
S'Waste 1'
p683
sg6
I1000
sg7
I9
sg8
I221
sg9
I16
sg10
I6
sg11
I0
sg12
I25
sg13
I0
sg14
I3
sg15
g16
sg17
S'1x instrument - cleave'
p684
sg19
I0
sg20
I0
sa(dp685
g3
I5
sg4
S'Output 1'
p686
sg6
I1000
sg7
I8
sg8
I222
sg9
I16
sg10
I6
sg11
I5
sg12
I25
sg13
I0
sg14
I3
sg15
g16
sg17
S'1x instrument - cleave'
p687
sg19
I1
sg20
I1
sa(dp688
g3
I5
sg4
S'Output 1'
p689
sg6
I1000
sg7
I8
sg8
I223
sg9
I16
sg10
I6
sg11
I5
sg12
I25
sg13
I0
sg14
I3
sg15
g16
sg17
S'1x instrument - cleave'
p690
sg19
I1
sg20
I1
sa(dp691
g3
I5
sg4
S'Output 1'
p692
sg6
I1000
sg7
I8
sg8
I224
sg9
I16
sg10
I6
sg11
I5
sg12
I25
sg13
I0
sg14
I3
sg15
g16
sg17
S'1x instrument - cleave'
p693
sg19
I1
sg20
I1
sa(dp694
g3
I5
sg4
S'Output 2'
p695
sg6
I250
sg7
I8
sg8
I225
sg9
I16
sg10
I6
sg11
I0
sg12
I25
sg13
I0
sg14
I2
sg15
g29
sg17
S'T4 ligase mix'
p696
sg19
I0
sg20
I0
sa(dp697
g3
I5
sg4
S'Waste 2'
p698
sg6
I1000
sg7
I9
sg8
I226
sg9
I8
sg10
I6
sg11
I0
sg12
I25
sg13
I0
sg14
I3
sg15
g29
sg17
S'1x instrument - ligase'
p699
sg19
I0
sg20
I0
sa(dp700
g3
I5
sg4
S'Waste 2'
p701
sg6
I1000
sg7
I9
sg8
I227
sg9
I8
sg10
I6
sg11
I0
sg12
I25
sg13
I0
sg14
I3
sg15
g29
sg17
S'1x instrument - ligase'
p702
sg19
I0
sg20
I0
sa(dp703
g3
I5
sg4
S'Waste 2'
p704
sg6
I1000
sg7
I9
sg8
I228
sg9
I8
sg10
I6
sg11
I0
sg12
I25
sg13
I0
sg14
I3
sg15
g29
sg17
S'1x instrument - ligase'
p705
sg19
I0
sg20
I0
sa(dp706
g3
I5
sg4
S'Waste 2'
p707
sg6
I1000
sg7
I9
sg8
I229
sg9
I8
sg10
I6
sg11
I45
sg12
I25
sg13
I0
sg14
I3
sg15
g29
sg17
S'1x instrument - ligase'
p708
sg19
I0
sg20
I0
sa(dp709
g3
I5
sg4
S'Waste 2'
p710
sg6
I400
sg7
I9
sg8
I230
sg9
I30
sg10
I6
sg11
I0
sg12
I25
sg13
I0
sg14
I8
sg15
g29
sg17
S'Output 2'
p711
sg19
I0
sg20
I0
sa(dp712
g3
I5
sg4
S'Waste 2'
p713
sg6
I1000
sg7
I9
sg8
I231
sg9
I8
sg10
I6
sg11
I0
sg12
I25
sg13
I0
sg14
I3
sg15
g29
sg17
S'1x instrument - ligase'
p714
sg19
I0
sg20
I0
sa(dp715
g3
I5
sg4
S'Waste 2'
p716
sg6
I1000
sg7
I9
sg8
I232
sg9
I8
sg10
I6
sg11
I0
sg12
I25
sg13
I0
sg14
I3
sg15
g29
sg17
S'1x instrument - ligase'
p717
sg19
I0
sg20
I0
sa(dp718
g3
I5
sg4
S'Waste 2'
p719
sg6
I1000
sg7
I9
sg8
I233
sg9
I8
sg10
I6
sg11
I0
sg12
I25
sg13
I0
sg14
I3
sg15
g29
sg17
S'1x instrument - ligase'
p720
sg19
I0
sg20
I0
sa(dp721
g3
I5
sg4
S'Output 2'
p722
sg6
I1000
sg7
I8
sg8
I234
sg9
I16
sg10
I6
sg11
I0
sg12
I25
sg13
I0
sg14
I3
sg15
g29
sg17
S'1x instrument - ligase'
p723
sg19
I1
sg20
I1
sa(dp724
g3
I5
sg4
S'Output 2'
p725
sg6
I1000
sg7
I8
sg8
I235
sg9
I16
sg10
I6
sg11
I0
sg12
I25
sg13
I0
sg14
I3
sg15
g29
sg17
S'1x instrument - ligase'
p726
sg19
I1
sg20
I1
sa(dp727
g3
I5
sg4
S'Output 2'
p728
sg6
I1000
sg7
I8
sg8
I236
sg9
I16
sg10
I6
sg11
I0
sg12
I25
sg13
I0
sg14
I3
sg15
g29
sg17
S'1x instrument - ligase'
p729
sg19
I1
sg20
I1
sa(dp730
g3
I5
sg4
S'Output 2'
p731
sg6
I1000
sg7
I8
sg8
I237
sg9
I16
sg10
I6
sg11
I0
sg12
I25
sg13
I0
sg14
I3
sg15
g29
sg17
S'1x instrument - ligase'
p732
sg19
I1
sg20
I1
sa(dp733
g3
I5
sg4
S'Output 2'
p734
sg6
I750
sg7
I8
sg8
I238
sg9
I16
sg10
I6
sg11
I0
sg12
I25
sg13
I0
sg14
I3
sg15
g29
sg17
S'1x instrument - ligase'
p735
sg19
I0
sg20
I0
sa.