(lp1
(dp2
S'reagent'
p3
S'Cleave solution 1'
p4
sS'pump'
p5
S'/dev/ttyUSB1'
p6
sS'port'
p7
I1
sa(dp8
g3
S'Cleave 2 part 1'
p9
sg5
g6
sg7
I2
sa(dp10
g3
S'Cleave 2 part 2'
p11
sg5
g6
sg7
I3
sa(dp12
g3
S'Cleave solution 2.1'
p13
sg5
g6
sg7
I4
sa(dp14
g3
S'1x instrument - cleave'
p15
sg5
g6
sg7
I5
sa(dp16
g3
S'dH2O - cleave'
p17
sg5
g6
sg7
I6
sa(dp18
g3
S'Air 1'
p19
sg5
g6
sg7
I7
sa(dp20
g3
S'Output 1'
p21
sg5
g6
sg7
I8
sa(dp22
g3
S'Waste 1'
p23
sg5
g6
sg7
I9
sa(dp24
g3
S''
sg5
S'/dev/ttyUSB0'
p25
sg7
I1
sa(dp26
g3
S'T4 ligase mix'
p27
sg5
g25
sg7
I2
sa(dp28
g3
S'1x instrument - ligase'
p29
sg5
g25
sg7
I3
sa(dp30
g3
S'dH2O - ligase'
p31
sg5
g25
sg7
I4
sa(dp32
g3
S'Imaging buffer'
p33
sg5
g25
sg7
I5
sa(dp34
g3
S''
sg5
g25
sg7
I6
sa(dp35
g3
S'Air 2'
p36
sg5
g25
sg7
I7
sa(dp37
g3
S'Output 2'
p38
sg5
g25
sg7
I8
sa(dp39
g3
S'Waste 2'
p40
sg5
g25
sg7
I9
sa.(lp1
(dp2
S'volume'
p3
I1000
sS'waitsecs'
p4
I5
sS'heatwhen'
p5
I0
sS'toportreagent'
p6
S'Waste 2'
p7
sS'waitmins'
p8
I0
sS'fromport'
p9
I8
sS'pump'
p10
S'/dev/ttyUSB0'
p11
sS'temp'
p12
I25
sS'type'
p13
I0
sS'toport'
p14
I9
sS'cmdnumber'
p15
I0
sS'waste'
p16
I0
sS'speed'
p17
I30
sS'fromportreagent'
p18
S'Output 2'
p19
sS'cycle'
p20
I0
sa(dp21
g3
I1000
sg4
I5
sg5
I0
sg6
g7
sg8
I0
sg9
I3
sg10
g11
sg12
I25
sg13
I0
sg14
I9
sg15
I1
sg16
I0
sg17
I8
sg18
S'1x instrument - ligase'
p22
sg20
I0
sa(dp23
g3
I250
sg4
I5
sg5
I0
sg6
g19
sg8
I0
sg9
I2
sg10
g11
sg12
I25
sg13
I0
sg14
I8
sg15
I2
sg16
I0
sg17
I16
sg18
S'T4 ligase mix'
p24
sg20
I0
sa(dp25
g3
I35
sg4
I5
sg5
I0
sg6
g19
sg8
I0
sg9
I7
sg10
g11
sg12
I25
sg13
I0
sg14
I8
sg15
I3
sg16
I0
sg17
I25
sg18
S'Air 2'
p26
sg20
I0
sa(dp27
g3
I1000
sg4
I5
sg5
I0
sg6
g7
sg8
I0
sg9
I3
sg10
g11
sg12
I25
sg13
I0
sg14
I9
sg15
I4
sg16
I0
sg17
I8
sg18
g22
sg20
I0
sa(dp28
g3
I1000
sg4
I5
sg5
I0
sg6
g7
sg8
I0
sg9
I3
sg10
g11
sg12
I25
sg13
I0
sg14
I9
sg15
I5
sg16
I0
sg17
I8
sg18
g22
sg20
I0
sa(dp29
g3
I1000
sg4
I5
sg5
I0
sg6
g7
sg8
I0
sg9
I3
sg10
g11
sg12
I25
sg13
I0
sg14
I9
sg15
I6
sg16
I0
sg17
I8
sg18
g22
sg20
I0
sa(dp30
g3
I1000
sg4
I5
sg5
I0
sg6
g7
sg8
I0
sg9
I3
sg10
g11
sg12
I25
sg13
I0
sg14
I9
sg15
I7
sg16
I0
sg17
I8
sg18
g22
sg20
I0
sa(dp31
g3
I1000
sg4
I5
sg5
I0
sg6
g7
sg8
I45
sg9
I3
sg10
g11
sg12
I25
sg13
I0
sg14
I9
sg15
I8
sg16
I0
sg17
I8
sg18
g22
sg20
I0
sa(dp32
g3
I350
sg4
I5
sg5
I0
sg6
g7
sg8
I0
sg9
I8
sg10
g11
sg12
I25
sg13
I0
sg14
I9
sg15
I9
sg16
I0
sg17
I30
sg18
g19
sg20
I0
sa(dp33
g3
I1000
sg4
I5
sg5
I0
sg6
g7
sg8
I0
sg9
I3
sg10
g11
sg12
I25
sg13
I0
sg14
I9
sg15
I10
sg16
I0
sg17
I8
sg18
g22
sg20
I0
sa(dp34
g3
I1000
sg4
I5
sg5
I0
sg6
g7
sg8
I0
sg9
I3
sg10
g11
sg12
I25
sg13
I0
sg14
I9
sg15
I11
sg16
I0
sg17
I8
sg18
g22
sg20
I0
sa(dp35
g3
I1000
sg4
I5
sg5
I0
sg6
g7
sg8
I0
sg9
I3
sg10
g11
sg12
I25
sg13
I0
sg14
I9
sg15
I12
sg16
I0
sg17
I8
sg18
g22
sg20
I0
sa(dp36
g3
I1000
sg4
I5
sg5
I0
sg6
g7
sg8
I0
sg9
I3
sg10
g11
sg12
I25
sg13
I0
sg14
I9
sg15
I13
sg16
I0
sg17
I8
sg18
g22
sg20
I0
sa(dp37
g3
I250
sg4
I5
sg5
I0
sg6
g19
sg8
I0
sg9
I3
sg10
g11
sg12
I25
sg13
I1
sg14
I8
sg15
I14
sg16
I0
sg17
I16
sg18
g22
sg20
I0
sa(dp38
g3
I250
sg4
I5
sg5
I0
sg6
g19
sg8
I0
sg9
I3
sg10
g11
sg12
I25
sg13
I1
sg14
I8
sg15
I15
sg16
I0
sg17
I16
sg18
g22
sg20
I0
sa(dp39
g3
I1000
sg4
I5
sg5
I0
sg6
g19
sg8
I5
sg9
I3
sg10
g11
sg12
I25
sg13
I1
sg14
I8
sg15
I16
sg16
I0
sg17
I16
sg18
g22
sg20
I0
sa(dp40
g3
I1000
sg4
I5
sg5
I0
sg6
g19
sg8
I5
sg9
I3
sg10
g11
sg12
I25
sg13
I1
sg14
I8
sg15
I17
sg16
I0
sg17
I16
sg18
g22
sg20
I0
sa(dp41
g3
I1000
sg4
I5
sg5
I0
sg6
g19
sg8
I5
sg9
I3
sg10
g11
sg12
I25
sg13
I1
sg14
I8
sg15
I18
sg16
I0
sg17
I16
sg18
g22
sg20
I0
sa(dp42
g3
I1000
sg4
I5
sg5
I0
sg6
g19
sg8
I5
sg9
I3
sg10
g11
sg12
I25
sg13
I1
sg14
I8
sg15
I19
sg16
I0
sg17
I16
sg18
g22
sg20
I0
sa(dp43
g3
I1000
sg4
I5
sg5
I0
sg6
g7
sg8
I0
sg9
I8
sg10
g11
sg12
I25
sg13
I0
sg14
I9
sg15
I20
sg16
I0
sg17
I30
sg18
g19
sg20
I0
sa(dp44
g3
I750
sg4
I5
sg5
I0
sg6
g19
sg8
I0
sg9
I5
sg10
g11
sg12
I25
sg13
I0
sg14
I8
sg15
I21
sg16
I0
sg17
I16
sg18
S'Imaging buffer'
p45
sg20
I0
sa(dp46
g8
I0
sg4
I5
sg5
I0
sg6
g7
sg3
I1000
sg9
I8
sg10
g11
sg12
I25
sg14
I9
sg15
I22
sg16
I0
sg13
I0
sg18
g19
sg17
I30
sg20
I1
sa(dp47
g8
I0
sg4
I5
sg5
I0
sg6
S'Cleave solution 1'
p48
sg3
I700
sg9
I1
sg10
S'/dev/ttyUSB1'
p49
sg12
I25
sg14
I1
sg15
I23
sg16
I0
sg13
I0
sg18
g48
sg17
I21
sg20
I1
sa(dp50
g8
I0
sg4
I5
sg5
I0
sg6
S'Output 1'
p51
sg3
I300
sg9
I1
sg10
g49
sg12
I25
sg14
I8
sg15
I24
sg16
I0
sg13
I0
sg18
g48
sg17
I20
sg20
I1
sa(dp52
g8
I5
sg4
I5
sg5
I0
sg6
g51
sg3
I35
sg9
I7
sg10
g49
sg12
I25
sg14
I8
sg15
I25
sg16
I0
sg13
I0
sg18
S'Air 1'
p53
sg17
I25
sg20
I1
sa(dp54
g8
I0
sg4
I5
sg5
I0
sg6
g7
sg3
I400
sg9
I8
sg10
g11
sg12
I25
sg14
I9
sg15
I26
sg16
I0
sg13
I0
sg18
g19
sg17
I30
sg20
I1
sa(dp55
g8
I0
sg4
I5
sg5
I0
sg6
g51
sg3
I300
sg9
I1
sg10
g49
sg12
I25
sg14
I8
sg15
I27
sg16
I0
sg13
I0
sg18
g48
sg17
I20
sg20
I1
sa(dp56
g8
I5
sg4
I5
sg5
I0
sg6
g51
sg3
I35
sg9
I7
sg10
g49
sg12
I25
sg14
I8
sg15
I28
sg16
I0
sg13
I0
sg18
g53
sg17
I25
sg20
I1
sa(dp57
g8
I0
sg4
I5
sg5
I0
sg6
g7
sg3
I400
sg9
I8
sg10
g11
sg12
I25
sg14
I9
sg15
I29
sg16
I0
sg13
I0
sg18
g19
sg17
I30
sg20
I1
sa(dp58
g8
I0
sg4
I5
sg5
I0
sg6
S'Waste 1'
p59
sg3
I4000
sg9
I6
sg10
g49
sg12
I25
sg14
I9
sg15
I30
sg16
I0
sg13
I0
sg18
S'dH2O - cleave'
p60
sg17
I8
sg20
I1
sa(dp61
g8
I0
sg4
I5
sg5
I0
sg6
g59
sg3
I4000
sg9
I6
sg10
g49
sg12
I25
sg14
I9
sg15
I31
sg16
I0
sg13
I0
sg18
g60
sg17
I8
sg20
I1
sa(dp62
g8
I0
sg4
I5
sg5
I0
sg6
g59
sg3
I4000
sg9
I5
sg10
g49
sg12
I25
sg14
I9
sg15
I32
sg16
I0
sg13
I0
sg18
S'1x instrument - cleave'
p63
sg17
I8
sg20
I1
sa(dp64
g8
I0
sg4
I5
sg5
I0
sg6
g59
sg3
I4000
sg9
I5
sg10
g49
sg12
I25
sg14
I9
sg15
I33
sg16
I0
sg13
I0
sg18
g63
sg17
I8
sg20
I1
sa(dp65
g8
I0
sg4
I5
sg5
I0
sg6
g51
sg3
I900
sg9
I5
sg10
g49
sg12
I25
sg14
I8
sg15
I34
sg16
I0
sg13
I0
sg18
g63
sg17
I20
sg20
I1
sa(dp66
g8
I0
sg4
I5
sg5
I0
sg6
g48
sg3
I700
sg9
I7
sg10
g49
sg12
I25
sg14
I1
sg15
I35
sg16
I0
sg13
I0
sg18
g53
sg17
I21
sg20
I1
sa(dp67
g8
I0
sg4
I5
sg5
I0
sg6
S'Cleave 2 part 1'
p68
sg3
I700
sg9
I2
sg10
g49
sg12
I25
sg14
I2
sg15
I36
sg16
I0
sg13
I0
sg18
g68
sg17
I21
sg20
I1
sa(dp69
g8
I0
sg4
I5
sg5
I0
sg6
S'Cleave solution 2.1'
p70
sg3
I270
sg9
I2
sg10
g49
sg12
I25
sg14
I4
sg15
I37
sg16
I0
sg13
I0
sg18
g68
sg17
I20
sg20
I1
sa(dp71
g8
I0
sg4
I5
sg5
I0
sg6
g70
sg3
I700
sg9
I7
sg10
g49
sg12
I25
sg14
I4
sg15
I38
sg16
I0
sg13
I0
sg18
g53
sg17
I21
sg20
I1
sa(dp72
g8
I0
sg4
I5
sg5
I0
sg6
g68
sg3
I700
sg9
I7
sg10
g49
sg12
I25
sg14
I2
sg15
I39
sg16
I0
sg13
I0
sg18
g53
sg17
I21
sg20
I1
sa(dp73
g8
I0
sg4
I5
sg5
I0
sg6
g59
sg3
I4000
sg9
I6
sg10
g49
sg12
I25
sg14
I9
sg15
I40
sg16
I0
sg13
I0
sg18
g60
sg17
I8
sg20
I1
sa(dp74
g8
I0
sg4
I5
sg5
I0
sg6
g59
sg3
I4000
sg9
I6
sg10
g49
sg12
I25
sg14
I9
sg15
I41
sg16
I0
sg13
I0
sg18
g60
sg17
I8
sg20
I1
sa(dp75
g8
I0
sg4
I5
sg5
I0
sg6
g59
sg3
I4000
sg9
I5
sg10
g49
sg12
I25
sg14
I9
sg15
I42
sg16
I0
sg13
I0
sg18
g63
sg17
I8
sg20
I1
sa(dp76
g8
I0
sg4
I5
sg5
I0
sg6
g59
sg3
I4000
sg9
I5
sg10
g49
sg12
I25
sg14
I9
sg15
I43
sg16
I0
sg13
I0
sg18
g63
sg17
I8
sg20
I1
sa(dp77
g8
I0
sg4
I5
sg5
I0
sg6
S'Cleave 2 part 2'
p78
sg3
I700
sg9
I3
sg10
g49
sg12
I25
sg14
I3
sg15
I44
sg16
I0
sg13
I0
sg18
g78
sg17
I21
sg20
I1
sa(dp79
g8
I0
sg4
I5
sg5
I0
sg6
g70
sg3
I750
sg9
I3
sg10
g49
sg12
I25
sg14
I4
sg15
I45
sg16
I0
sg13
I0
sg18
g78
sg17
I20
sg20
I1
sa(dp80
g8
I0
sg4
I5
sg5
I0
sg6
g70
sg3
I700
sg9
I7
sg10
g49
sg12
I25
sg14
I4
sg15
I46
sg16
I0
sg13
I0
sg18
g53
sg17
I21
sg20
I1
sa(dp81
g8
I0
sg4
I5
sg5
I0
sg6
g78
sg3
I700
sg9
I7
sg10
g49
sg12
I25
sg14
I3
sg15
I47
sg16
I0
sg13
I0
sg18
g53
sg17
I21
sg20
I1
sa(dp82
g8
I0
sg4
I5
sg5
I0
sg6
g70
sg3
I4500
sg9
I7
sg10
g49
sg12
I25
sg14
I4
sg15
I48
sg16
I0
sg13
I0
sg18
g53
sg17
I8
sg20
I1
sa(dp83
g8
I0
sg4
I5
sg5
I0
sg6
g7
sg3
I1000
sg9
I8
sg10
g11
sg12
I25
sg14
I9
sg15
I49
sg16
I0
sg13
I0
sg18
g19
sg17
I30
sg20
I1
sa(dp84
g8
I0
sg4
I5
sg5
I0
sg6
g70
sg3
I700
sg9
I4
sg10
g49
sg12
I25
sg14
I4
sg15
I50
sg16
I0
sg13
I0
sg18
g70
sg17
I21
sg20
I1
sa(dp85
g8
I0
sg4
I5
sg5
I0
sg6
g51
sg3
I300
sg9
I4
sg10
g49
sg12
I25
sg14
I8
sg15
I51
sg16
I0
sg13
I0
sg18
g70
sg17
I20
sg20
I1
sa(dp86
g8
I0
sg4
I5
sg5
I0
sg6
g51
sg3
I35
sg9
I7
sg10
g49
sg12
I25
sg14
I8
sg15
I52
sg16
I0
sg13
I0
sg18
g53
sg17
I25
sg20
I1
sa(dp87
g8
I5
sg4
I5
sg5
I0
sg6
g70
sg3
I700
sg9
I7
sg10
g49
sg12
I25
sg14
I4
sg15
I53
sg16
I0
sg13
I0
sg18
g53
sg17
I21
sg20
I1
sa(dp88
g8
I0
sg4
I5
sg5
I0
sg6
g7
sg3
I400
sg9
I8
sg10
g11
sg12
I25
sg14
I9
sg15
I54
sg16
I0
sg13
I0
sg18
g19
sg17
I30
sg20
I1
sa(dp89
g8
I0
sg4
I5
sg5
I0
sg6
g70
sg3
I700
sg9
I4
sg10
g49
sg12
I25
sg14
I4
sg15
I55
sg16
I0
sg13
I0
sg18
g70
sg17
I21
sg20
I1
sa(dp90
g8
I0
sg4
I5
sg5
I0
sg6
g51
sg3
I300
sg9
I4
sg10
g49
sg12
I25
sg14
I8
sg15
I56
sg16
I0
sg13
I0
sg18
g70
sg17
I20
sg20
I1
sa(dp91
g8
I0
sg4
I5
sg5
I0
sg6
g51
sg3
I35
sg9
I7
sg10
g49
sg12
I25
sg14
I8
sg15
I57
sg16
I0
sg13
I0
sg18
g53
sg17
I25
sg20
I1
sa(dp92
g8
I5
sg4
I5
sg5
I0
sg6
g70
sg3
I700
sg9
I7
sg10
g49
sg12
I25
sg14
I4
sg15
I58
sg16
I0
sg13
I0
sg18
g53
sg17
I21
sg20
I1
sa(dp93
g8
I0
sg4
I5
sg5
I0
sg6
g7
sg3
I400
sg9
I8
sg10
g11
sg12
I25
sg14
I9
sg15
I59
sg16
I0
sg13
I0
sg18
g19
sg17
I30
sg20
I1
sa(dp94
g8
I0
sg4
I5
sg5
I0
sg6
g59
sg3
I2000
sg9
I4
sg10
g49
sg12
I25
sg14
I9
sg15
I60
sg16
I0
sg13
I0
sg18
g70
sg17
I16
sg20
I1
sa(dp95
g8
I0
sg4
I5
sg5
I0
sg6
g59
sg3
I4000
sg9
I6
sg10
g49
sg12
I25
sg14
I9
sg15
I61
sg16
I0
sg13
I0
sg18
g60
sg17
I8
sg20
I1
sa(dp96
g8
I0
sg4
I5
sg5
I0
sg6
g59
sg3
I4000
sg9
I6
sg10
g49
sg12
I25
sg14
I9
sg15
I62
sg16
I0
sg13
I0
sg18
g60
sg17
I8
sg20
I1
sa(dp97
g8
I0
sg4
I5
sg5
I0
sg6
g59
sg3
I4000
sg9
I5
sg10
g49
sg12
I25
sg14
I9
sg15
I63
sg16
I0
sg13
I0
sg18
g63
sg17
I8
sg20
I1
sa(dp98
g8
I0
sg4
I5
sg5
I0
sg6
g59
sg3
I4000
sg9
I5
sg10
g49
sg12
I25
sg14
I9
sg15
I64
sg16
I0
sg13
I0
sg18
g63
sg17
I8
sg20
I1
sa(dp99
g8
I5
sg4
I5
sg5
I0
sg6
g51
sg3
I900
sg9
I5
sg10
g49
sg12
I25
sg14
I8
sg15
I65
sg16
I0
sg13
I0
sg18
g63
sg17
I20
sg20
I1
sa(dp100
g8
I0
sg4
I5
sg5
I0
sg6
g7
sg3
I1000
sg9
I8
sg10
g11
sg12
I25
sg14
I9
sg15
I66
sg16
I0
sg13
I0
sg18
g19
sg17
I30
sg20
I1
sa(dp101
g8
I5
sg4
I5
sg5
I0
sg6
g51
sg3
I900
sg9
I5
sg10
g49
sg12
I25
sg14
I8
sg15
I67
sg16
I0
sg13
I0
sg18
g63
sg17
I20
sg20
I1
sa(dp102
g8
I0
sg4
I5
sg5
I0
sg6
g7
sg3
I1000
sg9
I8
sg10
g11
sg12
I25
sg14
I9
sg15
I68
sg16
I0
sg13
I0
sg18
g19
sg17
I30
sg20
I1
sa(dp103
g8
I5
sg4
I5
sg5
I0
sg6
g51
sg3
I900
sg9
I5
sg10
g49
sg12
I25
sg14
I8
sg15
I69
sg16
I0
sg13
I0
sg18
g63
sg17
I20
sg20
I1
sa(dp104
g8
I0
sg4
I5
sg5
I0
sg6
g7
sg3
I1000
sg9
I8
sg10
g11
sg12
I25
sg14
I9
sg15
I70
sg16
I0
sg13
I0
sg18
g19
sg17
I30
sg20
I1
sa(dp105
g8
I0
sg4
I5
sg5
I0
sg6
g7
sg3
I1000
sg9
I4
sg10
g11
sg12
I25
sg14
I9
sg15
I71
sg16
I0
sg13
I0
sg18
S'dH2O - ligase'
p106
sg17
I8
sg20
I1
sa(dp107
g8
I0
sg4
I5
sg5
I0
sg6
g7
sg3
I1000
sg9
I4
sg10
g11
sg12
I25
sg14
I9
sg15
I72
sg16
I0
sg13
I0
sg18
g106
sg17
I8
sg20
I1
sa(dp108
g8
I0
sg4
I5
sg5
I0
sg6
g7
sg3
I1000
sg9
I4
sg10
g11
sg12
I25
sg14
I9
sg15
I73
sg16
I0
sg13
I0
sg18
g106
sg17
I8
sg20
I1
sa(dp109
g8
I0
sg4
I5
sg5
I0
sg6
g7
sg3
I1000
sg9
I4
sg10
g11
sg12
I25
sg14
I9
sg15
I74
sg16
I0
sg13
I0
sg18
g106
sg17
I8
sg20
I1
sa(dp110
g8
I0
sg4
I5
sg5
I0
sg6
g7
sg3
I1000
sg9
I3
sg10
g11
sg12
I25
sg14
I9
sg15
I75
sg16
I0
sg13
I0
sg18
g22
sg17
I8
sg20
I1
sa(dp111
g8
I0
sg4
I5
sg5
I0
sg6
g7
sg3
I1000
sg9
I3
sg10
g11
sg12
I25
sg14
I9
sg15
I76
sg16
I0
sg13
I0
sg18
g22
sg17
I8
sg20
I1
sa(dp112
g8
I0
sg4
I5
sg5
I0
sg6
g7
sg3
I1000
sg9
I3
sg10
g11
sg12
I25
sg14
I9
sg15
I77
sg16
I0
sg13
I0
sg18
g22
sg17
I8
sg20
I1
sa(dp113
g8
I0
sg4
I5
sg5
I0
sg6
g7
sg3
I1000
sg9
I3
sg10
g11
sg12
I25
sg14
I9
sg15
I78
sg16
I0
sg13
I0
sg18
g22
sg17
I8
sg20
I1
sa(dp114
g8
I0
sg4
I5
sg5
I0
sg6
g7
sg3
I1000
sg9
I3
sg10
g11
sg12
I25
sg14
I9
sg15
I79
sg16
I0
sg13
I0
sg18
g22
sg17
I8
sg20
I1
sa(dp115
g8
I0
sg4
I5
sg5
I0
sg6
g51
sg3
I900
sg9
I5
sg10
g49
sg12
I25
sg14
I8
sg15
I80
sg16
I0
sg13
I0
sg18
g63
sg17
I20
sg20
I1
sa(dp116
g8
I0
sg4
I5
sg5
I0
sg6
g7
sg3
I1000
sg9
I8
sg10
g11
sg12
I25
sg14
I9
sg15
I81
sg16
I0
sg13
I0
sg18
g19
sg17
I30
sg20
I2
sa(dp117
g8
I0
sg4
I5
sg5
I0
sg6
g7
sg3
I1000
sg9
I3
sg10
g11
sg12
I25
sg14
I9
sg15
I82
sg16
I0
sg13
I0
sg18
g22
sg17
I8
sg20
I2
sa(dp118
g8
I0
sg4
I5
sg5
I0
sg6
g19
sg3
I250
sg9
I2
sg10
g11
sg12
I25
sg14
I8
sg15
I83
sg16
I0
sg13
I0
sg18
g24
sg17
I16
sg20
I2
sa(dp119
g8
I0
sg4
I5
sg5
I0
sg6
g19
sg3
I35
sg9
I7
sg10
g11
sg12
I25
sg14
I8
sg15
I84
sg16
I0
sg13
I0
sg18
g26
sg17
I25
sg20
I2
sa(dp120
g8
I0
sg4
I5
sg5
I0
sg6
g7
sg3
I1000
sg9
I3
sg10
g11
sg12
I25
sg14
I9
sg15
I85
sg16
I0
sg13
I0
sg18
g22
sg17
I8
sg20
I2
sa(dp121
g8
I0
sg4
I5
sg5
I0
sg6
g7
sg3
I1000
sg9
I3
sg10
g11
sg12
I25
sg14
I9
sg15
I86
sg16
I0
sg13
I0
sg18
g22
sg17
I8
sg20
I2
sa(dp122
g8
I0
sg4
I5
sg5
I0
sg6
g7
sg3
I1000
sg9
I3
sg10
g11
sg12
I25
sg14
I9
sg15
I87
sg16
I0
sg13
I0
sg18
g22
sg17
I8
sg20
I2
sa(dp123
g8
I0
sg4
I5
sg5
I0
sg6
g7
sg3
I1000
sg9
I3
sg10
g11
sg12
I25
sg14
I9
sg15
I88
sg16
I0
sg13
I0
sg18
g22
sg17
I8
sg20
I2
sa(dp124
g8
I45
sg4
I5
sg5
I0
sg6
g7
sg3
I1000
sg9
I3
sg10
g11
sg12
I25
sg14
I9
sg15
I89
sg16
I0
sg13
I0
sg18
g22
sg17
I8
sg20
I2
sa(dp125
g8
I0
sg4
I5
sg5
I0
sg6
g7
sg3
I350
sg9
I8
sg10
g11
sg12
I25
sg14
I9
sg15
I90
sg16
I0
sg13
I0
sg18
g19
sg17
I30
sg20
I2
sa(dp126
g8
I0
sg4
I5
sg5
I0
sg6
g7
sg3
I1000
sg9
I3
sg10
g11
sg12
I25
sg14
I9
sg15
I91
sg16
I0
sg13
I0
sg18
g22
sg17
I8
sg20
I2
sa(dp127
g8
I0
sg4
I5
sg5
I0
sg6
g7
sg3
I1000
sg9
I3
sg10
g11
sg12
I25
sg14
I9
sg15
I92
sg16
I0
sg13
I0
sg18
g22
sg17
I8
sg20
I2
sa(dp128
g8
I0
sg4
I5
sg5
I0
sg6
g7
sg3
I1000
sg9
I3
sg10
g11
sg12
I25
sg14
I9
sg15
I93
sg16
I0
sg13
I0
sg18
g22
sg17
I8
sg20
I2
sa(dp129
g8
I0
sg4
I5
sg5
I0
sg6
g7
sg3
I1000
sg9
I3
sg10
g11
sg12
I25
sg14
I9
sg15
I94
sg16
I0
sg13
I0
sg18
g22
sg17
I8
sg20
I2
sa(dp130
g8
I0
sg4
I5
sg5
I0
sg6
g19
sg3
I250
sg9
I3
sg10
g11
sg12
I25
sg14
I8
sg15
I95
sg16
I0
sg13
I1
sg18
g22
sg17
I16
sg20
I2
sa(dp131
g8
I0
sg4
I5
sg5
I0
sg6
g19
sg3
I250
sg9
I3
sg10
g11
sg12
I25
sg14
I8
sg15
I96
sg16
I0
sg13
I1
sg18
g22
sg17
I16
sg20
I2
sa(dp132
g8
I5
sg4
I5
sg5
I0
sg6
g19
sg3
I1000
sg9
I3
sg10
g11
sg12
I25
sg14
I8
sg15
I97
sg16
I0
sg13
I1
sg18
g22
sg17
I16
sg20
I2
sa(dp133
g8
I5
sg4
I5
sg5
I0
sg6
g19
sg3
I1000
sg9
I3
sg10
g11
sg12
I25
sg14
I8
sg15
I98
sg16
I0
sg13
I1
sg18
g22
sg17
I16
sg20
I2
sa(dp134
g8
I5
sg4
I5
sg5
I0
sg6
g19
sg3
I1000
sg9
I3
sg10
g11
sg12
I25
sg14
I8
sg15
I99
sg16
I0
sg13
I1
sg18
g22
sg17
I16
sg20
I2
sa(dp135
g8
I5
sg4
I5
sg5
I0
sg6
g19
sg3
I1000
sg9
I3
sg10
g11
sg12
I25
sg14
I8
sg15
I100
sg16
I0
sg13
I1
sg18
g22
sg17
I16
sg20
I2
sa(dp136
g8
I0
sg4
I5
sg5
I0
sg6
g7
sg3
I1000
sg9
I8
sg10
g11
sg12
I25
sg14
I9
sg15
I101
sg16
I0
sg13
I0
sg18
g19
sg17
I30
sg20
I2
sa(dp137
g8
I0
sg4
I5
sg5
I0
sg6
g19
sg3
I750
sg9
I5
sg10
g11
sg12
I25
sg14
I8
sg15
I102
sg16
I0
sg13
I0
sg18
g45
sg17
I16
sg20
I2
sa(dp138
g8
I0
sg4
I5
sg5
I0
sg6
g7
sg3
I1000
sg9
I8
sg10
g11
sg12
I25
sg14
I9
sg15
I103
sg16
I0
sg13
I0
sg18
g19
sg17
I30
sg20
I3
sa(dp139
g8
I0
sg4
I5
sg5
I0
sg6
g48
sg3
I700
sg9
I1
sg10
g49
sg12
I25
sg14
I1
sg15
I104
sg16
I0
sg13
I0
sg18
g48
sg17
I21
sg20
I3
sa(dp140
g8
I0
sg4
I5
sg5
I0
sg6
g51
sg3
I300
sg9
I1
sg10
g49
sg12
I25
sg14
I8
sg15
I105
sg16
I0
sg13
I0
sg18
g48
sg17
I20
sg20
I3
sa(dp141
g8
I5
sg4
I5
sg5
I0
sg6
g51
sg3
I35
sg9
I7
sg10
g49
sg12
I25
sg14
I8
sg15
I106
sg16
I0
sg13
I0
sg18
g53
sg17
I25
sg20
I3
sa(dp142
g8
I0
sg4
I5
sg5
I0
sg6
g7
sg3
I400
sg9
I8
sg10
g11
sg12
I25
sg14
I9
sg15
I107
sg16
I0
sg13
I0
sg18
g19
sg17
I30
sg20
I3
sa(dp143
g8
I0
sg4
I5
sg5
I0
sg6
g51
sg3
I300
sg9
I1
sg10
g49
sg12
I25
sg14
I8
sg15
I108
sg16
I0
sg13
I0
sg18
g48
sg17
I20
sg20
I3
sa(dp144
g8
I5
sg4
I5
sg5
I0
sg6
g51
sg3
I35
sg9
I7
sg10
g49
sg12
I25
sg14
I8
sg15
I109
sg16
I0
sg13
I0
sg18
g53
sg17
I25
sg20
I3
sa(dp145
g8
I0
sg4
I5
sg5
I0
sg6
g7
sg3
I400
sg9
I8
sg10
g11
sg12
I25
sg14
I9
sg15
I110
sg16
I0
sg13
I0
sg18
g19
sg17
I30
sg20
I3
sa(dp146
g8
I0
sg4
I5
sg5
I0
sg6
g59
sg3
I4000
sg9
I6
sg10
g49
sg12
I25
sg14
I9
sg15
I111
sg16
I0
sg13
I0
sg18
g60
sg17
I8
sg20
I3
sa(dp147
g8
I0
sg4
I5
sg5
I0
sg6
g59
sg3
I4000
sg9
I6
sg10
g49
sg12
I25
sg14
I9
sg15
I112
sg16
I0
sg13
I0
sg18
g60
sg17
I8
sg20
I3
sa(dp148
g8
I0
sg4
I5
sg5
I0
sg6
g59
sg3
I4000
sg9
I5
sg10
g49
sg12
I25
sg14
I9
sg15
I113
sg16
I0
sg13
I0
sg18
g63
sg17
I8
sg20
I3
sa(dp149
g8
I0
sg4
I5
sg5
I0
sg6
g59
sg3
I4000
sg9
I5
sg10
g49
sg12
I25
sg14
I9
sg15
I114
sg16
I0
sg13
I0
sg18
g63
sg17
I8
sg20
I3
sa(dp150
g8
I0
sg4
I5
sg5
I0
sg6
g51
sg3
I900
sg9
I5
sg10
g49
sg12
I25
sg14
I8
sg15
I115
sg16
I0
sg13
I0
sg18
g63
sg17
I20
sg20
I3
sa(dp151
g8
I0
sg4
I5
sg5
I0
sg6
g48
sg3
I700
sg9
I7
sg10
g49
sg12
I25
sg14
I1
sg15
I116
sg16
I0
sg13
I0
sg18
g53
sg17
I21
sg20
I3
sa(dp152
g8
I0
sg4
I5
sg5
I0
sg6
g68
sg3
I700
sg9
I2
sg10
g49
sg12
I25
sg14
I2
sg15
I117
sg16
I0
sg13
I0
sg18
g68
sg17
I21
sg20
I3
sa(dp153
g8
I0
sg4
I5
sg5
I0
sg6
g70
sg3
I270
sg9
I2
sg10
g49
sg12
I25
sg14
I4
sg15
I118
sg16
I0
sg13
I0
sg18
g68
sg17
I20
sg20
I3
sa(dp154
g8
I0
sg4
I5
sg5
I0
sg6
g70
sg3
I700
sg9
I7
sg10
g49
sg12
I25
sg14
I4
sg15
I119
sg16
I0
sg13
I0
sg18
g53
sg17
I21
sg20
I3
sa(dp155
g8
I0
sg4
I5
sg5
I0
sg6
g68
sg3
I700
sg9
I7
sg10
g49
sg12
I25
sg14
I2
sg15
I120
sg16
I0
sg13
I0
sg18
g53
sg17
I21
sg20
I3
sa(dp156
g8
I0
sg4
I5
sg5
I0
sg6
g59
sg3
I4000
sg9
I6
sg10
g49
sg12
I25
sg14
I9
sg15
I121
sg16
I0
sg13
I0
sg18
g60
sg17
I8
sg20
I3
sa(dp157
g8
I0
sg4
I5
sg5
I0
sg6
g59
sg3
I4000
sg9
I6
sg10
g49
sg12
I25
sg14
I9
sg15
I122
sg16
I0
sg13
I0
sg18
g60
sg17
I8
sg20
I3
sa(dp158
g8
I0
sg4
I5
sg5
I0
sg6
g59
sg3
I4000
sg9
I5
sg10
g49
sg12
I25
sg14
I9
sg15
I123
sg16
I0
sg13
I0
sg18
g63
sg17
I8
sg20
I3
sa(dp159
g8
I0
sg4
I5
sg5
I0
sg6
g59
sg3
I4000
sg9
I5
sg10
g49
sg12
I25
sg14
I9
sg15
I124
sg16
I0
sg13
I0
sg18
g63
sg17
I8
sg20
I3
sa(dp160
g8
I0
sg4
I5
sg5
I0
sg6
g78
sg3
I700
sg9
I3
sg10
g49
sg12
I25
sg14
I3
sg15
I125
sg16
I0
sg13
I0
sg18
g78
sg17
I21
sg20
I3
sa(dp161
g8
I0
sg4
I5
sg5
I0
sg6
g70
sg3
I750
sg9
I3
sg10
g49
sg12
I25
sg14
I4
sg15
I126
sg16
I0
sg13
I0
sg18
g78
sg17
I20
sg20
I3
sa(dp162
g8
I0
sg4
I5
sg5
I0
sg6
g70
sg3
I700
sg9
I7
sg10
g49
sg12
I25
sg14
I4
sg15
I127
sg16
I0
sg13
I0
sg18
g53
sg17
I21
sg20
I3
sa(dp163
g8
I0
sg4
I5
sg5
I0
sg6
g78
sg3
I700
sg9
I7
sg10
g49
sg12
I25
sg14
I3
sg15
I128
sg16
I0
sg13
I0
sg18
g53
sg17
I21
sg20
I3
sa(dp164
g8
I0
sg4
I5
sg5
I0
sg6
g70
sg3
I4500
sg9
I7
sg10
g49
sg12
I25
sg14
I4
sg15
I129
sg16
I0
sg13
I0
sg18
g53
sg17
I8
sg20
I3
sa(dp165
g8
I0
sg4
I5
sg5
I0
sg6
g7
sg3
I1000
sg9
I8
sg10
g11
sg12
I25
sg14
I9
sg15
I130
sg16
I0
sg13
I0
sg18
g19
sg17
I30
sg20
I3
sa(dp166
g8
I0
sg4
I5
sg5
I0
sg6
g70
sg3
I700
sg9
I4
sg10
g49
sg12
I25
sg14
I4
sg15
I131
sg16
I0
sg13
I0
sg18
g70
sg17
I21
sg20
I3
sa(dp167
g8
I0
sg4
I5
sg5
I0
sg6
g51
sg3
I300
sg9
I4
sg10
g49
sg12
I25
sg14
I8
sg15
I132
sg16
I0
sg13
I0
sg18
g70
sg17
I20
sg20
I3
sa(dp168
g8
I0
sg4
I5
sg5
I0
sg6
g51
sg3
I35
sg9
I7
sg10
g49
sg12
I25
sg14
I8
sg15
I133
sg16
I0
sg13
I0
sg18
g53
sg17
I25
sg20
I3
sa(dp169
g8
I5
sg4
I5
sg5
I0
sg6
g70
sg3
I700
sg9
I7
sg10
g49
sg12
I25
sg14
I4
sg15
I134
sg16
I0
sg13
I0
sg18
g53
sg17
I21
sg20
I3
sa(dp170
g8
I0
sg4
I5
sg5
I0
sg6
g7
sg3
I400
sg9
I8
sg10
g11
sg12
I25
sg14
I9
sg15
I135
sg16
I0
sg13
I0
sg18
g19
sg17
I30
sg20
I3
sa(dp171
g8
I0
sg4
I5
sg5
I0
sg6
g70
sg3
I700
sg9
I4
sg10
g49
sg12
I25
sg14
I4
sg15
I136
sg16
I0
sg13
I0
sg18
g70
sg17
I21
sg20
I3
sa(dp172
g8
I0
sg4
I5
sg5
I0
sg6
g51
sg3
I300
sg9
I4
sg10
g49
sg12
I25
sg14
I8
sg15
I137
sg16
I0
sg13
I0
sg18
g70
sg17
I20
sg20
I3
sa(dp173
g8
I0
sg4
I5
sg5
I0
sg6
g51
sg3
I35
sg9
I7
sg10
g49
sg12
I25
sg14
I8
sg15
I138
sg16
I0
sg13
I0
sg18
g53
sg17
I25
sg20
I3
sa(dp174
g8
I5
sg4
I5
sg5
I0
sg6
g70
sg3
I700
sg9
I7
sg10
g49
sg12
I25
sg14
I4
sg15
I139
sg16
I0
sg13
I0
sg18
g53
sg17
I21
sg20
I3
sa(dp175
g8
I0
sg4
I5
sg5
I0
sg6
g7
sg3
I400
sg9
I8
sg10
g11
sg12
I25
sg14
I9
sg15
I140
sg16
I0
sg13
I0
sg18
g19
sg17
I30
sg20
I3
sa(dp176
g8
I0
sg4
I5
sg5
I0
sg6
g59
sg3
I2000
sg9
I4
sg10
g49
sg12
I25
sg14
I9
sg15
I141
sg16
I0
sg13
I0
sg18
g70
sg17
I16
sg20
I3
sa(dp177
g8
I0
sg4
I5
sg5
I0
sg6
g59
sg3
I4000
sg9
I6
sg10
g49
sg12
I25
sg14
I9
sg15
I142
sg16
I0
sg13
I0
sg18
g60
sg17
I8
sg20
I3
sa(dp178
g8
I0
sg4
I5
sg5
I0
sg6
g59
sg3
I4000
sg9
I6
sg10
g49
sg12
I25
sg14
I9
sg15
I143
sg16
I0
sg13
I0
sg18
g60
sg17
I8
sg20
I3
sa(dp179
g8
I0
sg4
I5
sg5
I0
sg6
g59
sg3
I4000
sg9
I5
sg10
g49
sg12
I25
sg14
I9
sg15
I144
sg16
I0
sg13
I0
sg18
g63
sg17
I8
sg20
I3
sa(dp180
g8
I0
sg4
I5
sg5
I0
sg6
g59
sg3
I4000
sg9
I5
sg10
g49
sg12
I25
sg14
I9
sg15
I145
sg16
I0
sg13
I0
sg18
g63
sg17
I8
sg20
I3
sa(dp181
g8
I5
sg4
I5
sg5
I0
sg6
g51
sg3
I900
sg9
I5
sg10
g49
sg12
I25
sg14
I8
sg15
I146
sg16
I0
sg13
I0
sg18
g63
sg17
I20
sg20
I3
sa(dp182
g8
I0
sg4
I5
sg5
I0
sg6
g7
sg3
I1000
sg9
I8
sg10
g11
sg12
I25
sg14
I9
sg15
I147
sg16
I0
sg13
I0
sg18
g19
sg17
I30
sg20
I3
sa(dp183
g8
I5
sg4
I5
sg5
I0
sg6
g51
sg3
I900
sg9
I5
sg10
g49
sg12
I25
sg14
I8
sg15
I148
sg16
I0
sg13
I0
sg18
g63
sg17
I20
sg20
I3
sa(dp184
g8
I0
sg4
I5
sg5
I0
sg6
g7
sg3
I1000
sg9
I8
sg10
g11
sg12
I25
sg14
I9
sg15
I149
sg16
I0
sg13
I0
sg18
g19
sg17
I30
sg20
I3
sa(dp185
g8
I5
sg4
I5
sg5
I0
sg6
g51
sg3
I900
sg9
I5
sg10
g49
sg12
I25
sg14
I8
sg15
I150
sg16
I0
sg13
I0
sg18
g63
sg17
I20
sg20
I3
sa(dp186
g8
I0
sg4
I5
sg5
I0
sg6
g7
sg3
I1000
sg9
I8
sg10
g11
sg12
I25
sg14
I9
sg15
I151
sg16
I0
sg13
I0
sg18
g19
sg17
I30
sg20
I3
sa(dp187
g8
I0
sg4
I5
sg5
I0
sg6
g7
sg3
I1000
sg9
I4
sg10
g11
sg12
I25
sg14
I9
sg15
I152
sg16
I0
sg13
I0
sg18
g106
sg17
I8
sg20
I3
sa(dp188
g8
I0
sg4
I5
sg5
I0
sg6
g7
sg3
I1000
sg9
I4
sg10
g11
sg12
I25
sg14
I9
sg15
I153
sg16
I0
sg13
I0
sg18
g106
sg17
I8
sg20
I3
sa(dp189
g8
I0
sg4
I5
sg5
I0
sg6
g7
sg3
I1000
sg9
I4
sg10
g11
sg12
I25
sg14
I9
sg15
I154
sg16
I0
sg13
I0
sg18
g106
sg17
I8
sg20
I3
sa(dp190
g8
I0
sg4
I5
sg5
I0
sg6
g7
sg3
I1000
sg9
I4
sg10
g11
sg12
I25
sg14
I9
sg15
I155
sg16
I0
sg13
I0
sg18
g106
sg17
I8
sg20
I3
sa(dp191
g8
I0
sg4
I5
sg5
I0
sg6
g7
sg3
I1000
sg9
I3
sg10
g11
sg12
I25
sg14
I9
sg15
I156
sg16
I0
sg13
I0
sg18
g22
sg17
I8
sg20
I3
sa(dp192
g8
I0
sg4
I5
sg5
I0
sg6
g7
sg3
I1000
sg9
I3
sg10
g11
sg12
I25
sg14
I9
sg15
I157
sg16
I0
sg13
I0
sg18
g22
sg17
I8
sg20
I3
sa(dp193
g8
I0
sg4
I5
sg5
I0
sg6
g7
sg3
I1000
sg9
I3
sg10
g11
sg12
I25
sg14
I9
sg15
I158
sg16
I0
sg13
I0
sg18
g22
sg17
I8
sg20
I3
sa(dp194
g8
I0
sg4
I5
sg5
I0
sg6
g7
sg3
I1000
sg9
I3
sg10
g11
sg12
I25
sg14
I9
sg15
I159
sg16
I0
sg13
I0
sg18
g22
sg17
I8
sg20
I3
sa(dp195
g8
I0
sg4
I5
sg5
I0
sg6
g7
sg3
I1000
sg9
I3
sg10
g11
sg12
I25
sg14
I9
sg15
I160
sg16
I0
sg13
I0
sg18
g22
sg17
I8
sg20
I3
sa(dp196
g8
I0
sg4
I5
sg5
I0
sg6
g51
sg3
I900
sg9
I5
sg10
g49
sg12
I25
sg14
I8
sg15
I161
sg16
I0
sg13
I0
sg18
g63
sg17
I20
sg20
I3
sa(dp197
g8
I0
sg4
I5
sg5
I0
sg6
g7
sg3
I1000
sg9
I8
sg10
g11
sg12
I25
sg14
I9
sg15
I162
sg16
I0
sg13
I0
sg18
g19
sg17
I30
sg20
I4
sa(dp198
g8
I0
sg4
I5
sg5
I0
sg6
g7
sg3
I1000
sg9
I3
sg10
g11
sg12
I25
sg14
I9
sg15
I163
sg16
I0
sg13
I0
sg18
g22
sg17
I8
sg20
I4
sa(dp199
g8
I0
sg4
I5
sg5
I0
sg6
g19
sg3
I250
sg9
I2
sg10
g11
sg12
I25
sg14
I8
sg15
I164
sg16
I0
sg13
I0
sg18
g24
sg17
I16
sg20
I4
sa(dp200
g8
I0
sg4
I5
sg5
I0
sg6
g19
sg3
I35
sg9
I7
sg10
g11
sg12
I25
sg14
I8
sg15
I165
sg16
I0
sg13
I0
sg18
g26
sg17
I25
sg20
I4
sa(dp201
g8
I0
sg4
I5
sg5
I0
sg6
g7
sg3
I1000
sg9
I3
sg10
g11
sg12
I25
sg14
I9
sg15
I166
sg16
I0
sg13
I0
sg18
g22
sg17
I8
sg20
I4
sa(dp202
g8
I0
sg4
I5
sg5
I0
sg6
g7
sg3
I1000
sg9
I3
sg10
g11
sg12
I25
sg14
I9
sg15
I167
sg16
I0
sg13
I0
sg18
g22
sg17
I8
sg20
I4
sa(dp203
g8
I0
sg4
I5
sg5
I0
sg6
g7
sg3
I1000
sg9
I3
sg10
g11
sg12
I25
sg14
I9
sg15
I168
sg16
I0
sg13
I0
sg18
g22
sg17
I8
sg20
I4
sa(dp204
g8
I0
sg4
I5
sg5
I0
sg6
g7
sg3
I1000
sg9
I3
sg10
g11
sg12
I25
sg14
I9
sg15
I169
sg16
I0
sg13
I0
sg18
g22
sg17
I8
sg20
I4
sa(dp205
g8
I45
sg4
I5
sg5
I0
sg6
g7
sg3
I1000
sg9
I3
sg10
g11
sg12
I25
sg14
I9
sg15
I170
sg16
I0
sg13
I0
sg18
g22
sg17
I8
sg20
I4
sa(dp206
g8
I0
sg4
I5
sg5
I0
sg6
g7
sg3
I350
sg9
I8
sg10
g11
sg12
I25
sg14
I9
sg15
I171
sg16
I0
sg13
I0
sg18
g19
sg17
I30
sg20
I4
sa(dp207
g8
I0
sg4
I5
sg5
I0
sg6
g7
sg3
I1000
sg9
I3
sg10
g11
sg12
I25
sg14
I9
sg15
I172
sg16
I0
sg13
I0
sg18
g22
sg17
I8
sg20
I4
sa(dp208
g8
I0
sg4
I5
sg5
I0
sg6
g7
sg3
I1000
sg9
I3
sg10
g11
sg12
I25
sg14
I9
sg15
I173
sg16
I0
sg13
I0
sg18
g22
sg17
I8
sg20
I4
sa(dp209
g8
I0
sg4
I5
sg5
I0
sg6
g7
sg3
I1000
sg9
I3
sg10
g11
sg12
I25
sg14
I9
sg15
I174
sg16
I0
sg13
I0
sg18
g22
sg17
I8
sg20
I4
sa(dp210
g8
I0
sg4
I5
sg5
I0
sg6
g7
sg3
I1000
sg9
I3
sg10
g11
sg12
I25
sg14
I9
sg15
I175
sg16
I0
sg13
I0
sg18
g22
sg17
I8
sg20
I4
sa(dp211
g8
I0
sg4
I5
sg5
I0
sg6
g19
sg3
I250
sg9
I3
sg10
g11
sg12
I25
sg14
I8
sg15
I176
sg16
I0
sg13
I1
sg18
g22
sg17
I16
sg20
I4
sa(dp212
g8
I0
sg4
I5
sg5
I0
sg6
g19
sg3
I250
sg9
I3
sg10
g11
sg12
I25
sg14
I8
sg15
I177
sg16
I0
sg13
I1
sg18
g22
sg17
I16
sg20
I4
sa(dp213
g8
I5
sg4
I5
sg5
I0
sg6
g19
sg3
I1000
sg9
I3
sg10
g11
sg12
I25
sg14
I8
sg15
I178
sg16
I0
sg13
I1
sg18
g22
sg17
I16
sg20
I4
sa(dp214
g8
I5
sg4
I5
sg5
I0
sg6
g19
sg3
I1000
sg9
I3
sg10
g11
sg12
I25
sg14
I8
sg15
I179
sg16
I0
sg13
I1
sg18
g22
sg17
I16
sg20
I4
sa(dp215
g8
I5
sg4
I5
sg5
I0
sg6
g19
sg3
I1000
sg9
I3
sg10
g11
sg12
I25
sg14
I8
sg15
I180
sg16
I0
sg13
I1
sg18
g22
sg17
I16
sg20
I4
sa(dp216
g8
I5
sg4
I5
sg5
I0
sg6
g19
sg3
I1000
sg9
I3
sg10
g11
sg12
I25
sg14
I8
sg15
I181
sg16
I0
sg13
I1
sg18
g22
sg17
I16
sg20
I4
sa(dp217
g8
I0
sg4
I5
sg5
I0
sg6
g7
sg3
I1000
sg9
I8
sg10
g11
sg12
I25
sg14
I9
sg15
I182
sg16
I0
sg13
I0
sg18
g19
sg17
I30
sg20
I4
sa(dp218
g8
I0
sg4
I5
sg5
I0
sg6
g19
sg3
I750
sg9
I5
sg10
g11
sg12
I25
sg14
I8
sg15
I183
sg16
I0
sg13
I0
sg18
g45
sg17
I16
sg20
I4
sa(dp219
g8
I0
sg4
I5
sg5
I0
sg6
g7
sg3
I1000
sg9
I8
sg10
g11
sg12
I25
sg14
I9
sg15
I184
sg16
I0
sg13
I0
sg18
g19
sg17
I30
sg20
I5
sa(dp220
g8
I0
sg4
I5
sg5
I0
sg6
g48
sg3
I700
sg9
I1
sg10
g49
sg12
I25
sg14
I1
sg15
I185
sg16
I0
sg13
I0
sg18
g48
sg17
I21
sg20
I5
sa(dp221
g8
I0
sg4
I5
sg5
I0
sg6
g51
sg3
I300
sg9
I1
sg10
g49
sg12
I25
sg14
I8
sg15
I186
sg16
I0
sg13
I0
sg18
g48
sg17
I20
sg20
I5
sa(dp222
g8
I5
sg4
I5
sg5
I0
sg6
g51
sg3
I35
sg9
I7
sg10
g49
sg12
I25
sg14
I8
sg15
I187
sg16
I0
sg13
I0
sg18
g53
sg17
I25
sg20
I5
sa(dp223
g8
I0
sg4
I5
sg5
I0
sg6
g7
sg3
I400
sg9
I8
sg10
g11
sg12
I25
sg14
I9
sg15
I188
sg16
I0
sg13
I0
sg18
g19
sg17
I30
sg20
I5
sa(dp224
g8
I0
sg4
I5
sg5
I0
sg6
g51
sg3
I300
sg9
I1
sg10
g49
sg12
I25
sg14
I8
sg15
I189
sg16
I0
sg13
I0
sg18
g48
sg17
I20
sg20
I5
sa(dp225
g8
I5
sg4
I5
sg5
I0
sg6
g51
sg3
I35
sg9
I7
sg10
g49
sg12
I25
sg14
I8
sg15
I190
sg16
I0
sg13
I0
sg18
g53
sg17
I25
sg20
I5
sa(dp226
g8
I0
sg4
I5
sg5
I0
sg6
g7
sg3
I400
sg9
I8
sg10
g11
sg12
I25
sg14
I9
sg15
I191
sg16
I0
sg13
I0
sg18
g19
sg17
I30
sg20
I5
sa(dp227
g8
I0
sg4
I5
sg5
I0
sg6
g59
sg3
I4000
sg9
I6
sg10
g49
sg12
I25
sg14
I9
sg15
I192
sg16
I0
sg13
I0
sg18
g60
sg17
I8
sg20
I5
sa(dp228
g8
I0
sg4
I5
sg5
I0
sg6
g59
sg3
I4000
sg9
I6
sg10
g49
sg12
I25
sg14
I9
sg15
I193
sg16
I0
sg13
I0
sg18
g60
sg17
I8
sg20
I5
sa(dp229
g8
I0
sg4
I5
sg5
I0
sg6
g59
sg3
I4000
sg9
I5
sg10
g49
sg12
I25
sg14
I9
sg15
I194
sg16
I0
sg13
I0
sg18
g63
sg17
I8
sg20
I5
sa(dp230
g8
I0
sg4
I5
sg5
I0
sg6
g59
sg3
I4000
sg9
I5
sg10
g49
sg12
I25
sg14
I9
sg15
I195
sg16
I0
sg13
I0
sg18
g63
sg17
I8
sg20
I5
sa(dp231
g8
I0
sg4
I5
sg5
I0
sg6
g51
sg3
I900
sg9
I5
sg10
g49
sg12
I25
sg14
I8
sg15
I196
sg16
I0
sg13
I0
sg18
g63
sg17
I20
sg20
I5
sa(dp232
g8
I0
sg4
I5
sg5
I0
sg6
g48
sg3
I700
sg9
I7
sg10
g49
sg12
I25
sg14
I1
sg15
I197
sg16
I0
sg13
I0
sg18
g53
sg17
I21
sg20
I5
sa(dp233
g8
I0
sg4
I5
sg5
I0
sg6
g68
sg3
I700
sg9
I2
sg10
g49
sg12
I25
sg14
I2
sg15
I198
sg16
I0
sg13
I0
sg18
g68
sg17
I21
sg20
I5
sa(dp234
g8
I0
sg4
I5
sg5
I0
sg6
g70
sg3
I270
sg9
I2
sg10
g49
sg12
I25
sg14
I4
sg15
I199
sg16
I0
sg13
I0
sg18
g68
sg17
I20
sg20
I5
sa(dp235
g8
I0
sg4
I5
sg5
I0
sg6
g70
sg3
I700
sg9
I7
sg10
g49
sg12
I25
sg14
I4
sg15
I200
sg16
I0
sg13
I0
sg18
g53
sg17
I21
sg20
I5
sa(dp236
g8
I0
sg4
I5
sg5
I0
sg6
g68
sg3
I700
sg9
I7
sg10
g49
sg12
I25
sg14
I2
sg15
I201
sg16
I0
sg13
I0
sg18
g53
sg17
I21
sg20
I5
sa(dp237
g8
I0
sg4
I5
sg5
I0
sg6
g59
sg3
I4000
sg9
I6
sg10
g49
sg12
I25
sg14
I9
sg15
I202
sg16
I0
sg13
I0
sg18
g60
sg17
I8
sg20
I5
sa(dp238
g8
I0
sg4
I5
sg5
I0
sg6
g59
sg3
I4000
sg9
I6
sg10
g49
sg12
I25
sg14
I9
sg15
I203
sg16
I0
sg13
I0
sg18
g60
sg17
I8
sg20
I5
sa(dp239
g8
I0
sg4
I5
sg5
I0
sg6
g59
sg3
I4000
sg9
I5
sg10
g49
sg12
I25
sg14
I9
sg15
I204
sg16
I0
sg13
I0
sg18
g63
sg17
I8
sg20
I5
sa(dp240
g8
I0
sg4
I5
sg5
I0
sg6
g59
sg3
I4000
sg9
I5
sg10
g49
sg12
I25
sg14
I9
sg15
I205
sg16
I0
sg13
I0
sg18
g63
sg17
I8
sg20
I5
sa(dp241
g8
I0
sg4
I5
sg5
I0
sg6
g78
sg3
I700
sg9
I3
sg10
g49
sg12
I25
sg14
I3
sg15
I206
sg16
I0
sg13
I0
sg18
g78
sg17
I21
sg20
I5
sa(dp242
g8
I0
sg4
I5
sg5
I0
sg6
g70
sg3
I750
sg9
I3
sg10
g49
sg12
I25
sg14
I4
sg15
I207
sg16
I0
sg13
I0
sg18
g78
sg17
I20
sg20
I5
sa(dp243
g8
I0
sg4
I5
sg5
I0
sg6
g70
sg3
I700
sg9
I7
sg10
g49
sg12
I25
sg14
I4
sg15
I208
sg16
I0
sg13
I0
sg18
g53
sg17
I21
sg20
I5
sa(dp244
g8
I0
sg4
I5
sg5
I0
sg6
g78
sg3
I700
sg9
I7
sg10
g49
sg12
I25
sg14
I3
sg15
I209
sg16
I0
sg13
I0
sg18
g53
sg17
I21
sg20
I5
sa(dp245
g8
I0
sg4
I5
sg5
I0
sg6
g70
sg3
I4500
sg9
I7
sg10
g49
sg12
I25
sg14
I4
sg15
I210
sg16
I0
sg13
I0
sg18
g53
sg17
I8
sg20
I5
sa(dp246
g8
I0
sg4
I5
sg5
I0
sg6
g7
sg3
I1000
sg9
I8
sg10
g11
sg12
I25
sg14
I9
sg15
I211
sg16
I0
sg13
I0
sg18
g19
sg17
I30
sg20
I5
sa(dp247
g8
I0
sg4
I5
sg5
I0
sg6
g70
sg3
I700
sg9
I4
sg10
g49
sg12
I25
sg14
I4
sg15
I212
sg16
I0
sg13
I0
sg18
g70
sg17
I21
sg20
I5
sa(dp248
g8
I0
sg4
I5
sg5
I0
sg6
g51
sg3
I300
sg9
I4
sg10
g49
sg12
I25
sg14
I8
sg15
I213
sg16
I0
sg13
I0
sg18
g70
sg17
I20
sg20
I5
sa(dp249
g8
I0
sg4
I5
sg5
I0
sg6
g51
sg3
I35
sg9
I7
sg10
g49
sg12
I25
sg14
I8
sg15
I214
sg16
I0
sg13
I0
sg18
g53
sg17
I25
sg20
I5
sa(dp250
g8
I5
sg4
I5
sg5
I0
sg6
g70
sg3
I700
sg9
I7
sg10
g49
sg12
I25
sg14
I4
sg15
I215
sg16
I0
sg13
I0
sg18
g53
sg17
I21
sg20
I5
sa(dp251
g8
I0
sg4
I5
sg5
I0
sg6
g7
sg3
I400
sg9
I8
sg10
g11
sg12
I25
sg14
I9
sg15
I216
sg16
I0
sg13
I0
sg18
g19
sg17
I30
sg20
I5
sa(dp252
g8
I0
sg4
I5
sg5
I0
sg6
g70
sg3
I700
sg9
I4
sg10
g49
sg12
I25
sg14
I4
sg15
I217
sg16
I0
sg13
I0
sg18
g70
sg17
I21
sg20
I5
sa(dp253
g8
I0
sg4
I5
sg5
I0
sg6
g51
sg3
I300
sg9
I4
sg10
g49
sg12
I25
sg14
I8
sg15
I218
sg16
I0
sg13
I0
sg18
g70
sg17
I20
sg20
I5
sa(dp254
g8
I0
sg4
I5
sg5
I0
sg6
g51
sg3
I35
sg9
I7
sg10
g49
sg12
I25
sg14
I8
sg15
I219
sg16
I0
sg13
I0
sg18
g53
sg17
I25
sg20
I5
sa(dp255
g8
I5
sg4
I5
sg5
I0
sg6
g70
sg3
I700
sg9
I7
sg10
g49
sg12
I25
sg14
I4
sg15
I220
sg16
I0
sg13
I0
sg18
g53
sg17
I21
sg20
I5
sa(dp256
g8
I0
sg4
I5
sg5
I0
sg6
g7
sg3
I400
sg9
I8
sg10
g11
sg12
I25
sg14
I9
sg15
I221
sg16
I0
sg13
I0
sg18
g19
sg17
I30
sg20
I5
sa(dp257
g8
I0
sg4
I5
sg5
I0
sg6
g59
sg3
I2000
sg9
I4
sg10
g49
sg12
I25
sg14
I9
sg15
I222
sg16
I0
sg13
I0
sg18
g70
sg17
I16
sg20
I5
sa(dp258
g8
I0
sg4
I5
sg5
I0
sg6
g59
sg3
I4000
sg9
I6
sg10
g49
sg12
I25
sg14
I9
sg15
I223
sg16
I0
sg13
I0
sg18
g60
sg17
I8
sg20
I5
sa(dp259
g8
I0
sg4
I5
sg5
I0
sg6
g59
sg3
I4000
sg9
I6
sg10
g49
sg12
I25
sg14
I9
sg15
I224
sg16
I0
sg13
I0
sg18
g60
sg17
I8
sg20
I5
sa(dp260
g8
I0
sg4
I5
sg5
I0
sg6
g59
sg3
I4000
sg9
I5
sg10
g49
sg12
I25
sg14
I9
sg15
I225
sg16
I0
sg13
I0
sg18
g63
sg17
I8
sg20
I5
sa(dp261
g8
I0
sg4
I5
sg5
I0
sg6
g59
sg3
I4000
sg9
I5
sg10
g49
sg12
I25
sg14
I9
sg15
I226
sg16
I0
sg13
I0
sg18
g63
sg17
I8
sg20
I5
sa(dp262
g8
I5
sg4
I5
sg5
I0
sg6
g51
sg3
I900
sg9
I5
sg10
g49
sg12
I25
sg14
I8
sg15
I227
sg16
I0
sg13
I0
sg18
g63
sg17
I20
sg20
I5
sa(dp263
g8
I0
sg4
I5
sg5
I0
sg6
g7
sg3
I1000
sg9
I8
sg10
g11
sg12
I25
sg14
I9
sg15
I228
sg16
I0
sg13
I0
sg18
g19
sg17
I30
sg20
I5
sa(dp264
g8
I5
sg4
I5
sg5
I0
sg6
g51
sg3
I900
sg9
I5
sg10
g49
sg12
I25
sg14
I8
sg15
I229
sg16
I0
sg13
I0
sg18
g63
sg17
I20
sg20
I5
sa(dp265
g8
I0
sg4
I5
sg5
I0
sg6
g7
sg3
I1000
sg9
I8
sg10
g11
sg12
I25
sg14
I9
sg15
I230
sg16
I0
sg13
I0
sg18
g19
sg17
I30
sg20
I5
sa(dp266
g8
I5
sg4
I5
sg5
I0
sg6
g51
sg3
I900
sg9
I5
sg10
g49
sg12
I25
sg14
I8
sg15
I231
sg16
I0
sg13
I0
sg18
g63
sg17
I20
sg20
I5
sa(dp267
g8
I0
sg4
I5
sg5
I0
sg6
g7
sg3
I1000
sg9
I8
sg10
g11
sg12
I25
sg14
I9
sg15
I232
sg16
I0
sg13
I0
sg18
g19
sg17
I30
sg20
I5
sa(dp268
g8
I0
sg4
I5
sg5
I0
sg6
g7
sg3
I1000
sg9
I4
sg10
g11
sg12
I25
sg14
I9
sg15
I233
sg16
I0
sg13
I0
sg18
g106
sg17
I8
sg20
I5
sa(dp269
g8
I0
sg4
I5
sg5
I0
sg6
g7
sg3
I1000
sg9
I4
sg10
g11
sg12
I25
sg14
I9
sg15
I234
sg16
I0
sg13
I0
sg18
g106
sg17
I8
sg20
I5
sa(dp270
g8
I0
sg4
I5
sg5
I0
sg6
g7
sg3
I1000
sg9
I4
sg10
g11
sg12
I25
sg14
I9
sg15
I235
sg16
I0
sg13
I0
sg18
g106
sg17
I8
sg20
I5
sa(dp271
g8
I0
sg4
I5
sg5
I0
sg6
g7
sg3
I1000
sg9
I4
sg10
g11
sg12
I25
sg14
I9
sg15
I236
sg16
I0
sg13
I0
sg18
g106
sg17
I8
sg20
I5
sa(dp272
g8
I0
sg4
I5
sg5
I0
sg6
g7
sg3
I1000
sg9
I3
sg10
g11
sg12
I25
sg14
I9
sg15
I237
sg16
I0
sg13
I0
sg18
g22
sg17
I8
sg20
I5
sa(dp273
g8
I0
sg4
I5
sg5
I0
sg6
g7
sg3
I1000
sg9
I3
sg10
g11
sg12
I25
sg14
I9
sg15
I238
sg16
I0
sg13
I0
sg18
g22
sg17
I8
sg20
I5
sa(dp274
g8
I0
sg4
I5
sg5
I0
sg6
g7
sg3
I1000
sg9
I3
sg10
g11
sg12
I25
sg14
I9
sg15
I239
sg16
I0
sg13
I0
sg18
g22
sg17
I8
sg20
I5
sa(dp275
g8
I0
sg4
I5
sg5
I0
sg6
g7
sg3
I1000
sg9
I3
sg10
g11
sg12
I25
sg14
I9
sg15
I240
sg16
I0
sg13
I0
sg18
g22
sg17
I8
sg20
I5
sa(dp276
g8
I0
sg4
I5
sg5
I0
sg6
g7
sg3
I1000
sg9
I3
sg10
g11
sg12
I25
sg14
I9
sg15
I241
sg16
I0
sg13
I0
sg18
g22
sg17
I8
sg20
I5
sa(dp277
g8
I0
sg4
I5
sg5
I0
sg6
g51
sg3
I900
sg9
I5
sg10
g49
sg12
I25
sg14
I8
sg15
I242
sg16
I0
sg13
I0
sg18
g63
sg17
I20
sg20
I5
sa(dp278
g8
I0
sg4
I5
sg5
I0
sg6
g7
sg3
I1000
sg9
I8
sg10
g11
sg12
I25
sg14
I9
sg15
I243
sg16
I0
sg13
I0
sg18
g19
sg17
I30
sg20
I6
sa(dp279
g8
I0
sg4
I5
sg5
I0
sg6
g7
sg3
I1000
sg9
I3
sg10
g11
sg12
I25
sg14
I9
sg15
I244
sg16
I0
sg13
I0
sg18
g22
sg17
I8
sg20
I6
sa(dp280
g8
I0
sg4
I5
sg5
I0
sg6
g19
sg3
I250
sg9
I2
sg10
g11
sg12
I25
sg14
I8
sg15
I245
sg16
I0
sg13
I0
sg18
g24
sg17
I16
sg20
I6
sa(dp281
g8
I0
sg4
I5
sg5
I0
sg6
g19
sg3
I35
sg9
I7
sg10
g11
sg12
I25
sg14
I8
sg15
I246
sg16
I0
sg13
I0
sg18
g26
sg17
I25
sg20
I6
sa(dp282
g8
I0
sg4
I5
sg5
I0
sg6
g7
sg3
I1000
sg9
I3
sg10
g11
sg12
I25
sg14
I9
sg15
I247
sg16
I0
sg13
I0
sg18
g22
sg17
I8
sg20
I6
sa(dp283
g8
I0
sg4
I5
sg5
I0
sg6
g7
sg3
I1000
sg9
I3
sg10
g11
sg12
I25
sg14
I9
sg15
I248
sg16
I0
sg13
I0
sg18
g22
sg17
I8
sg20
I6
sa(dp284
g8
I0
sg4
I5
sg5
I0
sg6
g7
sg3
I1000
sg9
I3
sg10
g11
sg12
I25
sg14
I9
sg15
I249
sg16
I0
sg13
I0
sg18
g22
sg17
I8
sg20
I6
sa(dp285
g8
I0
sg4
I5
sg5
I0
sg6
g7
sg3
I1000
sg9
I3
sg10
g11
sg12
I25
sg14
I9
sg15
I250
sg16
I0
sg13
I0
sg18
g22
sg17
I8
sg20
I6
sa(dp286
g8
I45
sg4
I5
sg5
I0
sg6
g7
sg3
I1000
sg9
I3
sg10
g11
sg12
I25
sg14
I9
sg15
I251
sg16
I0
sg13
I0
sg18
g22
sg17
I8
sg20
I6
sa(dp287
g8
I0
sg4
I5
sg5
I0
sg6
g7
sg3
I350
sg9
I8
sg10
g11
sg12
I25
sg14
I9
sg15
I252
sg16
I0
sg13
I0
sg18
g19
sg17
I30
sg20
I6
sa(dp288
g8
I0
sg4
I5
sg5
I0
sg6
g7
sg3
I1000
sg9
I3
sg10
g11
sg12
I25
sg14
I9
sg15
I253
sg16
I0
sg13
I0
sg18
g22
sg17
I8
sg20
I6
sa(dp289
g8
I0
sg4
I5
sg5
I0
sg6
g7
sg3
I1000
sg9
I3
sg10
g11
sg12
I25
sg14
I9
sg15
I254
sg16
I0
sg13
I0
sg18
g22
sg17
I8
sg20
I6
sa(dp290
g8
I0
sg4
I5
sg5
I0
sg6
g7
sg3
I1000
sg9
I3
sg10
g11
sg12
I25
sg14
I9
sg15
I255
sg16
I0
sg13
I0
sg18
g22
sg17
I8
sg20
I6
sa(dp291
g8
I0
sg4
I5
sg5
I0
sg6
g7
sg3
I1000
sg9
I3
sg10
g11
sg12
I25
sg14
I9
sg15
I256
sg16
I0
sg13
I0
sg18
g22
sg17
I8
sg20
I6
sa(dp292
g8
I0
sg4
I5
sg5
I0
sg6
g19
sg3
I250
sg9
I3
sg10
g11
sg12
I25
sg14
I8
sg15
I257
sg16
I0
sg13
I1
sg18
g22
sg17
I16
sg20
I6
sa(dp293
g8
I0
sg4
I5
sg5
I0
sg6
g19
sg3
I250
sg9
I3
sg10
g11
sg12
I25
sg14
I8
sg15
I258
sg16
I0
sg13
I1
sg18
g22
sg17
I16
sg20
I6
sa(dp294
g8
I5
sg4
I5
sg5
I0
sg6
g19
sg3
I1000
sg9
I3
sg10
g11
sg12
I25
sg14
I8
sg15
I259
sg16
I0
sg13
I1
sg18
g22
sg17
I16
sg20
I6
sa(dp295
g8
I5
sg4
I5
sg5
I0
sg6
g19
sg3
I1000
sg9
I3
sg10
g11
sg12
I25
sg14
I8
sg15
I260
sg16
I0
sg13
I1
sg18
g22
sg17
I16
sg20
I6
sa(dp296
g8
I5
sg4
I5
sg5
I0
sg6
g19
sg3
I1000
sg9
I3
sg10
g11
sg12
I25
sg14
I8
sg15
I261
sg16
I0
sg13
I1
sg18
g22
sg17
I16
sg20
I6
sa(dp297
g8
I5
sg4
I5
sg5
I0
sg6
g19
sg3
I1000
sg9
I3
sg10
g11
sg12
I25
sg14
I8
sg15
I262
sg16
I0
sg13
I1
sg18
g22
sg17
I16
sg20
I6
sa(dp298
g8
I0
sg4
I5
sg5
I0
sg6
g7
sg3
I1000
sg9
I8
sg10
g11
sg12
I25
sg14
I9
sg15
I263
sg16
I0
sg13
I0
sg18
g19
sg17
I30
sg20
I6
sa(dp299
g8
I0
sg4
I5
sg5
I0
sg6
g19
sg3
I750
sg9
I5
sg10
g11
sg12
I25
sg14
I8
sg15
I264
sg16
I0
sg13
I0
sg18
g45
sg17
I16
sg20
I6
sa(dp300
g8
I0
sg4
I5
sg5
I0
sg6
g7
sg3
I1000
sg9
I8
sg10
g11
sg12
I25
sg14
I9
sg15
I265
sg16
I0
sg13
I0
sg18
g19
sg17
I30
sg20
I7
sa(dp301
g8
I0
sg4
I5
sg5
I0
sg6
g48
sg3
I700
sg9
I1
sg10
g49
sg12
I25
sg14
I1
sg15
I266
sg16
I0
sg13
I0
sg18
g48
sg17
I21
sg20
I7
sa(dp302
g8
I0
sg4
I5
sg5
I0
sg6
g51
sg3
I300
sg9
I1
sg10
g49
sg12
I25
sg14
I8
sg15
I267
sg16
I0
sg13
I0
sg18
g48
sg17
I20
sg20
I7
sa(dp303
g8
I5
sg4
I5
sg5
I0
sg6
g51
sg3
I35
sg9
I7
sg10
g49
sg12
I25
sg14
I8
sg15
I268
sg16
I0
sg13
I0
sg18
g53
sg17
I25
sg20
I7
sa(dp304
g8
I0
sg4
I5
sg5
I0
sg6
g7
sg3
I400
sg9
I8
sg10
g11
sg12
I25
sg14
I9
sg15
I269
sg16
I0
sg13
I0
sg18
g19
sg17
I30
sg20
I7
sa(dp305
g8
I0
sg4
I5
sg5
I0
sg6
g51
sg3
I300
sg9
I1
sg10
g49
sg12
I25
sg14
I8
sg15
I270
sg16
I0
sg13
I0
sg18
g48
sg17
I20
sg20
I7
sa(dp306
g8
I5
sg4
I5
sg5
I0
sg6
g51
sg3
I35
sg9
I7
sg10
g49
sg12
I25
sg14
I8
sg15
I271
sg16
I0
sg13
I0
sg18
g53
sg17
I25
sg20
I7
sa(dp307
g8
I0
sg4
I5
sg5
I0
sg6
g7
sg3
I400
sg9
I8
sg10
g11
sg12
I25
sg14
I9
sg15
I272
sg16
I0
sg13
I0
sg18
g19
sg17
I30
sg20
I7
sa(dp308
g8
I0
sg4
I5
sg5
I0
sg6
g59
sg3
I4000
sg9
I6
sg10
g49
sg12
I25
sg14
I9
sg15
I273
sg16
I0
sg13
I0
sg18
g60
sg17
I8
sg20
I7
sa(dp309
g8
I0
sg4
I5
sg5
I0
sg6
g59
sg3
I4000
sg9
I6
sg10
g49
sg12
I25
sg14
I9
sg15
I274
sg16
I0
sg13
I0
sg18
g60
sg17
I8
sg20
I7
sa(dp310
g8
I0
sg4
I5
sg5
I0
sg6
g59
sg3
I4000
sg9
I5
sg10
g49
sg12
I25
sg14
I9
sg15
I275
sg16
I0
sg13
I0
sg18
g63
sg17
I8
sg20
I7
sa(dp311
g8
I0
sg4
I5
sg5
I0
sg6
g59
sg3
I4000
sg9
I5
sg10
g49
sg12
I25
sg14
I9
sg15
I276
sg16
I0
sg13
I0
sg18
g63
sg17
I8
sg20
I7
sa(dp312
g8
I0
sg4
I5
sg5
I0
sg6
g51
sg3
I900
sg9
I5
sg10
g49
sg12
I25
sg14
I8
sg15
I277
sg16
I0
sg13
I0
sg18
g63
sg17
I20
sg20
I7
sa(dp313
g8
I0
sg4
I5
sg5
I0
sg6
g48
sg3
I700
sg9
I7
sg10
g49
sg12
I25
sg14
I1
sg15
I278
sg16
I0
sg13
I0
sg18
g53
sg17
I21
sg20
I7
sa(dp314
g8
I0
sg4
I5
sg5
I0
sg6
g68
sg3
I700
sg9
I2
sg10
g49
sg12
I25
sg14
I2
sg15
I279
sg16
I0
sg13
I0
sg18
g68
sg17
I21
sg20
I7
sa(dp315
g8
I0
sg4
I5
sg5
I0
sg6
g70
sg3
I270
sg9
I2
sg10
g49
sg12
I25
sg14
I4
sg15
I280
sg16
I0
sg13
I0
sg18
g68
sg17
I20
sg20
I7
sa(dp316
g8
I0
sg4
I5
sg5
I0
sg6
g70
sg3
I700
sg9
I7
sg10
g49
sg12
I25
sg14
I4
sg15
I281
sg16
I0
sg13
I0
sg18
g53
sg17
I21
sg20
I7
sa(dp317
g8
I0
sg4
I5
sg5
I0
sg6
g68
sg3
I700
sg9
I7
sg10
g49
sg12
I25
sg14
I2
sg15
I282
sg16
I0
sg13
I0
sg18
g53
sg17
I21
sg20
I7
sa(dp318
g8
I0
sg4
I5
sg5
I0
sg6
g59
sg3
I4000
sg9
I6
sg10
g49
sg12
I25
sg14
I9
sg15
I283
sg16
I0
sg13
I0
sg18
g60
sg17
I8
sg20
I7
sa(dp319
g8
I0
sg4
I5
sg5
I0
sg6
g59
sg3
I4000
sg9
I6
sg10
g49
sg12
I25
sg14
I9
sg15
I284
sg16
I0
sg13
I0
sg18
g60
sg17
I8
sg20
I7
sa(dp320
g8
I0
sg4
I5
sg5
I0
sg6
g59
sg3
I4000
sg9
I5
sg10
g49
sg12
I25
sg14
I9
sg15
I285
sg16
I0
sg13
I0
sg18
g63
sg17
I8
sg20
I7
sa(dp321
g8
I0
sg4
I5
sg5
I0
sg6
g59
sg3
I4000
sg9
I5
sg10
g49
sg12
I25
sg14
I9
sg15
I286
sg16
I0
sg13
I0
sg18
g63
sg17
I8
sg20
I7
sa(dp322
g8
I0
sg4
I5
sg5
I0
sg6
g78
sg3
I700
sg9
I3
sg10
g49
sg12
I25
sg14
I3
sg15
I287
sg16
I0
sg13
I0
sg18
g78
sg17
I21
sg20
I7
sa(dp323
g8
I0
sg4
I5
sg5
I0
sg6
g70
sg3
I750
sg9
I3
sg10
g49
sg12
I25
sg14
I4
sg15
I288
sg16
I0
sg13
I0
sg18
g78
sg17
I20
sg20
I7
sa(dp324
g8
I0
sg4
I5
sg5
I0
sg6
g70
sg3
I700
sg9
I7
sg10
g49
sg12
I25
sg14
I4
sg15
I289
sg16
I0
sg13
I0
sg18
g53
sg17
I21
sg20
I7
sa(dp325
g8
I0
sg4
I5
sg5
I0
sg6
g78
sg3
I700
sg9
I7
sg10
g49
sg12
I25
sg14
I3
sg15
I290
sg16
I0
sg13
I0
sg18
g53
sg17
I21
sg20
I7
sa(dp326
g8
I0
sg4
I5
sg5
I0
sg6
g70
sg3
I4500
sg9
I7
sg10
g49
sg12
I25
sg14
I4
sg15
I291
sg16
I0
sg13
I0
sg18
g53
sg17
I8
sg20
I7
sa(dp327
g8
I0
sg4
I5
sg5
I0
sg6
g7
sg3
I1000
sg9
I8
sg10
g11
sg12
I25
sg14
I9
sg15
I292
sg16
I0
sg13
I0
sg18
g19
sg17
I30
sg20
I7
sa(dp328
g8
I0
sg4
I5
sg5
I0
sg6
g70
sg3
I700
sg9
I4
sg10
g49
sg12
I25
sg14
I4
sg15
I293
sg16
I0
sg13
I0
sg18
g70
sg17
I21
sg20
I7
sa(dp329
g8
I0
sg4
I5
sg5
I0
sg6
g51
sg3
I300
sg9
I4
sg10
g49
sg12
I25
sg14
I8
sg15
I294
sg16
I0
sg13
I0
sg18
g70
sg17
I20
sg20
I7
sa(dp330
g8
I0
sg4
I5
sg5
I0
sg6
g51
sg3
I35
sg9
I7
sg10
g49
sg12
I25
sg14
I8
sg15
I295
sg16
I0
sg13
I0
sg18
g53
sg17
I25
sg20
I7
sa(dp331
g8
I5
sg4
I5
sg5
I0
sg6
g70
sg3
I700
sg9
I7
sg10
g49
sg12
I25
sg14
I4
sg15
I296
sg16
I0
sg13
I0
sg18
g53
sg17
I21
sg20
I7
sa(dp332
g8
I0
sg4
I5
sg5
I0
sg6
g7
sg3
I400
sg9
I8
sg10
g11
sg12
I25
sg14
I9
sg15
I297
sg16
I0
sg13
I0
sg18
g19
sg17
I30
sg20
I7
sa(dp333
g8
I0
sg4
I5
sg5
I0
sg6
g70
sg3
I700
sg9
I4
sg10
g49
sg12
I25
sg14
I4
sg15
I298
sg16
I0
sg13
I0
sg18
g70
sg17
I21
sg20
I7
sa(dp334
g8
I0
sg4
I5
sg5
I0
sg6
g51
sg3
I300
sg9
I4
sg10
g49
sg12
I25
sg14
I8
sg15
I299
sg16
I0
sg13
I0
sg18
g70
sg17
I20
sg20
I7
sa(dp335
g8
I0
sg4
I5
sg5
I0
sg6
g51
sg3
I35
sg9
I7
sg10
g49
sg12
I25
sg14
I8
sg15
I300
sg16
I0
sg13
I0
sg18
g53
sg17
I25
sg20
I7
sa(dp336
g8
I5
sg4
I5
sg5
I0
sg6
g70
sg3
I700
sg9
I7
sg10
g49
sg12
I25
sg14
I4
sg15
I301
sg16
I0
sg13
I0
sg18
g53
sg17
I21
sg20
I7
sa(dp337
g8
I0
sg4
I5
sg5
I0
sg6
g7
sg3
I400
sg9
I8
sg10
g11
sg12
I25
sg14
I9
sg15
I302
sg16
I0
sg13
I0
sg18
g19
sg17
I30
sg20
I7
sa(dp338
g8
I0
sg4
I5
sg5
I0
sg6
g59
sg3
I2000
sg9
I4
sg10
g49
sg12
I25
sg14
I9
sg15
I303
sg16
I0
sg13
I0
sg18
g70
sg17
I16
sg20
I7
sa(dp339
g8
I0
sg4
I5
sg5
I0
sg6
g59
sg3
I4000
sg9
I6
sg10
g49
sg12
I25
sg14
I9
sg15
I304
sg16
I0
sg13
I0
sg18
g60
sg17
I8
sg20
I7
sa(dp340
g8
I0
sg4
I5
sg5
I0
sg6
g59
sg3
I4000
sg9
I6
sg10
g49
sg12
I25
sg14
I9
sg15
I305
sg16
I0
sg13
I0
sg18
g60
sg17
I8
sg20
I7
sa(dp341
g8
I0
sg4
I5
sg5
I0
sg6
g59
sg3
I4000
sg9
I5
sg10
g49
sg12
I25
sg14
I9
sg15
I306
sg16
I0
sg13
I0
sg18
g63
sg17
I8
sg20
I7
sa(dp342
g8
I0
sg4
I5
sg5
I0
sg6
g59
sg3
I4000
sg9
I5
sg10
g49
sg12
I25
sg14
I9
sg15
I307
sg16
I0
sg13
I0
sg18
g63
sg17
I8
sg20
I7
sa(dp343
g8
I5
sg4
I5
sg5
I0
sg6
g51
sg3
I900
sg9
I5
sg10
g49
sg12
I25
sg14
I8
sg15
I308
sg16
I0
sg13
I0
sg18
g63
sg17
I20
sg20
I7
sa(dp344
g8
I0
sg4
I5
sg5
I0
sg6
g7
sg3
I1000
sg9
I8
sg10
g11
sg12
I25
sg14
I9
sg15
I309
sg16
I0
sg13
I0
sg18
g19
sg17
I30
sg20
I7
sa(dp345
g8
I5
sg4
I5
sg5
I0
sg6
g51
sg3
I900
sg9
I5
sg10
g49
sg12
I25
sg14
I8
sg15
I310
sg16
I0
sg13
I0
sg18
g63
sg17
I20
sg20
I7
sa(dp346
g8
I0
sg4
I5
sg5
I0
sg6
g7
sg3
I1000
sg9
I8
sg10
g11
sg12
I25
sg14
I9
sg15
I311
sg16
I0
sg13
I0
sg18
g19
sg17
I30
sg20
I7
sa(dp347
g8
I5
sg4
I5
sg5
I0
sg6
g51
sg3
I900
sg9
I5
sg10
g49
sg12
I25
sg14
I8
sg15
I312
sg16
I0
sg13
I0
sg18
g63
sg17
I20
sg20
I7
sa(dp348
g8
I0
sg4
I5
sg5
I0
sg6
g7
sg3
I1000
sg9
I8
sg10
g11
sg12
I25
sg14
I9
sg15
I313
sg16
I0
sg13
I0
sg18
g19
sg17
I30
sg20
I7
sa(dp349
g8
I0
sg4
I5
sg5
I0
sg6
g7
sg3
I1000
sg9
I4
sg10
g11
sg12
I25
sg14
I9
sg15
I314
sg16
I0
sg13
I0
sg18
g106
sg17
I8
sg20
I7
sa(dp350
g8
I0
sg4
I5
sg5
I0
sg6
g7
sg3
I1000
sg9
I4
sg10
g11
sg12
I25
sg14
I9
sg15
I315
sg16
I0
sg13
I0
sg18
g106
sg17
I8
sg20
I7
sa(dp351
g8
I0
sg4
I5
sg5
I0
sg6
g7
sg3
I1000
sg9
I4
sg10
g11
sg12
I25
sg14
I9
sg15
I316
sg16
I0
sg13
I0
sg18
g106
sg17
I8
sg20
I7
sa(dp352
g8
I0
sg4
I5
sg5
I0
sg6
g7
sg3
I1000
sg9
I4
sg10
g11
sg12
I25
sg14
I9
sg15
I317
sg16
I0
sg13
I0
sg18
g106
sg17
I8
sg20
I7
sa(dp353
g8
I0
sg4
I5
sg5
I0
sg6
g7
sg3
I1000
sg9
I3
sg10
g11
sg12
I25
sg14
I9
sg15
I318
sg16
I0
sg13
I0
sg18
g22
sg17
I8
sg20
I7
sa(dp354
g8
I0
sg4
I5
sg5
I0
sg6
g7
sg3
I1000
sg9
I3
sg10
g11
sg12
I25
sg14
I9
sg15
I319
sg16
I0
sg13
I0
sg18
g22
sg17
I8
sg20
I7
sa(dp355
g8
I0
sg4
I5
sg5
I0
sg6
g7
sg3
I1000
sg9
I3
sg10
g11
sg12
I25
sg14
I9
sg15
I320
sg16
I0
sg13
I0
sg18
g22
sg17
I8
sg20
I7
sa(dp356
g8
I0
sg4
I5
sg5
I0
sg6
g7
sg3
I1000
sg9
I3
sg10
g11
sg12
I25
sg14
I9
sg15
I321
sg16
I0
sg13
I0
sg18
g22
sg17
I8
sg20
I7
sa(dp357
g8
I0
sg4
I5
sg5
I0
sg6
g7
sg3
I1000
sg9
I3
sg10
g11
sg12
I25
sg14
I9
sg15
I322
sg16
I0
sg13
I0
sg18
g22
sg17
I8
sg20
I7
sa(dp358
g8
I0
sg4
I5
sg5
I0
sg6
g51
sg3
I900
sg9
I5
sg10
g49
sg12
I25
sg14
I8
sg15
I323
sg16
I0
sg13
I0
sg18
g63
sg17
I20
sg20
I7
sa(dp359
g8
I0
sg4
I5
sg5
I0
sg6
g7
sg3
I1000
sg9
I8
sg10
g11
sg12
I25
sg14
I9
sg15
I324
sg16
I0
sg13
I0
sg18
g19
sg17
I30
sg20
I8
sa(dp360
g8
I0
sg4
I5
sg5
I0
sg6
g7
sg3
I1000
sg9
I3
sg10
g11
sg12
I25
sg14
I9
sg15
I325
sg16
I0
sg13
I0
sg18
g22
sg17
I8
sg20
I8
sa(dp361
g8
I0
sg4
I5
sg5
I0
sg6
g19
sg3
I250
sg9
I2
sg10
g11
sg12
I25
sg14
I8
sg15
I326
sg16
I0
sg13
I0
sg18
g24
sg17
I16
sg20
I8
sa(dp362
g8
I0
sg4
I5
sg5
I0
sg6
g19
sg3
I35
sg9
I7
sg10
g11
sg12
I25
sg14
I8
sg15
I327
sg16
I0
sg13
I0
sg18
g26
sg17
I25
sg20
I8
sa(dp363
g8
I0
sg4
I5
sg5
I0
sg6
g7
sg3
I1000
sg9
I3
sg10
g11
sg12
I25
sg14
I9
sg15
I328
sg16
I0
sg13
I0
sg18
g22
sg17
I8
sg20
I8
sa(dp364
g8
I0
sg4
I5
sg5
I0
sg6
g7
sg3
I1000
sg9
I3
sg10
g11
sg12
I25
sg14
I9
sg15
I329
sg16
I0
sg13
I0
sg18
g22
sg17
I8
sg20
I8
sa(dp365
g8
I0
sg4
I5
sg5
I0
sg6
g7
sg3
I1000
sg9
I3
sg10
g11
sg12
I25
sg14
I9
sg15
I330
sg16
I0
sg13
I0
sg18
g22
sg17
I8
sg20
I8
sa(dp366
g8
I0
sg4
I5
sg5
I0
sg6
g7
sg3
I1000
sg9
I3
sg10
g11
sg12
I25
sg14
I9
sg15
I331
sg16
I0
sg13
I0
sg18
g22
sg17
I8
sg20
I8
sa(dp367
g8
I45
sg4
I5
sg5
I0
sg6
g7
sg3
I1000
sg9
I3
sg10
g11
sg12
I25
sg14
I9
sg15
I332
sg16
I0
sg13
I0
sg18
g22
sg17
I8
sg20
I8
sa(dp368
g8
I0
sg4
I5
sg5
I0
sg6
g7
sg3
I350
sg9
I8
sg10
g11
sg12
I25
sg14
I9
sg15
I333
sg16
I0
sg13
I0
sg18
g19
sg17
I30
sg20
I8
sa(dp369
g8
I0
sg4
I5
sg5
I0
sg6
g7
sg3
I1000
sg9
I3
sg10
g11
sg12
I25
sg14
I9
sg15
I334
sg16
I0
sg13
I0
sg18
g22
sg17
I8
sg20
I8
sa(dp370
g8
I0
sg4
I5
sg5
I0
sg6
g7
sg3
I1000
sg9
I3
sg10
g11
sg12
I25
sg14
I9
sg15
I335
sg16
I0
sg13
I0
sg18
g22
sg17
I8
sg20
I8
sa(dp371
g8
I0
sg4
I5
sg5
I0
sg6
g7
sg3
I1000
sg9
I3
sg10
g11
sg12
I25
sg14
I9
sg15
I336
sg16
I0
sg13
I0
sg18
g22
sg17
I8
sg20
I8
sa(dp372
g8
I0
sg4
I5
sg5
I0
sg6
g7
sg3
I1000
sg9
I3
sg10
g11
sg12
I25
sg14
I9
sg15
I337
sg16
I0
sg13
I0
sg18
g22
sg17
I8
sg20
I8
sa(dp373
g8
I0
sg4
I5
sg5
I0
sg6
g19
sg3
I250
sg9
I3
sg10
g11
sg12
I25
sg14
I8
sg15
I338
sg16
I0
sg13
I1
sg18
g22
sg17
I16
sg20
I8
sa(dp374
g8
I0
sg4
I5
sg5
I0
sg6
g19
sg3
I250
sg9
I3
sg10
g11
sg12
I25
sg14
I8
sg15
I339
sg16
I0
sg13
I1
sg18
g22
sg17
I16
sg20
I8
sa(dp375
g8
I5
sg4
I5
sg5
I0
sg6
g19
sg3
I1000
sg9
I3
sg10
g11
sg12
I25
sg14
I8
sg15
I340
sg16
I0
sg13
I1
sg18
g22
sg17
I16
sg20
I8
sa(dp376
g8
I5
sg4
I5
sg5
I0
sg6
g19
sg3
I1000
sg9
I3
sg10
g11
sg12
I25
sg14
I8
sg15
I341
sg16
I0
sg13
I1
sg18
g22
sg17
I16
sg20
I8
sa(dp377
g8
I5
sg4
I5
sg5
I0
sg6
g19
sg3
I1000
sg9
I3
sg10
g11
sg12
I25
sg14
I8
sg15
I342
sg16
I0
sg13
I1
sg18
g22
sg17
I16
sg20
I8
sa(dp378
g8
I5
sg4
I5
sg5
I0
sg6
g19
sg3
I1000
sg9
I3
sg10
g11
sg12
I25
sg14
I8
sg15
I343
sg16
I0
sg13
I1
sg18
g22
sg17
I16
sg20
I8
sa(dp379
g8
I0
sg4
I5
sg5
I0
sg6
g7
sg3
I1000
sg9
I8
sg10
g11
sg12
I25
sg14
I9
sg15
I344
sg16
I0
sg13
I0
sg18
g19
sg17
I30
sg20
I8
sa(dp380
g8
I0
sg4
I5
sg5
I0
sg6
g19
sg3
I750
sg9
I5
sg10
g11
sg12
I25
sg14
I8
sg15
I345
sg16
I0
sg13
I0
sg18
g45
sg17
I16
sg20
I8
sa(dp381
g8
I0
sg4
I5
sg5
I0
sg6
g7
sg3
I1000
sg9
I8
sg10
g11
sg12
I25
sg14
I9
sg15
I346
sg16
I0
sg13
I0
sg18
g19
sg17
I30
sg20
I9
sa(dp382
g8
I0
sg4
I5
sg5
I0
sg6
g48
sg3
I700
sg9
I1
sg10
g49
sg12
I25
sg14
I1
sg15
I347
sg16
I0
sg13
I0
sg18
g48
sg17
I21
sg20
I9
sa(dp383
g8
I0
sg4
I5
sg5
I0
sg6
g51
sg3
I300
sg9
I1
sg10
g49
sg12
I25
sg14
I8
sg15
I348
sg16
I0
sg13
I0
sg18
g48
sg17
I20
sg20
I9
sa(dp384
g8
I5
sg4
I5
sg5
I0
sg6
g51
sg3
I35
sg9
I7
sg10
g49
sg12
I25
sg14
I8
sg15
I349
sg16
I0
sg13
I0
sg18
g53
sg17
I25
sg20
I9
sa(dp385
g8
I0
sg4
I5
sg5
I0
sg6
g7
sg3
I400
sg9
I8
sg10
g11
sg12
I25
sg14
I9
sg15
I350
sg16
I0
sg13
I0
sg18
g19
sg17
I30
sg20
I9
sa(dp386
g8
I0
sg4
I5
sg5
I0
sg6
g51
sg3
I300
sg9
I1
sg10
g49
sg12
I25
sg14
I8
sg15
I351
sg16
I0
sg13
I0
sg18
g48
sg17
I20
sg20
I9
sa(dp387
g8
I5
sg4
I5
sg5
I0
sg6
g51
sg3
I35
sg9
I7
sg10
g49
sg12
I25
sg14
I8
sg15
I352
sg16
I0
sg13
I0
sg18
g53
sg17
I25
sg20
I9
sa(dp388
g8
I0
sg4
I5
sg5
I0
sg6
g7
sg3
I400
sg9
I8
sg10
g11
sg12
I25
sg14
I9
sg15
I353
sg16
I0
sg13
I0
sg18
g19
sg17
I30
sg20
I9
sa(dp389
g8
I0
sg4
I5
sg5
I0
sg6
g59
sg3
I4000
sg9
I6
sg10
g49
sg12
I25
sg14
I9
sg15
I354
sg16
I0
sg13
I0
sg18
g60
sg17
I8
sg20
I9
sa(dp390
g8
I0
sg4
I5
sg5
I0
sg6
g59
sg3
I4000
sg9
I6
sg10
g49
sg12
I25
sg14
I9
sg15
I355
sg16
I0
sg13
I0
sg18
g60
sg17
I8
sg20
I9
sa(dp391
g8
I0
sg4
I5
sg5
I0
sg6
g59
sg3
I4000
sg9
I5
sg10
g49
sg12
I25
sg14
I9
sg15
I356
sg16
I0
sg13
I0
sg18
g63
sg17
I8
sg20
I9
sa(dp392
g8
I0
sg4
I5
sg5
I0
sg6
g59
sg3
I4000
sg9
I5
sg10
g49
sg12
I25
sg14
I9
sg15
I357
sg16
I0
sg13
I0
sg18
g63
sg17
I8
sg20
I9
sa(dp393
g8
I0
sg4
I5
sg5
I0
sg6
g51
sg3
I900
sg9
I5
sg10
g49
sg12
I25
sg14
I8
sg15
I358
sg16
I0
sg13
I0
sg18
g63
sg17
I20
sg20
I9
sa(dp394
g8
I0
sg4
I5
sg5
I0
sg6
g48
sg3
I700
sg9
I7
sg10
g49
sg12
I25
sg14
I1
sg15
I359
sg16
I0
sg13
I0
sg18
g53
sg17
I21
sg20
I9
sa(dp395
g8
I0
sg4
I5
sg5
I0
sg6
g68
sg3
I700
sg9
I2
sg10
g49
sg12
I25
sg14
I2
sg15
I360
sg16
I0
sg13
I0
sg18
g68
sg17
I21
sg20
I9
sa(dp396
g8
I0
sg4
I5
sg5
I0
sg6
g70
sg3
I270
sg9
I2
sg10
g49
sg12
I25
sg14
I4
sg15
I361
sg16
I0
sg13
I0
sg18
g68
sg17
I20
sg20
I9
sa(dp397
g8
I0
sg4
I5
sg5
I0
sg6
g70
sg3
I700
sg9
I7
sg10
g49
sg12
I25
sg14
I4
sg15
I362
sg16
I0
sg13
I0
sg18
g53
sg17
I21
sg20
I9
sa(dp398
g8
I0
sg4
I5
sg5
I0
sg6
g68
sg3
I700
sg9
I7
sg10
g49
sg12
I25
sg14
I2
sg15
I363
sg16
I0
sg13
I0
sg18
g53
sg17
I21
sg20
I9
sa(dp399
g8
I0
sg4
I5
sg5
I0
sg6
g59
sg3
I4000
sg9
I6
sg10
g49
sg12
I25
sg14
I9
sg15
I364
sg16
I0
sg13
I0
sg18
g60
sg17
I8
sg20
I9
sa(dp400
g8
I0
sg4
I5
sg5
I0
sg6
g59
sg3
I4000
sg9
I6
sg10
g49
sg12
I25
sg14
I9
sg15
I365
sg16
I0
sg13
I0
sg18
g60
sg17
I8
sg20
I9
sa(dp401
g8
I0
sg4
I5
sg5
I0
sg6
g59
sg3
I4000
sg9
I5
sg10
g49
sg12
I25
sg14
I9
sg15
I366
sg16
I0
sg13
I0
sg18
g63
sg17
I8
sg20
I9
sa(dp402
g8
I0
sg4
I5
sg5
I0
sg6
g59
sg3
I4000
sg9
I5
sg10
g49
sg12
I25
sg14
I9
sg15
I367
sg16
I0
sg13
I0
sg18
g63
sg17
I8
sg20
I9
sa(dp403
g8
I0
sg4
I5
sg5
I0
sg6
g78
sg3
I700
sg9
I3
sg10
g49
sg12
I25
sg14
I3
sg15
I368
sg16
I0
sg13
I0
sg18
g78
sg17
I21
sg20
I9
sa(dp404
g8
I0
sg4
I5
sg5
I0
sg6
g70
sg3
I750
sg9
I3
sg10
g49
sg12
I25
sg14
I4
sg15
I369
sg16
I0
sg13
I0
sg18
g78
sg17
I20
sg20
I9
sa(dp405
g8
I0
sg4
I5
sg5
I0
sg6
g70
sg3
I700
sg9
I7
sg10
g49
sg12
I25
sg14
I4
sg15
I370
sg16
I0
sg13
I0
sg18
g53
sg17
I21
sg20
I9
sa(dp406
g8
I0
sg4
I5
sg5
I0
sg6
g78
sg3
I700
sg9
I7
sg10
g49
sg12
I25
sg14
I3
sg15
I371
sg16
I0
sg13
I0
sg18
g53
sg17
I21
sg20
I9
sa(dp407
g8
I0
sg4
I5
sg5
I0
sg6
g70
sg3
I4500
sg9
I7
sg10
g49
sg12
I25
sg14
I4
sg15
I372
sg16
I0
sg13
I0
sg18
g53
sg17
I8
sg20
I9
sa(dp408
g8
I0
sg4
I5
sg5
I0
sg6
g7
sg3
I1000
sg9
I8
sg10
g11
sg12
I25
sg14
I9
sg15
I373
sg16
I0
sg13
I0
sg18
g19
sg17
I30
sg20
I9
sa(dp409
g8
I0
sg4
I5
sg5
I0
sg6
g70
sg3
I700
sg9
I4
sg10
g49
sg12
I25
sg14
I4
sg15
I374
sg16
I0
sg13
I0
sg18
g70
sg17
I21
sg20
I9
sa(dp410
g8
I0
sg4
I5
sg5
I0
sg6
g51
sg3
I300
sg9
I4
sg10
g49
sg12
I25
sg14
I8
sg15
I375
sg16
I0
sg13
I0
sg18
g70
sg17
I20
sg20
I9
sa(dp411
g8
I0
sg4
I5
sg5
I0
sg6
g51
sg3
I35
sg9
I7
sg10
g49
sg12
I25
sg14
I8
sg15
I376
sg16
I0
sg13
I0
sg18
g53
sg17
I25
sg20
I9
sa(dp412
g8
I5
sg4
I5
sg5
I0
sg6
g70
sg3
I700
sg9
I7
sg10
g49
sg12
I25
sg14
I4
sg15
I377
sg16
I0
sg13
I0
sg18
g53
sg17
I21
sg20
I9
sa(dp413
g8
I0
sg4
I5
sg5
I0
sg6
g7
sg3
I400
sg9
I8
sg10
g11
sg12
I25
sg14
I9
sg15
I378
sg16
I0
sg13
I0
sg18
g19
sg17
I30
sg20
I9
sa(dp414
g8
I0
sg4
I5
sg5
I0
sg6
g70
sg3
I700
sg9
I4
sg10
g49
sg12
I25
sg14
I4
sg15
I379
sg16
I0
sg13
I0
sg18
g70
sg17
I21
sg20
I9
sa(dp415
g8
I0
sg4
I5
sg5
I0
sg6
g51
sg3
I300
sg9
I4
sg10
g49
sg12
I25
sg14
I8
sg15
I380
sg16
I0
sg13
I0
sg18
g70
sg17
I20
sg20
I9
sa(dp416
g8
I0
sg4
I5
sg5
I0
sg6
g51
sg3
I35
sg9
I7
sg10
g49
sg12
I25
sg14
I8
sg15
I381
sg16
I0
sg13
I0
sg18
g53
sg17
I25
sg20
I9
sa(dp417
g8
I5
sg4
I5
sg5
I0
sg6
g70
sg3
I700
sg9
I7
sg10
g49
sg12
I25
sg14
I4
sg15
I382
sg16
I0
sg13
I0
sg18
g53
sg17
I21
sg20
I9
sa(dp418
g8
I0
sg4
I5
sg5
I0
sg6
g7
sg3
I400
sg9
I8
sg10
g11
sg12
I25
sg14
I9
sg15
I383
sg16
I0
sg13
I0
sg18
g19
sg17
I30
sg20
I9
sa(dp419
g8
I0
sg4
I5
sg5
I0
sg6
g59
sg3
I2000
sg9
I4
sg10
g49
sg12
I25
sg14
I9
sg15
I384
sg16
I0
sg13
I0
sg18
g70
sg17
I16
sg20
I9
sa(dp420
g8
I0
sg4
I5
sg5
I0
sg6
g59
sg3
I4000
sg9
I6
sg10
g49
sg12
I25
sg14
I9
sg15
I385
sg16
I0
sg13
I0
sg18
g60
sg17
I8
sg20
I9
sa(dp421
g8
I0
sg4
I5
sg5
I0
sg6
g59
sg3
I4000
sg9
I6
sg10
g49
sg12
I25
sg14
I9
sg15
I386
sg16
I0
sg13
I0
sg18
g60
sg17
I8
sg20
I9
sa(dp422
g8
I0
sg4
I5
sg5
I0
sg6
g59
sg3
I4000
sg9
I5
sg10
g49
sg12
I25
sg14
I9
sg15
I387
sg16
I0
sg13
I0
sg18
g63
sg17
I8
sg20
I9
sa(dp423
g8
I0
sg4
I5
sg5
I0
sg6
g59
sg3
I4000
sg9
I5
sg10
g49
sg12
I25
sg14
I9
sg15
I388
sg16
I0
sg13
I0
sg18
g63
sg17
I8
sg20
I9
sa(dp424
g8
I5
sg4
I5
sg5
I0
sg6
g51
sg3
I900
sg9
I5
sg10
g49
sg12
I25
sg14
I8
sg15
I389
sg16
I0
sg13
I0
sg18
g63
sg17
I20
sg20
I9
sa(dp425
g8
I0
sg4
I5
sg5
I0
sg6
g7
sg3
I1000
sg9
I8
sg10
g11
sg12
I25
sg14
I9
sg15
I390
sg16
I0
sg13
I0
sg18
g19
sg17
I30
sg20
I9
sa(dp426
g8
I5
sg4
I5
sg5
I0
sg6
g51
sg3
I900
sg9
I5
sg10
g49
sg12
I25
sg14
I8
sg15
I391
sg16
I0
sg13
I0
sg18
g63
sg17
I20
sg20
I9
sa(dp427
g8
I0
sg4
I5
sg5
I0
sg6
g7
sg3
I1000
sg9
I8
sg10
g11
sg12
I25
sg14
I9
sg15
I392
sg16
I0
sg13
I0
sg18
g19
sg17
I30
sg20
I9
sa(dp428
g8
I5
sg4
I5
sg5
I0
sg6
g51
sg3
I900
sg9
I5
sg10
g49
sg12
I25
sg14
I8
sg15
I393
sg16
I0
sg13
I0
sg18
g63
sg17
I20
sg20
I9
sa(dp429
g8
I0
sg4
I5
sg5
I0
sg6
g7
sg3
I1000
sg9
I8
sg10
g11
sg12
I25
sg14
I9
sg15
I394
sg16
I0
sg13
I0
sg18
g19
sg17
I30
sg20
I9
sa(dp430
g8
I0
sg4
I5
sg5
I0
sg6
g7
sg3
I1000
sg9
I4
sg10
g11
sg12
I25
sg14
I9
sg15
I395
sg16
I0
sg13
I0
sg18
g106
sg17
I8
sg20
I9
sa(dp431
g8
I0
sg4
I5
sg5
I0
sg6
g7
sg3
I1000
sg9
I4
sg10
g11
sg12
I25
sg14
I9
sg15
I396
sg16
I0
sg13
I0
sg18
g106
sg17
I8
sg20
I9
sa(dp432
g8
I0
sg4
I5
sg5
I0
sg6
g7
sg3
I1000
sg9
I4
sg10
g11
sg12
I25
sg14
I9
sg15
I397
sg16
I0
sg13
I0
sg18
g106
sg17
I8
sg20
I9
sa(dp433
g8
I0
sg4
I5
sg5
I0
sg6
g7
sg3
I1000
sg9
I4
sg10
g11
sg12
I25
sg14
I9
sg15
I398
sg16
I0
sg13
I0
sg18
g106
sg17
I8
sg20
I9
sa(dp434
g8
I0
sg4
I5
sg5
I0
sg6
g7
sg3
I1000
sg9
I3
sg10
g11
sg12
I25
sg14
I9
sg15
I399
sg16
I0
sg13
I0
sg18
g22
sg17
I8
sg20
I9
sa(dp435
g8
I0
sg4
I5
sg5
I0
sg6
g7
sg3
I1000
sg9
I3
sg10
g11
sg12
I25
sg14
I9
sg15
I400
sg16
I0
sg13
I0
sg18
g22
sg17
I8
sg20
I9
sa(dp436
g8
I0
sg4
I5
sg5
I0
sg6
g7
sg3
I1000
sg9
I3
sg10
g11
sg12
I25
sg14
I9
sg15
I401
sg16
I0
sg13
I0
sg18
g22
sg17
I8
sg20
I9
sa(dp437
g8
I0
sg4
I5
sg5
I0
sg6
g7
sg3
I1000
sg9
I3
sg10
g11
sg12
I25
sg14
I9
sg15
I402
sg16
I0
sg13
I0
sg18
g22
sg17
I8
sg20
I9
sa(dp438
g8
I0
sg4
I5
sg5
I0
sg6
g7
sg3
I1000
sg9
I3
sg10
g11
sg12
I25
sg14
I9
sg15
I403
sg16
I0
sg13
I0
sg18
g22
sg17
I8
sg20
I9
sa(dp439
g8
I0
sg4
I5
sg5
I0
sg6
g51
sg3
I900
sg9
I5
sg10
g49
sg12
I25
sg14
I8
sg15
I404
sg16
I0
sg13
I0
sg18
g63
sg17
I20
sg20
I9
sa(dp440
g8
I0
sg4
I5
sg5
I0
sg6
g7
sg3
I1000
sg9
I8
sg10
g11
sg12
I25
sg14
I9
sg15
I405
sg16
I0
sg13
I0
sg18
g19
sg17
I30
sg20
I10
sa(dp441
g8
I0
sg4
I5
sg5
I0
sg6
g7
sg3
I1000
sg9
I3
sg10
g11
sg12
I25
sg14
I9
sg15
I406
sg16
I0
sg13
I0
sg18
g22
sg17
I8
sg20
I10
sa(dp442
g8
I0
sg4
I5
sg5
I0
sg6
g19
sg3
I250
sg9
I2
sg10
g11
sg12
I25
sg14
I8
sg15
I407
sg16
I0
sg13
I0
sg18
g24
sg17
I16
sg20
I10
sa(dp443
g8
I0
sg4
I5
sg5
I0
sg6
g19
sg3
I35
sg9
I7
sg10
g11
sg12
I25
sg14
I8
sg15
I408
sg16
I0
sg13
I0
sg18
g26
sg17
I25
sg20
I10
sa(dp444
g8
I0
sg4
I5
sg5
I0
sg6
g7
sg3
I1000
sg9
I3
sg10
g11
sg12
I25
sg14
I9
sg15
I409
sg16
I0
sg13
I0
sg18
g22
sg17
I8
sg20
I10
sa(dp445
g8
I0
sg4
I5
sg5
I0
sg6
g7
sg3
I1000
sg9
I3
sg10
g11
sg12
I25
sg14
I9
sg15
I410
sg16
I0
sg13
I0
sg18
g22
sg17
I8
sg20
I10
sa(dp446
g8
I0
sg4
I5
sg5
I0
sg6
g7
sg3
I1000
sg9
I3
sg10
g11
sg12
I25
sg14
I9
sg15
I411
sg16
I0
sg13
I0
sg18
g22
sg17
I8
sg20
I10
sa(dp447
g8
I0
sg4
I5
sg5
I0
sg6
g7
sg3
I1000
sg9
I3
sg10
g11
sg12
I25
sg14
I9
sg15
I412
sg16
I0
sg13
I0
sg18
g22
sg17
I8
sg20
I10
sa(dp448
g8
I45
sg4
I5
sg5
I0
sg6
g7
sg3
I1000
sg9
I3
sg10
g11
sg12
I25
sg14
I9
sg15
I413
sg16
I0
sg13
I0
sg18
g22
sg17
I8
sg20
I10
sa(dp449
g8
I0
sg4
I5
sg5
I0
sg6
g7
sg3
I350
sg9
I8
sg10
g11
sg12
I25
sg14
I9
sg15
I414
sg16
I0
sg13
I0
sg18
g19
sg17
I30
sg20
I10
sa(dp450
g8
I0
sg4
I5
sg5
I0
sg6
g7
sg3
I1000
sg9
I3
sg10
g11
sg12
I25
sg14
I9
sg15
I415
sg16
I0
sg13
I0
sg18
g22
sg17
I8
sg20
I10
sa(dp451
g8
I0
sg4
I5
sg5
I0
sg6
g7
sg3
I1000
sg9
I3
sg10
g11
sg12
I25
sg14
I9
sg15
I416
sg16
I0
sg13
I0
sg18
g22
sg17
I8
sg20
I10
sa(dp452
g8
I0
sg4
I5
sg5
I0
sg6
g7
sg3
I1000
sg9
I3
sg10
g11
sg12
I25
sg14
I9
sg15
I417
sg16
I0
sg13
I0
sg18
g22
sg17
I8
sg20
I10
sa(dp453
g8
I0
sg4
I5
sg5
I0
sg6
g7
sg3
I1000
sg9
I3
sg10
g11
sg12
I25
sg14
I9
sg15
I418
sg16
I0
sg13
I0
sg18
g22
sg17
I8
sg20
I10
sa(dp454
g8
I0
sg4
I5
sg5
I0
sg6
g19
sg3
I250
sg9
I3
sg10
g11
sg12
I25
sg14
I8
sg15
I419
sg16
I0
sg13
I1
sg18
g22
sg17
I16
sg20
I10
sa(dp455
g8
I0
sg4
I5
sg5
I0
sg6
g19
sg3
I250
sg9
I3
sg10
g11
sg12
I25
sg14
I8
sg15
I420
sg16
I0
sg13
I1
sg18
g22
sg17
I16
sg20
I10
sa(dp456
g8
I5
sg4
I5
sg5
I0
sg6
g19
sg3
I1000
sg9
I3
sg10
g11
sg12
I25
sg14
I8
sg15
I421
sg16
I0
sg13
I1
sg18
g22
sg17
I16
sg20
I10
sa(dp457
g8
I5
sg4
I5
sg5
I0
sg6
g19
sg3
I1000
sg9
I3
sg10
g11
sg12
I25
sg14
I8
sg15
I422
sg16
I0
sg13
I1
sg18
g22
sg17
I16
sg20
I10
sa(dp458
g8
I5
sg4
I5
sg5
I0
sg6
g19
sg3
I1000
sg9
I3
sg10
g11
sg12
I25
sg14
I8
sg15
I423
sg16
I0
sg13
I1
sg18
g22
sg17
I16
sg20
I10
sa(dp459
g8
I5
sg4
I5
sg5
I0
sg6
g19
sg3
I1000
sg9
I3
sg10
g11
sg12
I25
sg14
I8
sg15
I424
sg16
I0
sg13
I1
sg18
g22
sg17
I16
sg20
I10
sa(dp460
g8
I0
sg4
I5
sg5
I0
sg6
g7
sg3
I1000
sg9
I8
sg10
g11
sg12
I25
sg14
I9
sg15
I425
sg16
I0
sg13
I0
sg18
g19
sg17
I30
sg20
I10
sa(dp461
g8
I0
sg4
I5
sg5
I0
sg6
g19
sg3
I750
sg9
I5
sg10
g11
sg12
I25
sg14
I8
sg15
I426
sg16
I0
sg13
I0
sg18
g45
sg17
I16
sg20
I10
sa.