(lp1
(dp2
S'reagent'
p3
S''
sS'pump'
p4
S'/dev/ttyUSB1'
p5
sS'port'
p6
I1
sa(dp7
g3
S'T4 ligase mix'
p8
sg4
g5
sg6
I2
sa(dp9
g3
S'1x instrument buffer 1'
p10
sg4
g5
sg6
I3
sa(dp11
g3
S''
sg4
g5
sg6
I4
sa(dp12
g3
S''
sg4
g5
sg6
I5
sa(dp13
g3
S''
sg4
g5
sg6
I6
sa(dp14
g3
S'Air 1'
p15
sg4
g5
sg6
I7
sa(dp16
g3
S'Output 1'
p17
sg4
g5
sg6
I8
sa(dp18
g3
S'Waste 1'
p19
sg4
g5
sg6
I9
sa(dp20
g3
S'Cleave solution 1'
p21
sg4
S'/dev/ttyUSB0'
p22
sg6
I1
sa(dp23
g3
S'Cleave solution 2.1'
p24
sg4
g22
sg6
I2
sa(dp25
g3
S'1x instrument buffer 2'
p26
sg4
g22
sg6
I3
sa(dp27
g3
S''
sg4
g22
sg6
I4
sa(dp28
g3
S''
sg4
g22
sg6
I5
sa(dp29
g3
S''
sg4
g22
sg6
I6
sa(dp30
g3
S'Air 2'
p31
sg4
g22
sg6
I7
sa(dp32
g3
S'Output 2'
p33
sg4
g22
sg6
I8
sa(dp34
g3
S'Waste 2'
p35
sg4
g22
sg6
I9
sa.(lp1
(dp2
S'waitsecs'
p3
I5
sS'toportreagent'
p4
S'Waste 1'
p5
sS'volume'
p6
I300
sS'toport'
p7
I9
sS'cmdnumber'
p8
I0
sS'speed'
p9
I30
sS'cycle'
p10
I0
sS'waitmins'
p11
I0
sS'temp'
p12
I25
sS'heatwhen'
p13
I0
sS'fromport'
p14
I8
sS'pump'
p15
S'/dev/ttyUSB1'
p16
sS'fromportreagent'
p17
S'Output 1'
p18
sS'waste'
p19
I0
sS'type'
p20
I0
sa(dp21
g3
I5
sg4
S'Waste 2'
p22
sg6
I300
sg7
I9
sg8
I1
sg9
I30
sg10
I0
sg11
I0
sg12
I25
sg13
I0
sg14
I8
sg15
S'/dev/ttyUSB0'
p23
sg17
S'Output 2'
p24
sg19
I0
sg20
I0
sa(dp25
g3
I5
sg4
S'Output 2'
p26
sg6
I130
sg7
I8
sg8
I2
sg9
I16
sg10
I0
sg11
I5
sg12
I25
sg13
I0
sg14
I1
sg15
g23
sg17
S'Cleave solution 1'
p27
sg19
I1
sg20
I1
sa(dp28
g3
I5
sg4
S'Output 2'
p29
sg6
I130
sg7
I8
sg8
I3
sg9
I16
sg10
I0
sg11
I5
sg12
I25
sg13
I0
sg14
I1
sg15
g23
sg17
S'Cleave solution 1'
p30
sg19
I1
sg20
I1
sa(dp31
g3
I5
sg4
S'Output 2'
p32
sg6
I130
sg7
I8
sg8
I4
sg9
I16
sg10
I0
sg11
I5
sg12
I25
sg13
I0
sg14
I2
sg15
g23
sg17
S'Cleave solution 2.1'
p33
sg19
I1
sg20
I1
sa(dp34
g3
I5
sg4
S'Output 2'
p35
sg6
I130
sg7
I8
sg8
I5
sg9
I16
sg10
I0
sg11
I5
sg12
I25
sg13
I0
sg14
I2
sg15
g23
sg17
S'Cleave solution 2.1'
p36
sg19
I1
sg20
I1
sa(dp37
g3
I5
sg4
S'Waste 2'
p38
sg6
I1000
sg7
I9
sg8
I6
sg9
I8
sg10
I0
sg11
I0
sg12
I25
sg13
I0
sg14
I3
sg15
g23
sg17
S'1x instrument buffer 2'
p39
sg19
I0
sg20
I0
sa(dp40
g3
I5
sg4
S'Waste 2'
p41
sg6
I1000
sg7
I9
sg8
I7
sg9
I8
sg10
I0
sg11
I0
sg12
I25
sg13
I0
sg14
I3
sg15
g23
sg17
S'1x instrument buffer 2'
p42
sg19
I0
sg20
I0
sa(dp43
g3
I5
sg4
S'Waste 2'
p44
sg6
I1000
sg7
I9
sg8
I8
sg9
I8
sg10
I0
sg11
I0
sg12
I25
sg13
I0
sg14
I3
sg15
g23
sg17
S'1x instrument buffer 2'
p45
sg19
I0
sg20
I0
sa(dp46
g3
I5
sg4
S'Waste 2'
p47
sg6
I1000
sg7
I9
sg8
I9
sg9
I8
sg10
I0
sg11
I0
sg12
I25
sg13
I0
sg14
I3
sg15
g23
sg17
S'1x instrument buffer 2'
p48
sg19
I0
sg20
I0
sa(dp49
g3
I5
sg4
S'Output 2'
p50
sg6
I1000
sg7
I8
sg8
I10
sg9
I16
sg10
I0
sg11
I5
sg12
I25
sg13
I0
sg14
I3
sg15
g23
sg17
S'1x instrument buffer 2'
p51
sg19
I1
sg20
I1
sa(dp52
g3
I5
sg4
S'Output 2'
p53
sg6
I1000
sg7
I8
sg8
I11
sg9
I16
sg10
I0
sg11
I5
sg12
I25
sg13
I0
sg14
I3
sg15
g23
sg17
S'1x instrument buffer 2'
p54
sg19
I1
sg20
I1
sa(dp55
g3
I5
sg4
S'Output 2'
p56
sg6
I1000
sg7
I8
sg8
I12
sg9
I16
sg10
I0
sg11
I5
sg12
I25
sg13
I0
sg14
I3
sg15
g23
sg17
S'1x instrument buffer 2'
p57
sg19
I1
sg20
I1
sa(dp58
g3
I5
sg4
S'Waste 1'
p59
sg6
I300
sg7
I9
sg8
I13
sg9
I30
sg10
I0
sg11
I0
sg12
I25
sg13
I0
sg14
I8
sg15
g16
sg17
S'Output 1'
p60
sg19
I0
sg20
I0
sa(dp61
g3
I5
sg4
S'Waste 2'
p62
sg6
I300
sg7
I9
sg8
I14
sg9
I30
sg10
I0
sg11
I0
sg12
I25
sg13
I0
sg14
I8
sg15
g23
sg17
S'Output 2'
p63
sg19
I0
sg20
I0
sa(dp64
g3
I5
sg4
S'Output 1'
p65
sg6
I130
sg7
I8
sg8
I15
sg9
I16
sg10
I0
sg11
I45
sg12
I25
sg13
I0
sg14
I2
sg15
g16
sg17
S'T4 ligase mix'
p66
sg19
I0
sg20
I0
sa(dp67
g3
I5
sg4
S'Waste 1'
p68
sg6
I1000
sg7
I9
sg8
I16
sg9
I8
sg10
I0
sg11
I0
sg12
I25
sg13
I0
sg14
I3
sg15
g16
sg17
S'1x instrument buffer 1'
p69
sg19
I0
sg20
I0
sa(dp70
g3
I5
sg4
S'Waste 1'
p71
sg6
I1000
sg7
I9
sg8
I17
sg9
I8
sg10
I0
sg11
I0
sg12
I25
sg13
I0
sg14
I3
sg15
g16
sg17
S'1x instrument buffer 1'
p72
sg19
I0
sg20
I0
sa(dp73
g3
I5
sg4
S'Waste 1'
p74
sg6
I1000
sg7
I9
sg8
I18
sg9
I8
sg10
I0
sg11
I0
sg12
I25
sg13
I0
sg14
I3
sg15
g16
sg17
S'1x instrument buffer 1'
p75
sg19
I0
sg20
I0
sa(dp76
g3
I5
sg4
S'Waste 1'
p77
sg6
I1000
sg7
I9
sg8
I19
sg9
I8
sg10
I0
sg11
I0
sg12
I25
sg13
I0
sg14
I3
sg15
g16
sg17
S'1x instrument buffer 1'
p78
sg19
I0
sg20
I0
sa(dp79
g3
I5
sg4
S'Output 1'
p80
sg6
I1000
sg7
I8
sg8
I20
sg9
I16
sg10
I0
sg11
I5
sg12
I25
sg13
I0
sg14
I3
sg15
g16
sg17
S'1x instrument buffer 1'
p81
sg19
I1
sg20
I1
sa(dp82
g3
I5
sg4
S'Output 1'
p83
sg6
I1000
sg7
I8
sg8
I21
sg9
I16
sg10
I0
sg11
I5
sg12
I25
sg13
I0
sg14
I3
sg15
g16
sg17
S'1x instrument buffer 1'
p84
sg19
I1
sg20
I1
sa(dp85
g3
I5
sg4
S'Output 1'
p86
sg6
I1000
sg7
I8
sg8
I22
sg9
I16
sg10
I0
sg11
I5
sg12
I25
sg13
I0
sg14
I3
sg15
g16
sg17
S'1x instrument buffer 1'
p87
sg19
I1
sg20
I1
sa(dp88
g3
I5
sg4
S'Output 1'
p89
sg6
I1000
sg7
I8
sg8
I23
sg9
I16
sg10
I0
sg11
I5
sg12
I25
sg13
I0
sg14
I3
sg15
g16
sg17
S'1x instrument buffer 1'
p90
sg19
I1
sg20
I1
sa(dp91
g3
I5
sg4
S'Waste 1'
p92
sg6
I300
sg7
I9
sg8
I24
sg9
I30
sg10
I0
sg11
I0
sg12
I25
sg13
I0
sg14
I8
sg15
g16
sg17
S'Output 1'
p93
sg19
I0
sg20
I0
sa(dp94
g3
I5
sg4
S'Waste 2'
p95
sg6
I300
sg7
I9
sg8
I25
sg9
I30
sg10
I0
sg11
I0
sg12
I25
sg13
I0
sg14
I8
sg15
g23
sg17
S'Output 2'
p96
sg19
I0
sg20
I0
sa(dp97
g3
I5
sg4
S'Output 1'
p98
sg6
I130
sg7
I8
sg8
I26
sg9
I16
sg10
I0
sg11
I0
sg12
I25
sg13
I0
sg14
I3
sg15
g16
sg17
S'1x instrument buffer 1'
p99
sg19
I0
sg20
I0
sa(dp100
g3
I5
sg4
S'Waste 1'
p101
sg6
I300
sg7
I9
sg8
I27
sg9
I30
sg10
I1
sg11
I0
sg12
I25
sg13
I0
sg14
I8
sg15
g16
sg17
S'Output 1'
p102
sg19
I0
sg20
I0
sa(dp103
g3
I5
sg4
S'Waste 2'
p104
sg6
I300
sg7
I9
sg8
I28
sg9
I30
sg10
I1
sg11
I0
sg12
I25
sg13
I0
sg14
I8
sg15
g23
sg17
S'Output 2'
p105
sg19
I0
sg20
I0
sa(dp106
g3
I5
sg4
S'Output 2'
p107
sg6
I130
sg7
I8
sg8
I29
sg9
I16
sg10
I1
sg11
I5
sg12
I25
sg13
I0
sg14
I1
sg15
g23
sg17
S'Cleave solution 1'
p108
sg19
I1
sg20
I1
sa(dp109
g3
I5
sg4
S'Output 2'
p110
sg6
I130
sg7
I8
sg8
I30
sg9
I16
sg10
I1
sg11
I5
sg12
I25
sg13
I0
sg14
I1
sg15
g23
sg17
S'Cleave solution 1'
p111
sg19
I1
sg20
I1
sa(dp112
g3
I5
sg4
S'Output 2'
p113
sg6
I130
sg7
I8
sg8
I31
sg9
I16
sg10
I1
sg11
I5
sg12
I25
sg13
I0
sg14
I2
sg15
g23
sg17
S'Cleave solution 2.1'
p114
sg19
I1
sg20
I1
sa(dp115
g3
I5
sg4
S'Air 2'
p116
sg6
I130
sg7
I7
sg8
I32
sg9
I16
sg10
I1
sg11
I5
sg12
I25
sg13
I0
sg14
I2
sg15
g23
sg17
S'Cleave solution 2.1'
p117
sg19
I1
sg20
I1
sa(dp118
g3
I5
sg4
S'Output 2'
p119
sg6
I1000
sg7
I8
sg8
I33
sg9
I8
sg10
I1
sg11
I0
sg12
I25
sg13
I0
sg14
I3
sg15
g23
sg17
S'1x instrument buffer 2'
p120
sg19
I0
sg20
I0
sa(dp121
g3
I5
sg4
S'Waste 2'
p122
sg6
I1000
sg7
I9
sg8
I34
sg9
I8
sg10
I1
sg11
I0
sg12
I25
sg13
I0
sg14
I3
sg15
g23
sg17
S'1x instrument buffer 2'
p123
sg19
I0
sg20
I0
sa(dp124
g3
I5
sg4
S'Waste 2'
p125
sg6
I1000
sg7
I9
sg8
I35
sg9
I8
sg10
I1
sg11
I0
sg12
I25
sg13
I0
sg14
I3
sg15
g23
sg17
S'1x instrument buffer 2'
p126
sg19
I0
sg20
I0
sa(dp127
g3
I5
sg4
S'Waste 2'
p128
sg6
I1000
sg7
I9
sg8
I36
sg9
I8
sg10
I1
sg11
I0
sg12
I25
sg13
I0
sg14
I3
sg15
g23
sg17
S'1x instrument buffer 2'
p129
sg19
I0
sg20
I0
sa(dp130
g3
I5
sg4
S'Output 2'
p131
sg6
I1000
sg7
I8
sg8
I37
sg9
I16
sg10
I1
sg11
I5
sg12
I25
sg13
I0
sg14
I3
sg15
g23
sg17
S'1x instrument buffer 2'
p132
sg19
I1
sg20
I1
sa(dp133
g3
I5
sg4
S'Output 2'
p134
sg6
I1000
sg7
I8
sg8
I38
sg9
I16
sg10
I1
sg11
I5
sg12
I25
sg13
I0
sg14
I3
sg15
g23
sg17
S'1x instrument buffer 2'
p135
sg19
I1
sg20
I1
sa(dp136
g3
I5
sg4
S'Output 2'
p137
sg6
I1000
sg7
I8
sg8
I39
sg9
I16
sg10
I1
sg11
I5
sg12
I25
sg13
I0
sg14
I3
sg15
g23
sg17
S'1x instrument buffer 2'
p138
sg19
I1
sg20
I1
sa(dp139
g3
I5
sg4
S'Waste 1'
p140
sg6
I300
sg7
I9
sg8
I40
sg9
I30
sg10
I1
sg11
I0
sg12
I25
sg13
I0
sg14
I8
sg15
g16
sg17
S'Output 1'
p141
sg19
I0
sg20
I0
sa(dp142
g3
I5
sg4
S'Waste 2'
p143
sg6
I300
sg7
I9
sg8
I41
sg9
I30
sg10
I1
sg11
I0
sg12
I25
sg13
I0
sg14
I8
sg15
g23
sg17
S'Output 2'
p144
sg19
I0
sg20
I0
sa(dp145
g3
I5
sg4
S'Output 1'
p146
sg6
I130
sg7
I8
sg8
I42
sg9
I16
sg10
I1
sg11
I45
sg12
I25
sg13
I0
sg14
I2
sg15
g16
sg17
S'T4 ligase mix'
p147
sg19
I0
sg20
I0
sa(dp148
g3
I5
sg4
S'Waste 1'
p149
sg6
I1000
sg7
I9
sg8
I43
sg9
I8
sg10
I1
sg11
I0
sg12
I25
sg13
I0
sg14
I3
sg15
g16
sg17
S'1x instrument buffer 1'
p150
sg19
I0
sg20
I0
sa(dp151
g3
I5
sg4
S'Waste 1'
p152
sg6
I1000
sg7
I9
sg8
I44
sg9
I8
sg10
I1
sg11
I0
sg12
I25
sg13
I0
sg14
I3
sg15
g16
sg17
S'1x instrument buffer 1'
p153
sg19
I0
sg20
I0
sa(dp154
g3
I5
sg4
S'Waste 1'
p155
sg6
I1000
sg7
I9
sg8
I45
sg9
I8
sg10
I1
sg11
I0
sg12
I25
sg13
I0
sg14
I3
sg15
g16
sg17
S'1x instrument buffer 1'
p156
sg19
I0
sg20
I0
sa(dp157
g3
I5
sg4
S'Waste 1'
p158
sg6
I1000
sg7
I9
sg8
I46
sg9
I8
sg10
I1
sg11
I0
sg12
I25
sg13
I0
sg14
I3
sg15
g16
sg17
S'1x instrument buffer 1'
p159
sg19
I0
sg20
I0
sa(dp160
g3
I5
sg4
S'Output 1'
p161
sg6
I1000
sg7
I8
sg8
I47
sg9
I16
sg10
I1
sg11
I5
sg12
I25
sg13
I0
sg14
I3
sg15
g16
sg17
S'1x instrument buffer 1'
p162
sg19
I1
sg20
I1
sa(dp163
g3
I5
sg4
S'Output 1'
p164
sg6
I1000
sg7
I8
sg8
I48
sg9
I16
sg10
I1
sg11
I5
sg12
I25
sg13
I0
sg14
I3
sg15
g16
sg17
S'1x instrument buffer 1'
p165
sg19
I1
sg20
I1
sa(dp166
g3
I5
sg4
S'Output 1'
p167
sg6
I1000
sg7
I8
sg8
I49
sg9
I16
sg10
I1
sg11
I5
sg12
I25
sg13
I0
sg14
I3
sg15
g16
sg17
S'1x instrument buffer 1'
p168
sg19
I1
sg20
I1
sa(dp169
g3
I5
sg4
S'Output 1'
p170
sg6
I1000
sg7
I8
sg8
I50
sg9
I16
sg10
I1
sg11
I5
sg12
I25
sg13
I0
sg14
I3
sg15
g16
sg17
S'1x instrument buffer 1'
p171
sg19
I1
sg20
I1
sa(dp172
g3
I5
sg4
S'Waste 1'
p173
sg6
I300
sg7
I9
sg8
I51
sg9
I30
sg10
I1
sg11
I0
sg12
I25
sg13
I0
sg14
I8
sg15
g16
sg17
S'Output 1'
p174
sg19
I0
sg20
I0
sa(dp175
g3
I5
sg4
S'Waste 2'
p176
sg6
I300
sg7
I9
sg8
I52
sg9
I30
sg10
I1
sg11
I0
sg12
I25
sg13
I0
sg14
I8
sg15
g23
sg17
S'Output 2'
p177
sg19
I0
sg20
I0
sa(dp178
g3
I5
sg4
S'Output 1'
p179
sg6
I130
sg7
I8
sg8
I53
sg9
I16
sg10
I1
sg11
I0
sg12
I25
sg13
I0
sg14
I3
sg15
g16
sg17
S'1x instrument buffer 1'
p180
sg19
I0
sg20
I0
sa(dp181
g3
I5
sg4
S'Waste 1'
p182
sg6
I300
sg7
I9
sg8
I54
sg9
I30
sg10
I2
sg11
I0
sg12
I25
sg13
I0
sg14
I8
sg15
g16
sg17
S'Output 1'
p183
sg19
I0
sg20
I0
sa(dp184
g3
I5
sg4
S'Waste 2'
p185
sg6
I300
sg7
I9
sg8
I55
sg9
I30
sg10
I2
sg11
I0
sg12
I25
sg13
I0
sg14
I8
sg15
g23
sg17
S'Output 2'
p186
sg19
I0
sg20
I0
sa(dp187
g3
I5
sg4
S'Output 2'
p188
sg6
I130
sg7
I8
sg8
I56
sg9
I16
sg10
I2
sg11
I5
sg12
I25
sg13
I0
sg14
I1
sg15
g23
sg17
S'Cleave solution 1'
p189
sg19
I1
sg20
I1
sa(dp190
g3
I5
sg4
S'Output 2'
p191
sg6
I130
sg7
I8
sg8
I57
sg9
I16
sg10
I2
sg11
I5
sg12
I25
sg13
I0
sg14
I1
sg15
g23
sg17
S'Cleave solution 1'
p192
sg19
I1
sg20
I1
sa(dp193
g3
I5
sg4
S'Output 2'
p194
sg6
I130
sg7
I8
sg8
I58
sg9
I16
sg10
I2
sg11
I5
sg12
I25
sg13
I0
sg14
I2
sg15
g23
sg17
S'Cleave solution 2.1'
p195
sg19
I1
sg20
I1
sa(dp196
g3
I5
sg4
S'Output 2'
p197
sg6
I130
sg7
I8
sg8
I59
sg9
I16
sg10
I2
sg11
I5
sg12
I25
sg13
I0
sg14
I2
sg15
g23
sg17
S'Cleave solution 2.1'
p198
sg19
I1
sg20
I1
sa(dp199
g3
I5
sg4
S'Waste 2'
p200
sg6
I1000
sg7
I9
sg8
I60
sg9
I8
sg10
I2
sg11
I0
sg12
I25
sg13
I0
sg14
I3
sg15
g23
sg17
S'1x instrument buffer 2'
p201
sg19
I0
sg20
I0
sa(dp202
g3
I5
sg4
S'Waste 2'
p203
sg6
I1000
sg7
I9
sg8
I61
sg9
I8
sg10
I2
sg11
I0
sg12
I25
sg13
I0
sg14
I3
sg15
g23
sg17
S'1x instrument buffer 2'
p204
sg19
I0
sg20
I0
sa(dp205
g3
I5
sg4
S'Waste 2'
p206
sg6
I1000
sg7
I9
sg8
I62
sg9
I8
sg10
I2
sg11
I0
sg12
I25
sg13
I0
sg14
I3
sg15
g23
sg17
S'1x instrument buffer 2'
p207
sg19
I0
sg20
I0
sa(dp208
g3
I5
sg4
S'Waste 2'
p209
sg6
I1000
sg7
I9
sg8
I63
sg9
I8
sg10
I2
sg11
I0
sg12
I25
sg13
I0
sg14
I3
sg15
g23
sg17
S'1x instrument buffer 2'
p210
sg19
I0
sg20
I0
sa(dp211
g3
I5
sg4
S'Output 2'
p212
sg6
I1000
sg7
I8
sg8
I64
sg9
I16
sg10
I2
sg11
I5
sg12
I25
sg13
I0
sg14
I3
sg15
g23
sg17
S'1x instrument buffer 2'
p213
sg19
I1
sg20
I1
sa(dp214
g3
I5
sg4
S'Output 2'
p215
sg6
I1000
sg7
I8
sg8
I65
sg9
I16
sg10
I2
sg11
I5
sg12
I25
sg13
I0
sg14
I3
sg15
g23
sg17
S'1x instrument buffer 2'
p216
sg19
I1
sg20
I1
sa(dp217
g3
I5
sg4
S'Output 2'
p218
sg6
I1000
sg7
I8
sg8
I66
sg9
I16
sg10
I2
sg11
I5
sg12
I25
sg13
I0
sg14
I3
sg15
g23
sg17
S'1x instrument buffer 2'
p219
sg19
I1
sg20
I1
sa(dp220
g3
I5
sg4
S'Waste 1'
p221
sg6
I300
sg7
I9
sg8
I67
sg9
I30
sg10
I2
sg11
I0
sg12
I25
sg13
I0
sg14
I8
sg15
g16
sg17
S'Output 1'
p222
sg19
I0
sg20
I0
sa(dp223
g3
I5
sg4
S'Waste 2'
p224
sg6
I300
sg7
I9
sg8
I68
sg9
I30
sg10
I2
sg11
I0
sg12
I25
sg13
I0
sg14
I8
sg15
g23
sg17
S'Output 2'
p225
sg19
I0
sg20
I0
sa(dp226
g3
I5
sg4
S'Output 1'
p227
sg6
I130
sg7
I8
sg8
I69
sg9
I16
sg10
I2
sg11
I45
sg12
I25
sg13
I0
sg14
I2
sg15
g16
sg17
S'T4 ligase mix'
p228
sg19
I0
sg20
I0
sa(dp229
g3
I5
sg4
S'Waste 1'
p230
sg6
I1000
sg7
I9
sg8
I70
sg9
I8
sg10
I2
sg11
I0
sg12
I25
sg13
I0
sg14
I3
sg15
g16
sg17
S'1x instrument buffer 1'
p231
sg19
I0
sg20
I0
sa(dp232
g3
I5
sg4
S'Waste 1'
p233
sg6
I1000
sg7
I9
sg8
I71
sg9
I8
sg10
I2
sg11
I0
sg12
I25
sg13
I0
sg14
I3
sg15
g16
sg17
S'1x instrument buffer 1'
p234
sg19
I0
sg20
I0
sa(dp235
g3
I5
sg4
S'Waste 1'
p236
sg6
I1000
sg7
I9
sg8
I72
sg9
I8
sg10
I2
sg11
I0
sg12
I25
sg13
I0
sg14
I3
sg15
g16
sg17
S'1x instrument buffer 1'
p237
sg19
I0
sg20
I0
sa(dp238
g3
I5
sg4
S'Waste 1'
p239
sg6
I1000
sg7
I9
sg8
I73
sg9
I8
sg10
I2
sg11
I0
sg12
I25
sg13
I0
sg14
I3
sg15
g16
sg17
S'1x instrument buffer 1'
p240
sg19
I0
sg20
I0
sa(dp241
g3
I5
sg4
S'Output 1'
p242
sg6
I1000
sg7
I8
sg8
I74
sg9
I16
sg10
I2
sg11
I5
sg12
I25
sg13
I0
sg14
I3
sg15
g16
sg17
S'1x instrument buffer 1'
p243
sg19
I1
sg20
I1
sa(dp244
g3
I5
sg4
S'Output 1'
p245
sg6
I1000
sg7
I8
sg8
I75
sg9
I16
sg10
I2
sg11
I5
sg12
I25
sg13
I0
sg14
I3
sg15
g16
sg17
S'1x instrument buffer 1'
p246
sg19
I1
sg20
I1
sa(dp247
g3
I5
sg4
S'Output 1'
p248
sg6
I1000
sg7
I8
sg8
I76
sg9
I16
sg10
I2
sg11
I5
sg12
I25
sg13
I0
sg14
I3
sg15
g16
sg17
S'1x instrument buffer 1'
p249
sg19
I1
sg20
I1
sa(dp250
g3
I5
sg4
S'Output 1'
p251
sg6
I1000
sg7
I8
sg8
I77
sg9
I16
sg10
I2
sg11
I5
sg12
I25
sg13
I0
sg14
I3
sg15
g16
sg17
S'1x instrument buffer 1'
p252
sg19
I1
sg20
I1
sa(dp253
g3
I5
sg4
S'Waste 1'
p254
sg6
I300
sg7
I9
sg8
I78
sg9
I30
sg10
I2
sg11
I0
sg12
I25
sg13
I0
sg14
I8
sg15
g16
sg17
S'Output 1'
p255
sg19
I0
sg20
I0
sa(dp256
g3
I5
sg4
S'Waste 2'
p257
sg6
I300
sg7
I9
sg8
I79
sg9
I30
sg10
I2
sg11
I0
sg12
I25
sg13
I0
sg14
I8
sg15
g23
sg17
S'Output 2'
p258
sg19
I0
sg20
I0
sa(dp259
g3
I5
sg4
S'Output 1'
p260
sg6
I130
sg7
I8
sg8
I80
sg9
I16
sg10
I2
sg11
I0
sg12
I25
sg13
I0
sg14
I3
sg15
g16
sg17
S'1x instrument buffer 1'
p261
sg19
I0
sg20
I0
sa.