(lp1
(dp2
S'reagent'
p3
S'Cleave solution 1'
p4
sS'pump'
p5
S'/dev/ttyUSB1'
p6
sS'port'
p7
I1
sa(dp8
g3
S'Cleave 2 part 1'
p9
sg5
g6
sg7
I2
sa(dp10
g3
S'Cleave 2 part 2'
p11
sg5
g6
sg7
I3
sa(dp12
g3
S'Cleave solution 2.1'
p13
sg5
g6
sg7
I4
sa(dp14
g3
S'1x instrument - cleave'
p15
sg5
g6
sg7
I5
sa(dp16
g3
S'dH2O - cleave'
p17
sg5
g6
sg7
I6
sa(dp18
g3
S'Air 1'
p19
sg5
g6
sg7
I7
sa(dp20
g3
S'Output 1'
p21
sg5
g6
sg7
I8
sa(dp22
g3
S'Waste 1'
p23
sg5
g6
sg7
I9
sa(dp24
g3
S''
sg5
S'/dev/ttyUSB0'
p25
sg7
I1
sa(dp26
g3
S'T4 ligase mix'
p27
sg5
g25
sg7
I2
sa(dp28
g3
S'1x instrument - ligase'
p29
sg5
g25
sg7
I3
sa(dp30
g3
S'dH2O - ligase'
p31
sg5
g25
sg7
I4
sa(dp32
g3
S'Imaging buffer'
p33
sg5
g25
sg7
I5
sa(dp34
g3
S''
sg5
g25
sg7
I6
sa(dp35
g3
S'Air 2'
p36
sg5
g25
sg7
I7
sa(dp37
g3
S'Output 2'
p38
sg5
g25
sg7
I8
sa(dp39
g3
S'Waste 2'
p40
sg5
g25
sg7
I9
sa.(lp1
(dp2
S'waitmins'
p3
I0
sS'waitsecs'
p4
I5
sS'heatwhen'
p5
I0
sS'toportreagent'
p6
S'Waste 2'
p7
sS'volume'
p8
I1000
sS'fromport'
p9
I8
sS'pump'
p10
S'/dev/ttyUSB0'
p11
sS'temp'
p12
I25
sS'toport'
p13
I9
sS'cmdnumber'
p14
I0
sS'waste'
p15
I0
sS'type'
p16
I0
sS'fromportreagent'
p17
S'Output 2'
p18
sS'speed'
p19
I30
sS'cycle'
p20
I0
sa(dp21
g3
I0
sg4
I5
sg5
I0
sg6
g7
sg8
I1000
sg9
I3
sg10
g11
sg12
I25
sg13
I9
sg14
I1
sg15
I0
sg16
I0
sg17
S'1x instrument - ligase'
p22
sg19
I8
sg20
I0
sa(dp23
g3
I0
sg4
I5
sg5
I0
sg6
g18
sg8
I250
sg9
I2
sg10
g11
sg12
I25
sg13
I8
sg14
I2
sg15
I0
sg16
I0
sg17
S'T4 ligase mix'
p24
sg19
I16
sg20
I0
sa(dp25
g3
I0
sg4
I5
sg5
I0
sg6
g18
sg8
I35
sg9
I7
sg10
g11
sg12
I25
sg13
I8
sg14
I3
sg15
I0
sg16
I0
sg17
S'Air 2'
p26
sg19
I25
sg20
I0
sa(dp27
g3
I0
sg4
I5
sg5
I0
sg6
g7
sg8
I1000
sg9
I3
sg10
g11
sg12
I25
sg13
I9
sg14
I4
sg15
I0
sg16
I0
sg17
g22
sg19
I8
sg20
I0
sa(dp28
g3
I0
sg4
I5
sg5
I0
sg6
g7
sg8
I1000
sg9
I3
sg10
g11
sg12
I25
sg13
I9
sg14
I5
sg15
I0
sg16
I0
sg17
g22
sg19
I8
sg20
I0
sa(dp29
g3
I0
sg4
I5
sg5
I0
sg6
g7
sg8
I1000
sg9
I3
sg10
g11
sg12
I25
sg13
I9
sg14
I6
sg15
I0
sg16
I0
sg17
g22
sg19
I8
sg20
I0
sa(dp30
g3
I0
sg4
I5
sg5
I0
sg6
g7
sg8
I1000
sg9
I3
sg10
g11
sg12
I25
sg13
I9
sg14
I7
sg15
I0
sg16
I0
sg17
g22
sg19
I8
sg20
I0
sa(dp31
g3
I45
sg4
I5
sg5
I0
sg6
g7
sg8
I1000
sg9
I3
sg10
g11
sg12
I25
sg13
I9
sg14
I8
sg15
I0
sg16
I0
sg17
g22
sg19
I8
sg20
I0
sa(dp32
g3
I0
sg4
I5
sg5
I0
sg6
g7
sg8
I350
sg9
I8
sg10
g11
sg12
I25
sg13
I9
sg14
I9
sg15
I0
sg16
I0
sg17
g18
sg19
I30
sg20
I0
sa(dp33
g3
I0
sg4
I5
sg5
I0
sg6
g7
sg8
I1000
sg9
I3
sg10
g11
sg12
I25
sg13
I9
sg14
I10
sg15
I0
sg16
I0
sg17
g22
sg19
I8
sg20
I0
sa(dp34
g3
I0
sg4
I5
sg5
I0
sg6
g7
sg8
I1000
sg9
I3
sg10
g11
sg12
I25
sg13
I9
sg14
I11
sg15
I0
sg16
I0
sg17
g22
sg19
I8
sg20
I0
sa(dp35
g3
I0
sg4
I5
sg5
I0
sg6
g7
sg8
I1000
sg9
I3
sg10
g11
sg12
I25
sg13
I9
sg14
I12
sg15
I0
sg16
I0
sg17
g22
sg19
I8
sg20
I0
sa(dp36
g3
I0
sg4
I5
sg5
I0
sg6
g7
sg8
I1000
sg9
I3
sg10
g11
sg12
I25
sg13
I9
sg14
I13
sg15
I0
sg16
I0
sg17
g22
sg19
I8
sg20
I0
sa(dp37
g3
I0
sg4
I5
sg5
I0
sg6
g18
sg8
I250
sg9
I3
sg10
g11
sg12
I25
sg13
I8
sg14
I14
sg15
I1
sg16
I1
sg17
g22
sg19
I16
sg20
I0
sa(dp38
g3
I0
sg4
I5
sg5
I0
sg6
g7
sg8
I1000
sg9
I3
sg10
g11
sg12
I25
sg13
I9
sg14
I15
sg15
I1
sg16
I1
sg17
g22
sg19
I8
sg20
I0
sa(dp39
g3
I0
sg4
I5
sg5
I0
sg6
g18
sg8
I250
sg9
I3
sg10
g11
sg12
I25
sg13
I8
sg14
I16
sg15
I1
sg16
I1
sg17
g22
sg19
I16
sg20
I0
sa(dp40
g3
I0
sg4
I5
sg5
I0
sg6
g7
sg8
I1000
sg9
I3
sg10
g11
sg12
I25
sg13
I9
sg14
I17
sg15
I1
sg16
I1
sg17
g22
sg19
I8
sg20
I0
sa(dp41
g3
I0
sg4
I5
sg5
I0
sg6
g18
sg8
I250
sg9
I3
sg10
g11
sg12
I25
sg13
I8
sg14
I18
sg15
I1
sg16
I1
sg17
g22
sg19
I16
sg20
I0
sa(dp42
g3
I0
sg4
I5
sg5
I0
sg6
g7
sg8
I1000
sg9
I3
sg10
g11
sg12
I25
sg13
I9
sg14
I19
sg15
I1
sg16
I1
sg17
g22
sg19
I8
sg20
I0
sa(dp43
g3
I0
sg4
I5
sg5
I0
sg6
g18
sg8
I250
sg9
I3
sg10
g11
sg12
I25
sg13
I8
sg14
I20
sg15
I1
sg16
I1
sg17
g22
sg19
I16
sg20
I0
sa(dp44
g3
I0
sg4
I5
sg5
I0
sg6
g7
sg8
I750
sg9
I3
sg10
g11
sg12
I25
sg13
I9
sg14
I21
sg15
I1
sg16
I0
sg17
g22
sg19
I8
sg20
I0
sa(dp45
g3
I0
sg4
I5
sg5
I0
sg6
g18
sg8
I250
sg9
I3
sg10
g11
sg12
I25
sg13
I8
sg14
I22
sg15
I1
sg16
I1
sg17
g22
sg19
I16
sg20
I0
sa(dp46
g3
I0
sg4
I5
sg5
I0
sg6
g7
sg8
I750
sg9
I3
sg10
g11
sg12
I25
sg13
I9
sg14
I23
sg15
I1
sg16
I0
sg17
g22
sg19
I8
sg20
I0
sa(dp47
g3
I0
sg4
I5
sg5
I0
sg6
g18
sg8
I250
sg9
I3
sg10
g11
sg12
I25
sg13
I8
sg14
I24
sg15
I1
sg16
I1
sg17
g22
sg19
I16
sg20
I0
sa(dp48
g3
I0
sg4
I5
sg5
I0
sg6
g7
sg8
I750
sg9
I3
sg10
g11
sg12
I25
sg13
I9
sg14
I25
sg15
I1
sg16
I0
sg17
g22
sg19
I8
sg20
I0
sa(dp49
g3
I0
sg4
I5
sg5
I0
sg6
g18
sg8
I250
sg9
I3
sg10
g11
sg12
I25
sg13
I8
sg14
I26
sg15
I1
sg16
I1
sg17
g22
sg19
I16
sg20
I0
sa(dp50
g3
I0
sg4
I5
sg5
I0
sg6
g7
sg8
I750
sg9
I3
sg10
g11
sg12
I25
sg13
I9
sg14
I27
sg15
I1
sg16
I0
sg17
g22
sg19
I8
sg20
I0
sa(dp51
g3
I0
sg4
I5
sg5
I0
sg6
g18
sg8
I250
sg9
I3
sg10
g11
sg12
I25
sg13
I8
sg14
I28
sg15
I1
sg16
I1
sg17
g22
sg19
I16
sg20
I0
sa(dp52
g3
I0
sg4
I5
sg5
I0
sg6
g7
sg8
I750
sg9
I3
sg10
g11
sg12
I25
sg13
I9
sg14
I29
sg15
I1
sg16
I0
sg17
g22
sg19
I8
sg20
I0
sa(dp53
g3
I0
sg4
I5
sg5
I0
sg6
g18
sg8
I250
sg9
I3
sg10
g11
sg12
I25
sg13
I8
sg14
I30
sg15
I1
sg16
I1
sg17
g22
sg19
I16
sg20
I0
sa(dp54
g3
I0
sg4
I5
sg5
I0
sg6
g7
sg8
I750
sg9
I3
sg10
g11
sg12
I25
sg13
I9
sg14
I31
sg15
I1
sg16
I0
sg17
g22
sg19
I8
sg20
I0
sa(dp55
g3
I0
sg4
I5
sg5
I0
sg6
g18
sg8
I250
sg9
I3
sg10
g11
sg12
I25
sg13
I8
sg14
I32
sg15
I1
sg16
I1
sg17
g22
sg19
I16
sg20
I0
sa(dp56
g3
I0
sg4
I5
sg5
I0
sg6
g7
sg8
I750
sg9
I3
sg10
g11
sg12
I25
sg13
I9
sg14
I33
sg15
I1
sg16
I0
sg17
g22
sg19
I8
sg20
I0
sa(dp57
g3
I0
sg4
I5
sg5
I0
sg6
g18
sg8
I250
sg9
I3
sg10
g11
sg12
I25
sg13
I8
sg14
I34
sg15
I1
sg16
I1
sg17
g22
sg19
I16
sg20
I0
sa(dp58
g3
I0
sg4
I5
sg5
I0
sg6
g7
sg8
I750
sg9
I3
sg10
g11
sg12
I25
sg13
I9
sg14
I35
sg15
I1
sg16
I0
sg17
g22
sg19
I8
sg20
I0
sa(dp59
g3
I0
sg4
I5
sg5
I0
sg6
g18
sg8
I250
sg9
I3
sg10
g11
sg12
I25
sg13
I8
sg14
I36
sg15
I1
sg16
I1
sg17
g22
sg19
I16
sg20
I0
sa(dp60
g3
I0
sg4
I5
sg5
I0
sg6
g7
sg8
I750
sg9
I3
sg10
g11
sg12
I25
sg13
I9
sg14
I37
sg15
I1
sg16
I0
sg17
g22
sg19
I8
sg20
I0
sa(dp61
g3
I0
sg4
I5
sg5
I0
sg6
g18
sg8
I250
sg9
I3
sg10
g11
sg12
I25
sg13
I8
sg14
I38
sg15
I1
sg16
I1
sg17
g22
sg19
I16
sg20
I0
sa(dp62
g3
I0
sg4
I5
sg5
I0
sg6
g7
sg8
I750
sg9
I3
sg10
g11
sg12
I25
sg13
I9
sg14
I39
sg15
I1
sg16
I0
sg17
g22
sg19
I8
sg20
I0
sa(dp63
g3
I0
sg4
I5
sg5
I0
sg6
g18
sg8
I250
sg9
I3
sg10
g11
sg12
I25
sg13
I8
sg14
I40
sg15
I1
sg16
I1
sg17
g22
sg19
I16
sg20
I0
sa(dp64
g3
I0
sg4
I5
sg5
I0
sg6
g7
sg8
I750
sg9
I3
sg10
g11
sg12
I25
sg13
I9
sg14
I41
sg15
I1
sg16
I0
sg17
g22
sg19
I8
sg20
I0
sa(dp65
g3
I0
sg4
I5
sg5
I0
sg6
g18
sg8
I250
sg9
I3
sg10
g11
sg12
I25
sg13
I8
sg14
I42
sg15
I1
sg16
I1
sg17
g22
sg19
I16
sg20
I0
sa(dp66
g3
I0
sg4
I5
sg5
I0
sg6
g7
sg8
I750
sg9
I3
sg10
g11
sg12
I25
sg13
I9
sg14
I43
sg15
I1
sg16
I0
sg17
g22
sg19
I8
sg20
I0
sa(dp67
g3
I0
sg4
I5
sg5
I0
sg6
g18
sg8
I250
sg9
I3
sg10
g11
sg12
I25
sg13
I8
sg14
I44
sg15
I1
sg16
I1
sg17
g22
sg19
I16
sg20
I0
sa(dp68
g3
I0
sg4
I5
sg5
I0
sg6
g7
sg8
I750
sg9
I3
sg10
g11
sg12
I25
sg13
I9
sg14
I45
sg15
I1
sg16
I0
sg17
g22
sg19
I8
sg20
I0
sa(dp69
g3
I0
sg4
I5
sg5
I0
sg6
g18
sg8
I250
sg9
I3
sg10
g11
sg12
I25
sg13
I8
sg14
I46
sg15
I1
sg16
I1
sg17
g22
sg19
I16
sg20
I0
sa(dp70
g3
I0
sg4
I5
sg5
I0
sg6
g7
sg8
I750
sg9
I3
sg10
g11
sg12
I25
sg13
I9
sg14
I47
sg15
I1
sg16
I0
sg17
g22
sg19
I8
sg20
I0
sa(dp71
g3
I0
sg4
I5
sg5
I0
sg6
g18
sg8
I250
sg9
I3
sg10
g11
sg12
I25
sg13
I8
sg14
I48
sg15
I1
sg16
I1
sg17
g22
sg19
I16
sg20
I0
sa(dp72
g3
I0
sg4
I5
sg5
I0
sg6
g7
sg8
I750
sg9
I3
sg10
g11
sg12
I25
sg13
I9
sg14
I49
sg15
I1
sg16
I0
sg17
g22
sg19
I8
sg20
I0
sa(dp73
g3
I0
sg4
I5
sg5
I0
sg6
g18
sg8
I250
sg9
I3
sg10
g11
sg12
I25
sg13
I8
sg14
I50
sg15
I1
sg16
I1
sg17
g22
sg19
I16
sg20
I0
sa(dp74
g3
I0
sg4
I5
sg5
I0
sg6
g7
sg8
I750
sg9
I3
sg10
g11
sg12
I25
sg13
I9
sg14
I51
sg15
I1
sg16
I0
sg17
g22
sg19
I8
sg20
I0
sa(dp75
g3
I0
sg4
I5
sg5
I0
sg6
g18
sg8
I250
sg9
I3
sg10
g11
sg12
I25
sg13
I8
sg14
I52
sg15
I1
sg16
I1
sg17
g22
sg19
I16
sg20
I0
sa(dp76
g3
I0
sg4
I5
sg5
I0
sg6
g7
sg8
I750
sg9
I3
sg10
g11
sg12
I25
sg13
I9
sg14
I53
sg15
I1
sg16
I0
sg17
g22
sg19
I8
sg20
I0
sa(dp77
g3
I0
sg4
I5
sg5
I0
sg6
g18
sg8
I250
sg9
I3
sg10
g11
sg12
I25
sg13
I8
sg14
I54
sg15
I1
sg16
I1
sg17
g22
sg19
I16
sg20
I0
sa(dp78
g3
I0
sg4
I5
sg5
I0
sg6
g7
sg8
I750
sg9
I3
sg10
g11
sg12
I25
sg13
I9
sg14
I55
sg15
I1
sg16
I0
sg17
g22
sg19
I8
sg20
I0
sa(dp79
g3
I0
sg4
I5
sg5
I0
sg6
g18
sg8
I250
sg9
I3
sg10
g11
sg12
I25
sg13
I8
sg14
I56
sg15
I1
sg16
I1
sg17
g22
sg19
I16
sg20
I0
sa(dp80
g3
I0
sg4
I5
sg5
I0
sg6
g7
sg8
I750
sg9
I3
sg10
g11
sg12
I25
sg13
I9
sg14
I57
sg15
I1
sg16
I0
sg17
g22
sg19
I8
sg20
I0
sa(dp81
g3
I0
sg4
I5
sg5
I0
sg6
g18
sg8
I250
sg9
I3
sg10
g11
sg12
I25
sg13
I8
sg14
I58
sg15
I1
sg16
I1
sg17
g22
sg19
I16
sg20
I0
sa(dp82
g3
I0
sg4
I5
sg5
I0
sg6
g7
sg8
I750
sg9
I3
sg10
g11
sg12
I25
sg13
I9
sg14
I59
sg15
I1
sg16
I0
sg17
g22
sg19
I8
sg20
I0
sa(dp83
g3
I0
sg4
I5
sg5
I0
sg6
g7
sg8
I500
sg9
I8
sg10
g11
sg12
I25
sg13
I9
sg14
I60
sg15
I0
sg16
I0
sg17
g18
sg19
I30
sg20
I0
sa(dp84
g3
I0
sg4
I5
sg5
I0
sg6
g18
sg8
I250
sg9
I5
sg10
g11
sg12
I25
sg13
I8
sg14
I61
sg15
I0
sg16
I0
sg17
S'Imaging buffer'
p85
sg19
I16
sg20
I0
sa(dp86
g8
I500
sg4
I5
sg5
I0
sg6
g7
sg3
I0
sg9
I8
sg10
g11
sg12
I25
sg13
I9
sg14
I62
sg15
I0
sg16
I0
sg17
g18
sg19
I30
sg20
I1
sa(dp87
g8
I700
sg4
I5
sg5
I0
sg6
S'Cleave solution 1'
p88
sg3
I0
sg9
I1
sg10
S'/dev/ttyUSB1'
p89
sg12
I25
sg13
I1
sg14
I63
sg15
I0
sg16
I0
sg17
g88
sg19
I21
sg20
I1
sa(dp90
g8
I300
sg4
I5
sg5
I0
sg6
S'Output 1'
p91
sg3
I0
sg9
I1
sg10
g89
sg12
I25
sg13
I8
sg14
I64
sg15
I0
sg16
I0
sg17
g88
sg19
I20
sg20
I1
sa(dp92
g8
I35
sg4
I5
sg5
I0
sg6
g91
sg3
I5
sg9
I7
sg10
g89
sg12
I25
sg13
I8
sg14
I65
sg15
I0
sg16
I0
sg17
S'Air 1'
p93
sg19
I25
sg20
I1
sa(dp94
g8
I400
sg4
I5
sg5
I0
sg6
g7
sg3
I0
sg9
I8
sg10
g11
sg12
I25
sg13
I9
sg14
I66
sg15
I0
sg16
I0
sg17
g18
sg19
I30
sg20
I1
sa(dp95
g8
I300
sg4
I5
sg5
I0
sg6
g91
sg3
I0
sg9
I1
sg10
g89
sg12
I25
sg13
I8
sg14
I67
sg15
I0
sg16
I0
sg17
g88
sg19
I20
sg20
I1
sa(dp96
g8
I35
sg4
I5
sg5
I0
sg6
g91
sg3
I5
sg9
I7
sg10
g89
sg12
I25
sg13
I8
sg14
I68
sg15
I0
sg16
I0
sg17
g93
sg19
I25
sg20
I1
sa(dp97
g8
I400
sg4
I5
sg5
I0
sg6
g7
sg3
I0
sg9
I8
sg10
g11
sg12
I25
sg13
I9
sg14
I69
sg15
I0
sg16
I0
sg17
g18
sg19
I30
sg20
I1
sa(dp98
g8
I4000
sg4
I5
sg5
I0
sg6
S'Waste 1'
p99
sg3
I0
sg9
I6
sg10
g89
sg12
I25
sg13
I9
sg14
I70
sg15
I0
sg16
I0
sg17
S'dH2O - cleave'
p100
sg19
I8
sg20
I1
sa(dp101
g8
I4000
sg4
I5
sg5
I0
sg6
g99
sg3
I0
sg9
I6
sg10
g89
sg12
I25
sg13
I9
sg14
I71
sg15
I0
sg16
I0
sg17
g100
sg19
I8
sg20
I1
sa(dp102
g8
I4000
sg4
I5
sg5
I0
sg6
g99
sg3
I0
sg9
I5
sg10
g89
sg12
I25
sg13
I9
sg14
I72
sg15
I0
sg16
I0
sg17
S'1x instrument - cleave'
p103
sg19
I8
sg20
I1
sa(dp104
g8
I4000
sg4
I5
sg5
I0
sg6
g99
sg3
I0
sg9
I5
sg10
g89
sg12
I25
sg13
I9
sg14
I73
sg15
I0
sg16
I0
sg17
g103
sg19
I8
sg20
I1
sa(dp105
g8
I300
sg4
I5
sg5
I0
sg6
g91
sg3
I0
sg9
I5
sg10
g89
sg12
I25
sg13
I8
sg14
I74
sg15
I0
sg16
I0
sg17
g103
sg19
I20
sg20
I1
sa(dp106
g8
I700
sg4
I5
sg5
I0
sg6
g88
sg3
I0
sg9
I7
sg10
g89
sg12
I25
sg13
I1
sg14
I75
sg15
I0
sg16
I0
sg17
g93
sg19
I21
sg20
I1
sa(dp107
g8
I700
sg4
I5
sg5
I0
sg6
S'Cleave 2 part 1'
p108
sg3
I0
sg9
I2
sg10
g89
sg12
I25
sg13
I2
sg14
I76
sg15
I0
sg16
I0
sg17
g108
sg19
I21
sg20
I1
sa(dp109
g8
I270
sg4
I5
sg5
I0
sg6
S'Cleave solution 2.1'
p110
sg3
I0
sg9
I2
sg10
g89
sg12
I25
sg13
I4
sg14
I77
sg15
I0
sg16
I0
sg17
g108
sg19
I20
sg20
I1
sa(dp111
g8
I700
sg4
I5
sg5
I0
sg6
g110
sg3
I0
sg9
I7
sg10
g89
sg12
I25
sg13
I4
sg14
I78
sg15
I0
sg16
I0
sg17
g93
sg19
I21
sg20
I1
sa(dp112
g8
I700
sg4
I5
sg5
I0
sg6
g108
sg3
I0
sg9
I7
sg10
g89
sg12
I25
sg13
I2
sg14
I79
sg15
I0
sg16
I0
sg17
g93
sg19
I21
sg20
I1
sa(dp113
g8
I4000
sg4
I5
sg5
I0
sg6
g99
sg3
I0
sg9
I6
sg10
g89
sg12
I25
sg13
I9
sg14
I80
sg15
I0
sg16
I0
sg17
g100
sg19
I8
sg20
I1
sa(dp114
g8
I4000
sg4
I5
sg5
I0
sg6
g99
sg3
I0
sg9
I6
sg10
g89
sg12
I25
sg13
I9
sg14
I81
sg15
I0
sg16
I0
sg17
g100
sg19
I8
sg20
I1
sa(dp115
g8
I4000
sg4
I5
sg5
I0
sg6
g99
sg3
I0
sg9
I5
sg10
g89
sg12
I25
sg13
I9
sg14
I82
sg15
I0
sg16
I0
sg17
g103
sg19
I8
sg20
I1
sa(dp116
g8
I4000
sg4
I5
sg5
I0
sg6
g99
sg3
I0
sg9
I5
sg10
g89
sg12
I25
sg13
I9
sg14
I83
sg15
I0
sg16
I0
sg17
g103
sg19
I8
sg20
I1
sa(dp117
g8
I700
sg4
I5
sg5
I0
sg6
S'Cleave 2 part 2'
p118
sg3
I0
sg9
I3
sg10
g89
sg12
I25
sg13
I3
sg14
I84
sg15
I0
sg16
I0
sg17
g118
sg19
I21
sg20
I1
sa(dp119
g8
I750
sg4
I5
sg5
I0
sg6
g110
sg3
I0
sg9
I3
sg10
g89
sg12
I25
sg13
I4
sg14
I85
sg15
I0
sg16
I0
sg17
g118
sg19
I20
sg20
I1
sa(dp120
g8
I700
sg4
I5
sg5
I0
sg6
g110
sg3
I0
sg9
I7
sg10
g89
sg12
I25
sg13
I4
sg14
I86
sg15
I0
sg16
I0
sg17
g93
sg19
I21
sg20
I1
sa(dp121
g8
I700
sg4
I5
sg5
I0
sg6
g118
sg3
I0
sg9
I7
sg10
g89
sg12
I25
sg13
I3
sg14
I87
sg15
I0
sg16
I0
sg17
g93
sg19
I21
sg20
I1
sa(dp122
g8
I4500
sg4
I5
sg5
I0
sg6
g110
sg3
I0
sg9
I7
sg10
g89
sg12
I25
sg13
I4
sg14
I88
sg15
I0
sg16
I0
sg17
g93
sg19
I8
sg20
I1
sa(dp123
g8
I500
sg4
I5
sg5
I0
sg6
g7
sg3
I0
sg9
I8
sg10
g11
sg12
I25
sg13
I9
sg14
I89
sg15
I0
sg16
I0
sg17
g18
sg19
I30
sg20
I1
sa(dp124
g8
I700
sg4
I5
sg5
I0
sg6
g110
sg3
I0
sg9
I4
sg10
g89
sg12
I25
sg13
I4
sg14
I90
sg15
I0
sg16
I0
sg17
g110
sg19
I21
sg20
I1
sa(dp125
g8
I300
sg4
I5
sg5
I0
sg6
g91
sg3
I0
sg9
I4
sg10
g89
sg12
I25
sg13
I8
sg14
I91
sg15
I0
sg16
I0
sg17
g110
sg19
I20
sg20
I1
sa(dp126
g8
I35
sg4
I5
sg5
I0
sg6
g91
sg3
I0
sg9
I7
sg10
g89
sg12
I25
sg13
I8
sg14
I92
sg15
I0
sg16
I0
sg17
g93
sg19
I25
sg20
I1
sa(dp127
g8
I700
sg4
I5
sg5
I0
sg6
g110
sg3
I5
sg9
I7
sg10
g89
sg12
I25
sg13
I4
sg14
I93
sg15
I0
sg16
I0
sg17
g93
sg19
I21
sg20
I1
sa(dp128
g8
I400
sg4
I5
sg5
I0
sg6
g7
sg3
I0
sg9
I8
sg10
g11
sg12
I25
sg13
I9
sg14
I94
sg15
I0
sg16
I0
sg17
g18
sg19
I30
sg20
I1
sa(dp129
g8
I700
sg4
I5
sg5
I0
sg6
g110
sg3
I0
sg9
I4
sg10
g89
sg12
I25
sg13
I4
sg14
I95
sg15
I0
sg16
I0
sg17
g110
sg19
I21
sg20
I1
sa(dp130
g8
I300
sg4
I5
sg5
I0
sg6
g91
sg3
I0
sg9
I4
sg10
g89
sg12
I25
sg13
I8
sg14
I96
sg15
I0
sg16
I0
sg17
g110
sg19
I20
sg20
I1
sa(dp131
g8
I35
sg4
I5
sg5
I0
sg6
g91
sg3
I0
sg9
I7
sg10
g89
sg12
I25
sg13
I8
sg14
I97
sg15
I0
sg16
I0
sg17
g93
sg19
I25
sg20
I1
sa(dp132
g8
I700
sg4
I5
sg5
I0
sg6
g110
sg3
I5
sg9
I7
sg10
g89
sg12
I25
sg13
I4
sg14
I98
sg15
I0
sg16
I0
sg17
g93
sg19
I21
sg20
I1
sa(dp133
g8
I400
sg4
I5
sg5
I0
sg6
g7
sg3
I0
sg9
I8
sg10
g11
sg12
I25
sg13
I9
sg14
I99
sg15
I0
sg16
I0
sg17
g18
sg19
I30
sg20
I1
sa(dp134
g8
I2000
sg4
I5
sg5
I0
sg6
g99
sg3
I0
sg9
I4
sg10
g89
sg12
I25
sg13
I9
sg14
I100
sg15
I0
sg16
I0
sg17
g110
sg19
I16
sg20
I1
sa(dp135
g8
I4000
sg4
I5
sg5
I0
sg6
g99
sg3
I0
sg9
I6
sg10
g89
sg12
I25
sg13
I9
sg14
I101
sg15
I0
sg16
I0
sg17
g100
sg19
I8
sg20
I1
sa(dp136
g8
I4000
sg4
I5
sg5
I0
sg6
g99
sg3
I0
sg9
I6
sg10
g89
sg12
I25
sg13
I9
sg14
I102
sg15
I0
sg16
I0
sg17
g100
sg19
I8
sg20
I1
sa(dp137
g8
I4000
sg4
I5
sg5
I0
sg6
g99
sg3
I0
sg9
I5
sg10
g89
sg12
I25
sg13
I9
sg14
I103
sg15
I0
sg16
I0
sg17
g103
sg19
I8
sg20
I1
sa(dp138
g8
I4000
sg4
I5
sg5
I0
sg6
g99
sg3
I0
sg9
I5
sg10
g89
sg12
I25
sg13
I9
sg14
I104
sg15
I0
sg16
I0
sg17
g103
sg19
I8
sg20
I1
sa(dp139
g8
I300
sg4
I5
sg5
I0
sg6
g91
sg3
I0
sg9
I5
sg10
g89
sg12
I25
sg13
I8
sg14
I105
sg15
I0
sg16
I0
sg17
g103
sg19
I20
sg20
I1
sa(dp140
g8
I500
sg4
I5
sg5
I0
sg6
g7
sg3
I0
sg9
I8
sg10
g11
sg12
I25
sg13
I9
sg14
I106
sg15
I0
sg16
I0
sg17
g18
sg19
I30
sg20
I1
sa(dp141
g8
I300
sg4
I5
sg5
I0
sg6
g91
sg3
I0
sg9
I5
sg10
g89
sg12
I25
sg13
I8
sg14
I107
sg15
I0
sg16
I0
sg17
g103
sg19
I20
sg20
I1
sa(dp142
g8
I500
sg4
I5
sg5
I0
sg6
g7
sg3
I0
sg9
I8
sg10
g11
sg12
I25
sg13
I9
sg14
I108
sg15
I0
sg16
I0
sg17
g18
sg19
I30
sg20
I1
sa(dp143
g8
I300
sg4
I5
sg5
I0
sg6
g91
sg3
I0
sg9
I5
sg10
g89
sg12
I25
sg13
I8
sg14
I109
sg15
I0
sg16
I0
sg17
g103
sg19
I20
sg20
I1
sa(dp144
g8
I500
sg4
I5
sg5
I0
sg6
g7
sg3
I0
sg9
I8
sg10
g11
sg12
I25
sg13
I9
sg14
I110
sg15
I0
sg16
I0
sg17
g18
sg19
I30
sg20
I1
sa(dp145
g8
I300
sg4
I5
sg5
I0
sg6
g91
sg3
I0
sg9
I5
sg10
g89
sg12
I25
sg13
I8
sg14
I111
sg15
I0
sg16
I0
sg17
g103
sg19
I20
sg20
I1
sa(dp146
g8
I500
sg4
I5
sg5
I0
sg6
g7
sg3
I0
sg9
I8
sg10
g11
sg12
I25
sg13
I9
sg14
I112
sg15
I0
sg16
I0
sg17
g18
sg19
I30
sg20
I1
sa(dp147
g8
I300
sg4
I5
sg5
I0
sg6
g91
sg3
I0
sg9
I5
sg10
g89
sg12
I25
sg13
I8
sg14
I113
sg15
I0
sg16
I0
sg17
g103
sg19
I20
sg20
I1
sa(dp148
g8
I500
sg4
I5
sg5
I0
sg6
g7
sg3
I0
sg9
I8
sg10
g11
sg12
I25
sg13
I9
sg14
I114
sg15
I0
sg16
I0
sg17
g18
sg19
I30
sg20
I1
sa(dp149
g8
I300
sg4
I5
sg5
I0
sg6
g91
sg3
I0
sg9
I5
sg10
g89
sg12
I25
sg13
I8
sg14
I115
sg15
I0
sg16
I0
sg17
g103
sg19
I20
sg20
I1
sa(dp150
g8
I500
sg4
I5
sg5
I0
sg6
g7
sg3
I0
sg9
I8
sg10
g11
sg12
I25
sg13
I9
sg14
I116
sg15
I0
sg16
I0
sg17
g18
sg19
I30
sg20
I1
sa(dp151
g8
I300
sg4
I5
sg5
I0
sg6
g91
sg3
I0
sg9
I5
sg10
g89
sg12
I25
sg13
I8
sg14
I117
sg15
I0
sg16
I0
sg17
g103
sg19
I20
sg20
I1
sa(dp152
g8
I500
sg4
I5
sg5
I0
sg6
g7
sg3
I0
sg9
I8
sg10
g11
sg12
I25
sg13
I9
sg14
I118
sg15
I0
sg16
I0
sg17
g18
sg19
I30
sg20
I1
sa(dp153
g8
I300
sg4
I5
sg5
I0
sg6
g91
sg3
I0
sg9
I5
sg10
g89
sg12
I25
sg13
I8
sg14
I119
sg15
I0
sg16
I0
sg17
g103
sg19
I20
sg20
I1
sa(dp154
g8
I500
sg4
I5
sg5
I0
sg6
g7
sg3
I0
sg9
I8
sg10
g11
sg12
I25
sg13
I9
sg14
I120
sg15
I0
sg16
I0
sg17
g18
sg19
I30
sg20
I1
sa(dp155
g8
I300
sg4
I5
sg5
I0
sg6
g91
sg3
I0
sg9
I5
sg10
g89
sg12
I25
sg13
I8
sg14
I121
sg15
I0
sg16
I0
sg17
g103
sg19
I20
sg20
I1
sa(dp156
g8
I500
sg4
I5
sg5
I0
sg6
g7
sg3
I0
sg9
I8
sg10
g11
sg12
I25
sg13
I9
sg14
I122
sg15
I0
sg16
I0
sg17
g18
sg19
I30
sg20
I1
sa(dp157
g8
I300
sg4
I5
sg5
I0
sg6
g91
sg3
I0
sg9
I5
sg10
g89
sg12
I25
sg13
I8
sg14
I123
sg15
I0
sg16
I0
sg17
g103
sg19
I20
sg20
I1
sa(dp158
g8
I500
sg4
I5
sg5
I0
sg6
g7
sg3
I0
sg9
I8
sg10
g11
sg12
I25
sg13
I9
sg14
I124
sg15
I0
sg16
I0
sg17
g18
sg19
I30
sg20
I1
sa(dp159
g8
I1000
sg4
I5
sg5
I0
sg6
g7
sg3
I0
sg9
I4
sg10
g11
sg12
I25
sg13
I9
sg14
I125
sg15
I0
sg16
I0
sg17
S'dH2O - ligase'
p160
sg19
I8
sg20
I1
sa(dp161
g8
I1000
sg4
I5
sg5
I0
sg6
g7
sg3
I0
sg9
I4
sg10
g11
sg12
I25
sg13
I9
sg14
I126
sg15
I0
sg16
I0
sg17
g160
sg19
I8
sg20
I1
sa(dp162
g8
I1000
sg4
I5
sg5
I0
sg6
g7
sg3
I0
sg9
I4
sg10
g11
sg12
I25
sg13
I9
sg14
I127
sg15
I0
sg16
I0
sg17
g160
sg19
I8
sg20
I1
sa(dp163
g8
I1000
sg4
I5
sg5
I0
sg6
g7
sg3
I0
sg9
I4
sg10
g11
sg12
I25
sg13
I9
sg14
I128
sg15
I0
sg16
I0
sg17
g160
sg19
I8
sg20
I1
sa(dp164
g8
I1000
sg4
I5
sg5
I0
sg6
g7
sg3
I0
sg9
I3
sg10
g11
sg12
I25
sg13
I9
sg14
I129
sg15
I0
sg16
I0
sg17
g22
sg19
I8
sg20
I1
sa(dp165
g8
I1000
sg4
I5
sg5
I0
sg6
g7
sg3
I0
sg9
I3
sg10
g11
sg12
I25
sg13
I9
sg14
I130
sg15
I0
sg16
I0
sg17
g22
sg19
I8
sg20
I1
sa(dp166
g8
I1000
sg4
I5
sg5
I0
sg6
g7
sg3
I0
sg9
I3
sg10
g11
sg12
I25
sg13
I9
sg14
I131
sg15
I0
sg16
I0
sg17
g22
sg19
I8
sg20
I1
sa(dp167
g8
I1000
sg4
I5
sg5
I0
sg6
g7
sg3
I0
sg9
I3
sg10
g11
sg12
I25
sg13
I9
sg14
I132
sg15
I0
sg16
I0
sg17
g22
sg19
I8
sg20
I1
sa(dp168
g8
I1000
sg4
I5
sg5
I0
sg6
g7
sg3
I0
sg9
I3
sg10
g11
sg12
I25
sg13
I9
sg14
I133
sg15
I0
sg16
I0
sg17
g22
sg19
I8
sg20
I1
sa(dp169
g8
I300
sg4
I5
sg5
I0
sg6
g91
sg3
I0
sg9
I5
sg10
g89
sg12
I25
sg13
I8
sg14
I134
sg15
I0
sg16
I0
sg17
g103
sg19
I20
sg20
I1
sa(dp170
g8
I1000
sg4
I5
sg5
I0
sg6
g7
sg3
I0
sg9
I8
sg10
g11
sg12
I25
sg13
I9
sg14
I135
sg15
I0
sg16
I0
sg17
g18
sg19
I30
sg20
I2
sa(dp171
g8
I1000
sg4
I5
sg5
I0
sg6
g7
sg3
I0
sg9
I3
sg10
g11
sg12
I25
sg13
I9
sg14
I136
sg15
I0
sg16
I0
sg17
g22
sg19
I8
sg20
I2
sa(dp172
g8
I250
sg4
I5
sg5
I0
sg6
g18
sg3
I0
sg9
I2
sg10
g11
sg12
I25
sg13
I8
sg14
I137
sg15
I0
sg16
I0
sg17
g24
sg19
I16
sg20
I2
sa(dp173
g8
I35
sg4
I5
sg5
I0
sg6
g18
sg3
I0
sg9
I7
sg10
g11
sg12
I25
sg13
I8
sg14
I138
sg15
I0
sg16
I0
sg17
g26
sg19
I25
sg20
I2
sa(dp174
g8
I1000
sg4
I5
sg5
I0
sg6
g7
sg3
I0
sg9
I3
sg10
g11
sg12
I25
sg13
I9
sg14
I139
sg15
I0
sg16
I0
sg17
g22
sg19
I8
sg20
I2
sa(dp175
g8
I1000
sg4
I5
sg5
I0
sg6
g7
sg3
I0
sg9
I3
sg10
g11
sg12
I25
sg13
I9
sg14
I140
sg15
I0
sg16
I0
sg17
g22
sg19
I8
sg20
I2
sa(dp176
g8
I1000
sg4
I5
sg5
I0
sg6
g7
sg3
I0
sg9
I3
sg10
g11
sg12
I25
sg13
I9
sg14
I141
sg15
I0
sg16
I0
sg17
g22
sg19
I8
sg20
I2
sa(dp177
g8
I1000
sg4
I5
sg5
I0
sg6
g7
sg3
I0
sg9
I3
sg10
g11
sg12
I25
sg13
I9
sg14
I142
sg15
I0
sg16
I0
sg17
g22
sg19
I8
sg20
I2
sa(dp178
g8
I1000
sg4
I5
sg5
I0
sg6
g7
sg3
I45
sg9
I3
sg10
g11
sg12
I25
sg13
I9
sg14
I143
sg15
I0
sg16
I0
sg17
g22
sg19
I8
sg20
I2
sa(dp179
g8
I350
sg4
I5
sg5
I0
sg6
g7
sg3
I0
sg9
I8
sg10
g11
sg12
I25
sg13
I9
sg14
I144
sg15
I0
sg16
I0
sg17
g18
sg19
I30
sg20
I2
sa(dp180
g8
I1000
sg4
I5
sg5
I0
sg6
g7
sg3
I0
sg9
I3
sg10
g11
sg12
I25
sg13
I9
sg14
I145
sg15
I0
sg16
I0
sg17
g22
sg19
I8
sg20
I2
sa(dp181
g8
I1000
sg4
I5
sg5
I0
sg6
g7
sg3
I0
sg9
I3
sg10
g11
sg12
I25
sg13
I9
sg14
I146
sg15
I0
sg16
I0
sg17
g22
sg19
I8
sg20
I2
sa(dp182
g8
I1000
sg4
I5
sg5
I0
sg6
g7
sg3
I0
sg9
I3
sg10
g11
sg12
I25
sg13
I9
sg14
I147
sg15
I0
sg16
I0
sg17
g22
sg19
I8
sg20
I2
sa(dp183
g8
I1000
sg4
I5
sg5
I0
sg6
g7
sg3
I0
sg9
I3
sg10
g11
sg12
I25
sg13
I9
sg14
I148
sg15
I0
sg16
I0
sg17
g22
sg19
I8
sg20
I2
sa(dp184
g8
I250
sg4
I5
sg5
I0
sg6
g18
sg3
I0
sg9
I3
sg10
g11
sg12
I25
sg13
I8
sg14
I149
sg15
I1
sg16
I1
sg17
g22
sg19
I16
sg20
I2
sa(dp185
g8
I1000
sg4
I5
sg5
I0
sg6
g7
sg3
I0
sg9
I3
sg10
g11
sg12
I25
sg13
I9
sg14
I150
sg15
I1
sg16
I1
sg17
g22
sg19
I8
sg20
I2
sa(dp186
g8
I250
sg4
I5
sg5
I0
sg6
g18
sg3
I0
sg9
I3
sg10
g11
sg12
I25
sg13
I8
sg14
I151
sg15
I1
sg16
I1
sg17
g22
sg19
I16
sg20
I2
sa(dp187
g8
I1000
sg4
I5
sg5
I0
sg6
g7
sg3
I0
sg9
I3
sg10
g11
sg12
I25
sg13
I9
sg14
I152
sg15
I1
sg16
I1
sg17
g22
sg19
I8
sg20
I2
sa(dp188
g8
I250
sg4
I5
sg5
I0
sg6
g18
sg3
I0
sg9
I3
sg10
g11
sg12
I25
sg13
I8
sg14
I153
sg15
I1
sg16
I1
sg17
g22
sg19
I16
sg20
I2
sa(dp189
g8
I1000
sg4
I5
sg5
I0
sg6
g7
sg3
I0
sg9
I3
sg10
g11
sg12
I25
sg13
I9
sg14
I154
sg15
I1
sg16
I1
sg17
g22
sg19
I8
sg20
I2
sa(dp190
g8
I250
sg4
I5
sg5
I0
sg6
g18
sg3
I0
sg9
I3
sg10
g11
sg12
I25
sg13
I8
sg14
I155
sg15
I1
sg16
I1
sg17
g22
sg19
I16
sg20
I2
sa(dp191
g8
I750
sg4
I5
sg5
I0
sg6
g7
sg3
I0
sg9
I3
sg10
g11
sg12
I25
sg13
I9
sg14
I156
sg15
I1
sg16
I0
sg17
g22
sg19
I8
sg20
I2
sa(dp192
g8
I250
sg4
I5
sg5
I0
sg6
g18
sg3
I0
sg9
I3
sg10
g11
sg12
I25
sg13
I8
sg14
I157
sg15
I1
sg16
I1
sg17
g22
sg19
I16
sg20
I2
sa(dp193
g8
I750
sg4
I5
sg5
I0
sg6
g7
sg3
I0
sg9
I3
sg10
g11
sg12
I25
sg13
I9
sg14
I158
sg15
I1
sg16
I0
sg17
g22
sg19
I8
sg20
I2
sa(dp194
g8
I250
sg4
I5
sg5
I0
sg6
g18
sg3
I0
sg9
I3
sg10
g11
sg12
I25
sg13
I8
sg14
I159
sg15
I1
sg16
I1
sg17
g22
sg19
I16
sg20
I2
sa(dp195
g8
I750
sg4
I5
sg5
I0
sg6
g7
sg3
I0
sg9
I3
sg10
g11
sg12
I25
sg13
I9
sg14
I160
sg15
I1
sg16
I0
sg17
g22
sg19
I8
sg20
I2
sa(dp196
g8
I250
sg4
I5
sg5
I0
sg6
g18
sg3
I0
sg9
I3
sg10
g11
sg12
I25
sg13
I8
sg14
I161
sg15
I1
sg16
I1
sg17
g22
sg19
I16
sg20
I2
sa(dp197
g8
I750
sg4
I5
sg5
I0
sg6
g7
sg3
I0
sg9
I3
sg10
g11
sg12
I25
sg13
I9
sg14
I162
sg15
I1
sg16
I0
sg17
g22
sg19
I8
sg20
I2
sa(dp198
g8
I250
sg4
I5
sg5
I0
sg6
g18
sg3
I0
sg9
I3
sg10
g11
sg12
I25
sg13
I8
sg14
I163
sg15
I1
sg16
I1
sg17
g22
sg19
I16
sg20
I2
sa(dp199
g8
I750
sg4
I5
sg5
I0
sg6
g7
sg3
I0
sg9
I3
sg10
g11
sg12
I25
sg13
I9
sg14
I164
sg15
I1
sg16
I0
sg17
g22
sg19
I8
sg20
I2
sa(dp200
g8
I250
sg4
I5
sg5
I0
sg6
g18
sg3
I0
sg9
I3
sg10
g11
sg12
I25
sg13
I8
sg14
I165
sg15
I1
sg16
I1
sg17
g22
sg19
I16
sg20
I2
sa(dp201
g8
I750
sg4
I5
sg5
I0
sg6
g7
sg3
I0
sg9
I3
sg10
g11
sg12
I25
sg13
I9
sg14
I166
sg15
I1
sg16
I0
sg17
g22
sg19
I8
sg20
I2
sa(dp202
g8
I250
sg4
I5
sg5
I0
sg6
g18
sg3
I0
sg9
I3
sg10
g11
sg12
I25
sg13
I8
sg14
I167
sg15
I1
sg16
I1
sg17
g22
sg19
I16
sg20
I2
sa(dp203
g8
I750
sg4
I5
sg5
I0
sg6
g7
sg3
I0
sg9
I3
sg10
g11
sg12
I25
sg13
I9
sg14
I168
sg15
I1
sg16
I0
sg17
g22
sg19
I8
sg20
I2
sa(dp204
g8
I250
sg4
I5
sg5
I0
sg6
g18
sg3
I0
sg9
I3
sg10
g11
sg12
I25
sg13
I8
sg14
I169
sg15
I1
sg16
I1
sg17
g22
sg19
I16
sg20
I2
sa(dp205
g8
I750
sg4
I5
sg5
I0
sg6
g7
sg3
I0
sg9
I3
sg10
g11
sg12
I25
sg13
I9
sg14
I170
sg15
I1
sg16
I0
sg17
g22
sg19
I8
sg20
I2
sa(dp206
g8
I250
sg4
I5
sg5
I0
sg6
g18
sg3
I0
sg9
I3
sg10
g11
sg12
I25
sg13
I8
sg14
I171
sg15
I1
sg16
I1
sg17
g22
sg19
I16
sg20
I2
sa(dp207
g8
I750
sg4
I5
sg5
I0
sg6
g7
sg3
I0
sg9
I3
sg10
g11
sg12
I25
sg13
I9
sg14
I172
sg15
I1
sg16
I0
sg17
g22
sg19
I8
sg20
I2
sa(dp208
g8
I250
sg4
I5
sg5
I0
sg6
g18
sg3
I0
sg9
I3
sg10
g11
sg12
I25
sg13
I8
sg14
I173
sg15
I1
sg16
I1
sg17
g22
sg19
I16
sg20
I2
sa(dp209
g8
I750
sg4
I5
sg5
I0
sg6
g7
sg3
I0
sg9
I3
sg10
g11
sg12
I25
sg13
I9
sg14
I174
sg15
I1
sg16
I0
sg17
g22
sg19
I8
sg20
I2
sa(dp210
g8
I250
sg4
I5
sg5
I0
sg6
g18
sg3
I0
sg9
I3
sg10
g11
sg12
I25
sg13
I8
sg14
I175
sg15
I1
sg16
I1
sg17
g22
sg19
I16
sg20
I2
sa(dp211
g8
I750
sg4
I5
sg5
I0
sg6
g7
sg3
I0
sg9
I3
sg10
g11
sg12
I25
sg13
I9
sg14
I176
sg15
I1
sg16
I0
sg17
g22
sg19
I8
sg20
I2
sa(dp212
g8
I250
sg4
I5
sg5
I0
sg6
g18
sg3
I0
sg9
I3
sg10
g11
sg12
I25
sg13
I8
sg14
I177
sg15
I1
sg16
I1
sg17
g22
sg19
I16
sg20
I2
sa(dp213
g8
I750
sg4
I5
sg5
I0
sg6
g7
sg3
I0
sg9
I3
sg10
g11
sg12
I25
sg13
I9
sg14
I178
sg15
I1
sg16
I0
sg17
g22
sg19
I8
sg20
I2
sa(dp214
g8
I250
sg4
I5
sg5
I0
sg6
g18
sg3
I0
sg9
I3
sg10
g11
sg12
I25
sg13
I8
sg14
I179
sg15
I1
sg16
I1
sg17
g22
sg19
I16
sg20
I2
sa(dp215
g8
I750
sg4
I5
sg5
I0
sg6
g7
sg3
I0
sg9
I3
sg10
g11
sg12
I25
sg13
I9
sg14
I180
sg15
I1
sg16
I0
sg17
g22
sg19
I8
sg20
I2
sa(dp216
g8
I250
sg4
I5
sg5
I0
sg6
g18
sg3
I0
sg9
I3
sg10
g11
sg12
I25
sg13
I8
sg14
I181
sg15
I1
sg16
I1
sg17
g22
sg19
I16
sg20
I2
sa(dp217
g8
I750
sg4
I5
sg5
I0
sg6
g7
sg3
I0
sg9
I3
sg10
g11
sg12
I25
sg13
I9
sg14
I182
sg15
I1
sg16
I0
sg17
g22
sg19
I8
sg20
I2
sa(dp218
g8
I250
sg4
I5
sg5
I0
sg6
g18
sg3
I0
sg9
I3
sg10
g11
sg12
I25
sg13
I8
sg14
I183
sg15
I1
sg16
I1
sg17
g22
sg19
I16
sg20
I2
sa(dp219
g8
I750
sg4
I5
sg5
I0
sg6
g7
sg3
I0
sg9
I3
sg10
g11
sg12
I25
sg13
I9
sg14
I184
sg15
I1
sg16
I0
sg17
g22
sg19
I8
sg20
I2
sa(dp220
g8
I250
sg4
I5
sg5
I0
sg6
g18
sg3
I0
sg9
I3
sg10
g11
sg12
I25
sg13
I8
sg14
I185
sg15
I1
sg16
I1
sg17
g22
sg19
I16
sg20
I2
sa(dp221
g8
I750
sg4
I5
sg5
I0
sg6
g7
sg3
I0
sg9
I3
sg10
g11
sg12
I25
sg13
I9
sg14
I186
sg15
I1
sg16
I0
sg17
g22
sg19
I8
sg20
I2
sa(dp222
g8
I250
sg4
I5
sg5
I0
sg6
g18
sg3
I0
sg9
I3
sg10
g11
sg12
I25
sg13
I8
sg14
I187
sg15
I1
sg16
I1
sg17
g22
sg19
I16
sg20
I2
sa(dp223
g8
I750
sg4
I5
sg5
I0
sg6
g7
sg3
I0
sg9
I3
sg10
g11
sg12
I25
sg13
I9
sg14
I188
sg15
I1
sg16
I0
sg17
g22
sg19
I8
sg20
I2
sa(dp224
g8
I250
sg4
I5
sg5
I0
sg6
g18
sg3
I0
sg9
I3
sg10
g11
sg12
I25
sg13
I8
sg14
I189
sg15
I1
sg16
I1
sg17
g22
sg19
I16
sg20
I2
sa(dp225
g8
I750
sg4
I5
sg5
I0
sg6
g7
sg3
I0
sg9
I3
sg10
g11
sg12
I25
sg13
I9
sg14
I190
sg15
I1
sg16
I0
sg17
g22
sg19
I8
sg20
I2
sa(dp226
g8
I250
sg4
I5
sg5
I0
sg6
g18
sg3
I0
sg9
I3
sg10
g11
sg12
I25
sg13
I8
sg14
I191
sg15
I1
sg16
I1
sg17
g22
sg19
I16
sg20
I2
sa(dp227
g8
I750
sg4
I5
sg5
I0
sg6
g7
sg3
I0
sg9
I3
sg10
g11
sg12
I25
sg13
I9
sg14
I192
sg15
I1
sg16
I0
sg17
g22
sg19
I8
sg20
I2
sa(dp228
g8
I250
sg4
I5
sg5
I0
sg6
g18
sg3
I0
sg9
I3
sg10
g11
sg12
I25
sg13
I8
sg14
I193
sg15
I1
sg16
I1
sg17
g22
sg19
I16
sg20
I2
sa(dp229
g8
I750
sg4
I5
sg5
I0
sg6
g7
sg3
I0
sg9
I3
sg10
g11
sg12
I25
sg13
I9
sg14
I194
sg15
I1
sg16
I0
sg17
g22
sg19
I8
sg20
I2
sa(dp230
g8
I500
sg4
I5
sg5
I0
sg6
g7
sg3
I0
sg9
I8
sg10
g11
sg12
I25
sg13
I9
sg14
I195
sg15
I0
sg16
I0
sg17
g18
sg19
I30
sg20
I2
sa(dp231
g8
I250
sg4
I5
sg5
I0
sg6
g18
sg3
I0
sg9
I5
sg10
g11
sg12
I25
sg13
I8
sg14
I196
sg15
I0
sg16
I0
sg17
g85
sg19
I16
sg20
I2
sa(dp232
g8
I500
sg4
I5
sg5
I0
sg6
g7
sg3
I0
sg9
I8
sg10
g11
sg12
I25
sg13
I9
sg14
I197
sg15
I0
sg16
I0
sg17
g18
sg19
I30
sg20
I3
sa(dp233
g8
I700
sg4
I5
sg5
I0
sg6
g88
sg3
I0
sg9
I1
sg10
g89
sg12
I25
sg13
I1
sg14
I198
sg15
I0
sg16
I0
sg17
g88
sg19
I21
sg20
I3
sa(dp234
g8
I300
sg4
I5
sg5
I0
sg6
g91
sg3
I0
sg9
I1
sg10
g89
sg12
I25
sg13
I8
sg14
I199
sg15
I0
sg16
I0
sg17
g88
sg19
I20
sg20
I3
sa(dp235
g8
I35
sg4
I5
sg5
I0
sg6
g91
sg3
I5
sg9
I7
sg10
g89
sg12
I25
sg13
I8
sg14
I200
sg15
I0
sg16
I0
sg17
g93
sg19
I25
sg20
I3
sa(dp236
g8
I400
sg4
I5
sg5
I0
sg6
g7
sg3
I0
sg9
I8
sg10
g11
sg12
I25
sg13
I9
sg14
I201
sg15
I0
sg16
I0
sg17
g18
sg19
I30
sg20
I3
sa(dp237
g8
I300
sg4
I5
sg5
I0
sg6
g91
sg3
I0
sg9
I1
sg10
g89
sg12
I25
sg13
I8
sg14
I202
sg15
I0
sg16
I0
sg17
g88
sg19
I20
sg20
I3
sa(dp238
g8
I35
sg4
I5
sg5
I0
sg6
g91
sg3
I5
sg9
I7
sg10
g89
sg12
I25
sg13
I8
sg14
I203
sg15
I0
sg16
I0
sg17
g93
sg19
I25
sg20
I3
sa(dp239
g8
I400
sg4
I5
sg5
I0
sg6
g7
sg3
I0
sg9
I8
sg10
g11
sg12
I25
sg13
I9
sg14
I204
sg15
I0
sg16
I0
sg17
g18
sg19
I30
sg20
I3
sa(dp240
g8
I4000
sg4
I5
sg5
I0
sg6
g99
sg3
I0
sg9
I6
sg10
g89
sg12
I25
sg13
I9
sg14
I205
sg15
I0
sg16
I0
sg17
g100
sg19
I8
sg20
I3
sa(dp241
g8
I4000
sg4
I5
sg5
I0
sg6
g99
sg3
I0
sg9
I6
sg10
g89
sg12
I25
sg13
I9
sg14
I206
sg15
I0
sg16
I0
sg17
g100
sg19
I8
sg20
I3
sa(dp242
g8
I4000
sg4
I5
sg5
I0
sg6
g99
sg3
I0
sg9
I5
sg10
g89
sg12
I25
sg13
I9
sg14
I207
sg15
I0
sg16
I0
sg17
g103
sg19
I8
sg20
I3
sa(dp243
g8
I4000
sg4
I5
sg5
I0
sg6
g99
sg3
I0
sg9
I5
sg10
g89
sg12
I25
sg13
I9
sg14
I208
sg15
I0
sg16
I0
sg17
g103
sg19
I8
sg20
I3
sa(dp244
g8
I300
sg4
I5
sg5
I0
sg6
g91
sg3
I0
sg9
I5
sg10
g89
sg12
I25
sg13
I8
sg14
I209
sg15
I0
sg16
I0
sg17
g103
sg19
I20
sg20
I3
sa(dp245
g8
I700
sg4
I5
sg5
I0
sg6
g88
sg3
I0
sg9
I7
sg10
g89
sg12
I25
sg13
I1
sg14
I210
sg15
I0
sg16
I0
sg17
g93
sg19
I21
sg20
I3
sa(dp246
g8
I700
sg4
I5
sg5
I0
sg6
g108
sg3
I0
sg9
I2
sg10
g89
sg12
I25
sg13
I2
sg14
I211
sg15
I0
sg16
I0
sg17
g108
sg19
I21
sg20
I3
sa(dp247
g8
I270
sg4
I5
sg5
I0
sg6
g110
sg3
I0
sg9
I2
sg10
g89
sg12
I25
sg13
I4
sg14
I212
sg15
I0
sg16
I0
sg17
g108
sg19
I20
sg20
I3
sa(dp248
g8
I700
sg4
I5
sg5
I0
sg6
g110
sg3
I0
sg9
I7
sg10
g89
sg12
I25
sg13
I4
sg14
I213
sg15
I0
sg16
I0
sg17
g93
sg19
I21
sg20
I3
sa(dp249
g8
I700
sg4
I5
sg5
I0
sg6
g108
sg3
I0
sg9
I7
sg10
g89
sg12
I25
sg13
I2
sg14
I214
sg15
I0
sg16
I0
sg17
g93
sg19
I21
sg20
I3
sa(dp250
g8
I4000
sg4
I5
sg5
I0
sg6
g99
sg3
I0
sg9
I6
sg10
g89
sg12
I25
sg13
I9
sg14
I215
sg15
I0
sg16
I0
sg17
g100
sg19
I8
sg20
I3
sa(dp251
g8
I4000
sg4
I5
sg5
I0
sg6
g99
sg3
I0
sg9
I6
sg10
g89
sg12
I25
sg13
I9
sg14
I216
sg15
I0
sg16
I0
sg17
g100
sg19
I8
sg20
I3
sa(dp252
g8
I4000
sg4
I5
sg5
I0
sg6
g99
sg3
I0
sg9
I5
sg10
g89
sg12
I25
sg13
I9
sg14
I217
sg15
I0
sg16
I0
sg17
g103
sg19
I8
sg20
I3
sa(dp253
g8
I4000
sg4
I5
sg5
I0
sg6
g99
sg3
I0
sg9
I5
sg10
g89
sg12
I25
sg13
I9
sg14
I218
sg15
I0
sg16
I0
sg17
g103
sg19
I8
sg20
I3
sa(dp254
g8
I700
sg4
I5
sg5
I0
sg6
g118
sg3
I0
sg9
I3
sg10
g89
sg12
I25
sg13
I3
sg14
I219
sg15
I0
sg16
I0
sg17
g118
sg19
I21
sg20
I3
sa(dp255
g8
I750
sg4
I5
sg5
I0
sg6
g110
sg3
I0
sg9
I3
sg10
g89
sg12
I25
sg13
I4
sg14
I220
sg15
I0
sg16
I0
sg17
g118
sg19
I20
sg20
I3
sa(dp256
g8
I700
sg4
I5
sg5
I0
sg6
g110
sg3
I0
sg9
I7
sg10
g89
sg12
I25
sg13
I4
sg14
I221
sg15
I0
sg16
I0
sg17
g93
sg19
I21
sg20
I3
sa(dp257
g8
I700
sg4
I5
sg5
I0
sg6
g118
sg3
I0
sg9
I7
sg10
g89
sg12
I25
sg13
I3
sg14
I222
sg15
I0
sg16
I0
sg17
g93
sg19
I21
sg20
I3
sa(dp258
g8
I4500
sg4
I5
sg5
I0
sg6
g110
sg3
I0
sg9
I7
sg10
g89
sg12
I25
sg13
I4
sg14
I223
sg15
I0
sg16
I0
sg17
g93
sg19
I8
sg20
I3
sa(dp259
g8
I500
sg4
I5
sg5
I0
sg6
g7
sg3
I0
sg9
I8
sg10
g11
sg12
I25
sg13
I9
sg14
I224
sg15
I0
sg16
I0
sg17
g18
sg19
I30
sg20
I3
sa(dp260
g8
I700
sg4
I5
sg5
I0
sg6
g110
sg3
I0
sg9
I4
sg10
g89
sg12
I25
sg13
I4
sg14
I225
sg15
I0
sg16
I0
sg17
g110
sg19
I21
sg20
I3
sa(dp261
g8
I300
sg4
I5
sg5
I0
sg6
g91
sg3
I0
sg9
I4
sg10
g89
sg12
I25
sg13
I8
sg14
I226
sg15
I0
sg16
I0
sg17
g110
sg19
I20
sg20
I3
sa(dp262
g8
I35
sg4
I5
sg5
I0
sg6
g91
sg3
I0
sg9
I7
sg10
g89
sg12
I25
sg13
I8
sg14
I227
sg15
I0
sg16
I0
sg17
g93
sg19
I25
sg20
I3
sa(dp263
g8
I700
sg4
I5
sg5
I0
sg6
g110
sg3
I5
sg9
I7
sg10
g89
sg12
I25
sg13
I4
sg14
I228
sg15
I0
sg16
I0
sg17
g93
sg19
I21
sg20
I3
sa(dp264
g8
I400
sg4
I5
sg5
I0
sg6
g7
sg3
I0
sg9
I8
sg10
g11
sg12
I25
sg13
I9
sg14
I229
sg15
I0
sg16
I0
sg17
g18
sg19
I30
sg20
I3
sa(dp265
g8
I700
sg4
I5
sg5
I0
sg6
g110
sg3
I0
sg9
I4
sg10
g89
sg12
I25
sg13
I4
sg14
I230
sg15
I0
sg16
I0
sg17
g110
sg19
I21
sg20
I3
sa(dp266
g8
I300
sg4
I5
sg5
I0
sg6
g91
sg3
I0
sg9
I4
sg10
g89
sg12
I25
sg13
I8
sg14
I231
sg15
I0
sg16
I0
sg17
g110
sg19
I20
sg20
I3
sa(dp267
g8
I35
sg4
I5
sg5
I0
sg6
g91
sg3
I0
sg9
I7
sg10
g89
sg12
I25
sg13
I8
sg14
I232
sg15
I0
sg16
I0
sg17
g93
sg19
I25
sg20
I3
sa(dp268
g8
I700
sg4
I5
sg5
I0
sg6
g110
sg3
I5
sg9
I7
sg10
g89
sg12
I25
sg13
I4
sg14
I233
sg15
I0
sg16
I0
sg17
g93
sg19
I21
sg20
I3
sa(dp269
g8
I400
sg4
I5
sg5
I0
sg6
g7
sg3
I0
sg9
I8
sg10
g11
sg12
I25
sg13
I9
sg14
I234
sg15
I0
sg16
I0
sg17
g18
sg19
I30
sg20
I3
sa(dp270
g8
I2000
sg4
I5
sg5
I0
sg6
g99
sg3
I0
sg9
I4
sg10
g89
sg12
I25
sg13
I9
sg14
I235
sg15
I0
sg16
I0
sg17
g110
sg19
I16
sg20
I3
sa(dp271
g8
I4000
sg4
I5
sg5
I0
sg6
g99
sg3
I0
sg9
I6
sg10
g89
sg12
I25
sg13
I9
sg14
I236
sg15
I0
sg16
I0
sg17
g100
sg19
I8
sg20
I3
sa(dp272
g8
I4000
sg4
I5
sg5
I0
sg6
g99
sg3
I0
sg9
I6
sg10
g89
sg12
I25
sg13
I9
sg14
I237
sg15
I0
sg16
I0
sg17
g100
sg19
I8
sg20
I3
sa(dp273
g8
I4000
sg4
I5
sg5
I0
sg6
g99
sg3
I0
sg9
I5
sg10
g89
sg12
I25
sg13
I9
sg14
I238
sg15
I0
sg16
I0
sg17
g103
sg19
I8
sg20
I3
sa(dp274
g8
I4000
sg4
I5
sg5
I0
sg6
g99
sg3
I0
sg9
I5
sg10
g89
sg12
I25
sg13
I9
sg14
I239
sg15
I0
sg16
I0
sg17
g103
sg19
I8
sg20
I3
sa(dp275
g8
I300
sg4
I5
sg5
I0
sg6
g91
sg3
I0
sg9
I5
sg10
g89
sg12
I25
sg13
I8
sg14
I240
sg15
I0
sg16
I0
sg17
g103
sg19
I20
sg20
I3
sa(dp276
g8
I500
sg4
I5
sg5
I0
sg6
g7
sg3
I0
sg9
I8
sg10
g11
sg12
I25
sg13
I9
sg14
I241
sg15
I0
sg16
I0
sg17
g18
sg19
I30
sg20
I3
sa(dp277
g8
I300
sg4
I5
sg5
I0
sg6
g91
sg3
I0
sg9
I5
sg10
g89
sg12
I25
sg13
I8
sg14
I242
sg15
I0
sg16
I0
sg17
g103
sg19
I20
sg20
I3
sa(dp278
g8
I500
sg4
I5
sg5
I0
sg6
g7
sg3
I0
sg9
I8
sg10
g11
sg12
I25
sg13
I9
sg14
I243
sg15
I0
sg16
I0
sg17
g18
sg19
I30
sg20
I3
sa(dp279
g8
I300
sg4
I5
sg5
I0
sg6
g91
sg3
I0
sg9
I5
sg10
g89
sg12
I25
sg13
I8
sg14
I244
sg15
I0
sg16
I0
sg17
g103
sg19
I20
sg20
I3
sa(dp280
g8
I500
sg4
I5
sg5
I0
sg6
g7
sg3
I0
sg9
I8
sg10
g11
sg12
I25
sg13
I9
sg14
I245
sg15
I0
sg16
I0
sg17
g18
sg19
I30
sg20
I3
sa(dp281
g8
I300
sg4
I5
sg5
I0
sg6
g91
sg3
I0
sg9
I5
sg10
g89
sg12
I25
sg13
I8
sg14
I246
sg15
I0
sg16
I0
sg17
g103
sg19
I20
sg20
I3
sa(dp282
g8
I500
sg4
I5
sg5
I0
sg6
g7
sg3
I0
sg9
I8
sg10
g11
sg12
I25
sg13
I9
sg14
I247
sg15
I0
sg16
I0
sg17
g18
sg19
I30
sg20
I3
sa(dp283
g8
I300
sg4
I5
sg5
I0
sg6
g91
sg3
I0
sg9
I5
sg10
g89
sg12
I25
sg13
I8
sg14
I248
sg15
I0
sg16
I0
sg17
g103
sg19
I20
sg20
I3
sa(dp284
g8
I500
sg4
I5
sg5
I0
sg6
g7
sg3
I0
sg9
I8
sg10
g11
sg12
I25
sg13
I9
sg14
I249
sg15
I0
sg16
I0
sg17
g18
sg19
I30
sg20
I3
sa(dp285
g8
I300
sg4
I5
sg5
I0
sg6
g91
sg3
I0
sg9
I5
sg10
g89
sg12
I25
sg13
I8
sg14
I250
sg15
I0
sg16
I0
sg17
g103
sg19
I20
sg20
I3
sa(dp286
g8
I500
sg4
I5
sg5
I0
sg6
g7
sg3
I0
sg9
I8
sg10
g11
sg12
I25
sg13
I9
sg14
I251
sg15
I0
sg16
I0
sg17
g18
sg19
I30
sg20
I3
sa(dp287
g8
I300
sg4
I5
sg5
I0
sg6
g91
sg3
I0
sg9
I5
sg10
g89
sg12
I25
sg13
I8
sg14
I252
sg15
I0
sg16
I0
sg17
g103
sg19
I20
sg20
I3
sa(dp288
g8
I500
sg4
I5
sg5
I0
sg6
g7
sg3
I0
sg9
I8
sg10
g11
sg12
I25
sg13
I9
sg14
I253
sg15
I0
sg16
I0
sg17
g18
sg19
I30
sg20
I3
sa(dp289
g8
I300
sg4
I5
sg5
I0
sg6
g91
sg3
I0
sg9
I5
sg10
g89
sg12
I25
sg13
I8
sg14
I254
sg15
I0
sg16
I0
sg17
g103
sg19
I20
sg20
I3
sa(dp290
g8
I500
sg4
I5
sg5
I0
sg6
g7
sg3
I0
sg9
I8
sg10
g11
sg12
I25
sg13
I9
sg14
I255
sg15
I0
sg16
I0
sg17
g18
sg19
I30
sg20
I3
sa(dp291
g8
I300
sg4
I5
sg5
I0
sg6
g91
sg3
I0
sg9
I5
sg10
g89
sg12
I25
sg13
I8
sg14
I256
sg15
I0
sg16
I0
sg17
g103
sg19
I20
sg20
I3
sa(dp292
g8
I500
sg4
I5
sg5
I0
sg6
g7
sg3
I0
sg9
I8
sg10
g11
sg12
I25
sg13
I9
sg14
I257
sg15
I0
sg16
I0
sg17
g18
sg19
I30
sg20
I3
sa(dp293
g8
I300
sg4
I5
sg5
I0
sg6
g91
sg3
I0
sg9
I5
sg10
g89
sg12
I25
sg13
I8
sg14
I258
sg15
I0
sg16
I0
sg17
g103
sg19
I20
sg20
I3
sa(dp294
g8
I500
sg4
I5
sg5
I0
sg6
g7
sg3
I0
sg9
I8
sg10
g11
sg12
I25
sg13
I9
sg14
I259
sg15
I0
sg16
I0
sg17
g18
sg19
I30
sg20
I3
sa(dp295
g8
I1000
sg4
I5
sg5
I0
sg6
g7
sg3
I0
sg9
I4
sg10
g11
sg12
I25
sg13
I9
sg14
I260
sg15
I0
sg16
I0
sg17
g160
sg19
I8
sg20
I3
sa(dp296
g8
I1000
sg4
I5
sg5
I0
sg6
g7
sg3
I0
sg9
I4
sg10
g11
sg12
I25
sg13
I9
sg14
I261
sg15
I0
sg16
I0
sg17
g160
sg19
I8
sg20
I3
sa(dp297
g8
I1000
sg4
I5
sg5
I0
sg6
g7
sg3
I0
sg9
I4
sg10
g11
sg12
I25
sg13
I9
sg14
I262
sg15
I0
sg16
I0
sg17
g160
sg19
I8
sg20
I3
sa(dp298
g8
I1000
sg4
I5
sg5
I0
sg6
g7
sg3
I0
sg9
I4
sg10
g11
sg12
I25
sg13
I9
sg14
I263
sg15
I0
sg16
I0
sg17
g160
sg19
I8
sg20
I3
sa(dp299
g8
I1000
sg4
I5
sg5
I0
sg6
g7
sg3
I0
sg9
I3
sg10
g11
sg12
I25
sg13
I9
sg14
I264
sg15
I0
sg16
I0
sg17
g22
sg19
I8
sg20
I3
sa(dp300
g8
I1000
sg4
I5
sg5
I0
sg6
g7
sg3
I0
sg9
I3
sg10
g11
sg12
I25
sg13
I9
sg14
I265
sg15
I0
sg16
I0
sg17
g22
sg19
I8
sg20
I3
sa(dp301
g8
I1000
sg4
I5
sg5
I0
sg6
g7
sg3
I0
sg9
I3
sg10
g11
sg12
I25
sg13
I9
sg14
I266
sg15
I0
sg16
I0
sg17
g22
sg19
I8
sg20
I3
sa(dp302
g8
I1000
sg4
I5
sg5
I0
sg6
g7
sg3
I0
sg9
I3
sg10
g11
sg12
I25
sg13
I9
sg14
I267
sg15
I0
sg16
I0
sg17
g22
sg19
I8
sg20
I3
sa(dp303
g8
I1000
sg4
I5
sg5
I0
sg6
g7
sg3
I0
sg9
I3
sg10
g11
sg12
I25
sg13
I9
sg14
I268
sg15
I0
sg16
I0
sg17
g22
sg19
I8
sg20
I3
sa(dp304
g8
I300
sg4
I5
sg5
I0
sg6
g91
sg3
I0
sg9
I5
sg10
g89
sg12
I25
sg13
I8
sg14
I269
sg15
I0
sg16
I0
sg17
g103
sg19
I20
sg20
I3
sa(dp305
g8
I1000
sg4
I5
sg5
I0
sg6
g7
sg3
I0
sg9
I8
sg10
g11
sg12
I25
sg13
I9
sg14
I270
sg15
I0
sg16
I0
sg17
g18
sg19
I30
sg20
I4
sa(dp306
g8
I1000
sg4
I5
sg5
I0
sg6
g7
sg3
I0
sg9
I3
sg10
g11
sg12
I25
sg13
I9
sg14
I271
sg15
I0
sg16
I0
sg17
g22
sg19
I8
sg20
I4
sa(dp307
g8
I250
sg4
I5
sg5
I0
sg6
g18
sg3
I0
sg9
I2
sg10
g11
sg12
I25
sg13
I8
sg14
I272
sg15
I0
sg16
I0
sg17
g24
sg19
I16
sg20
I4
sa(dp308
g8
I35
sg4
I5
sg5
I0
sg6
g18
sg3
I0
sg9
I7
sg10
g11
sg12
I25
sg13
I8
sg14
I273
sg15
I0
sg16
I0
sg17
g26
sg19
I25
sg20
I4
sa(dp309
g8
I1000
sg4
I5
sg5
I0
sg6
g7
sg3
I0
sg9
I3
sg10
g11
sg12
I25
sg13
I9
sg14
I274
sg15
I0
sg16
I0
sg17
g22
sg19
I8
sg20
I4
sa(dp310
g8
I1000
sg4
I5
sg5
I0
sg6
g7
sg3
I0
sg9
I3
sg10
g11
sg12
I25
sg13
I9
sg14
I275
sg15
I0
sg16
I0
sg17
g22
sg19
I8
sg20
I4
sa(dp311
g8
I1000
sg4
I5
sg5
I0
sg6
g7
sg3
I0
sg9
I3
sg10
g11
sg12
I25
sg13
I9
sg14
I276
sg15
I0
sg16
I0
sg17
g22
sg19
I8
sg20
I4
sa(dp312
g8
I1000
sg4
I5
sg5
I0
sg6
g7
sg3
I0
sg9
I3
sg10
g11
sg12
I25
sg13
I9
sg14
I277
sg15
I0
sg16
I0
sg17
g22
sg19
I8
sg20
I4
sa(dp313
g8
I1000
sg4
I5
sg5
I0
sg6
g7
sg3
I45
sg9
I3
sg10
g11
sg12
I25
sg13
I9
sg14
I278
sg15
I0
sg16
I0
sg17
g22
sg19
I8
sg20
I4
sa(dp314
g8
I350
sg4
I5
sg5
I0
sg6
g7
sg3
I0
sg9
I8
sg10
g11
sg12
I25
sg13
I9
sg14
I279
sg15
I0
sg16
I0
sg17
g18
sg19
I30
sg20
I4
sa(dp315
g8
I1000
sg4
I5
sg5
I0
sg6
g7
sg3
I0
sg9
I3
sg10
g11
sg12
I25
sg13
I9
sg14
I280
sg15
I0
sg16
I0
sg17
g22
sg19
I8
sg20
I4
sa(dp316
g8
I1000
sg4
I5
sg5
I0
sg6
g7
sg3
I0
sg9
I3
sg10
g11
sg12
I25
sg13
I9
sg14
I281
sg15
I0
sg16
I0
sg17
g22
sg19
I8
sg20
I4
sa(dp317
g8
I1000
sg4
I5
sg5
I0
sg6
g7
sg3
I0
sg9
I3
sg10
g11
sg12
I25
sg13
I9
sg14
I282
sg15
I0
sg16
I0
sg17
g22
sg19
I8
sg20
I4
sa(dp318
g8
I1000
sg4
I5
sg5
I0
sg6
g7
sg3
I0
sg9
I3
sg10
g11
sg12
I25
sg13
I9
sg14
I283
sg15
I0
sg16
I0
sg17
g22
sg19
I8
sg20
I4
sa(dp319
g8
I250
sg4
I5
sg5
I0
sg6
g18
sg3
I0
sg9
I3
sg10
g11
sg12
I25
sg13
I8
sg14
I284
sg15
I1
sg16
I1
sg17
g22
sg19
I16
sg20
I4
sa(dp320
g8
I1000
sg4
I5
sg5
I0
sg6
g7
sg3
I0
sg9
I3
sg10
g11
sg12
I25
sg13
I9
sg14
I285
sg15
I1
sg16
I1
sg17
g22
sg19
I8
sg20
I4
sa(dp321
g8
I250
sg4
I5
sg5
I0
sg6
g18
sg3
I0
sg9
I3
sg10
g11
sg12
I25
sg13
I8
sg14
I286
sg15
I1
sg16
I1
sg17
g22
sg19
I16
sg20
I4
sa(dp322
g8
I1000
sg4
I5
sg5
I0
sg6
g7
sg3
I0
sg9
I3
sg10
g11
sg12
I25
sg13
I9
sg14
I287
sg15
I1
sg16
I1
sg17
g22
sg19
I8
sg20
I4
sa(dp323
g8
I250
sg4
I5
sg5
I0
sg6
g18
sg3
I0
sg9
I3
sg10
g11
sg12
I25
sg13
I8
sg14
I288
sg15
I1
sg16
I1
sg17
g22
sg19
I16
sg20
I4
sa(dp324
g8
I1000
sg4
I5
sg5
I0
sg6
g7
sg3
I0
sg9
I3
sg10
g11
sg12
I25
sg13
I9
sg14
I289
sg15
I1
sg16
I1
sg17
g22
sg19
I8
sg20
I4
sa(dp325
g8
I250
sg4
I5
sg5
I0
sg6
g18
sg3
I0
sg9
I3
sg10
g11
sg12
I25
sg13
I8
sg14
I290
sg15
I1
sg16
I1
sg17
g22
sg19
I16
sg20
I4
sa(dp326
g8
I750
sg4
I5
sg5
I0
sg6
g7
sg3
I0
sg9
I3
sg10
g11
sg12
I25
sg13
I9
sg14
I291
sg15
I1
sg16
I0
sg17
g22
sg19
I8
sg20
I4
sa(dp327
g8
I250
sg4
I5
sg5
I0
sg6
g18
sg3
I0
sg9
I3
sg10
g11
sg12
I25
sg13
I8
sg14
I292
sg15
I1
sg16
I1
sg17
g22
sg19
I16
sg20
I4
sa(dp328
g8
I750
sg4
I5
sg5
I0
sg6
g7
sg3
I0
sg9
I3
sg10
g11
sg12
I25
sg13
I9
sg14
I293
sg15
I1
sg16
I0
sg17
g22
sg19
I8
sg20
I4
sa(dp329
g8
I250
sg4
I5
sg5
I0
sg6
g18
sg3
I0
sg9
I3
sg10
g11
sg12
I25
sg13
I8
sg14
I294
sg15
I1
sg16
I1
sg17
g22
sg19
I16
sg20
I4
sa(dp330
g8
I750
sg4
I5
sg5
I0
sg6
g7
sg3
I0
sg9
I3
sg10
g11
sg12
I25
sg13
I9
sg14
I295
sg15
I1
sg16
I0
sg17
g22
sg19
I8
sg20
I4
sa(dp331
g8
I250
sg4
I5
sg5
I0
sg6
g18
sg3
I0
sg9
I3
sg10
g11
sg12
I25
sg13
I8
sg14
I296
sg15
I1
sg16
I1
sg17
g22
sg19
I16
sg20
I4
sa(dp332
g8
I750
sg4
I5
sg5
I0
sg6
g7
sg3
I0
sg9
I3
sg10
g11
sg12
I25
sg13
I9
sg14
I297
sg15
I1
sg16
I0
sg17
g22
sg19
I8
sg20
I4
sa(dp333
g8
I250
sg4
I5
sg5
I0
sg6
g18
sg3
I0
sg9
I3
sg10
g11
sg12
I25
sg13
I8
sg14
I298
sg15
I1
sg16
I1
sg17
g22
sg19
I16
sg20
I4
sa(dp334
g8
I750
sg4
I5
sg5
I0
sg6
g7
sg3
I0
sg9
I3
sg10
g11
sg12
I25
sg13
I9
sg14
I299
sg15
I1
sg16
I0
sg17
g22
sg19
I8
sg20
I4
sa(dp335
g8
I250
sg4
I5
sg5
I0
sg6
g18
sg3
I0
sg9
I3
sg10
g11
sg12
I25
sg13
I8
sg14
I300
sg15
I1
sg16
I1
sg17
g22
sg19
I16
sg20
I4
sa(dp336
g8
I750
sg4
I5
sg5
I0
sg6
g7
sg3
I0
sg9
I3
sg10
g11
sg12
I25
sg13
I9
sg14
I301
sg15
I1
sg16
I0
sg17
g22
sg19
I8
sg20
I4
sa(dp337
g8
I250
sg4
I5
sg5
I0
sg6
g18
sg3
I0
sg9
I3
sg10
g11
sg12
I25
sg13
I8
sg14
I302
sg15
I1
sg16
I1
sg17
g22
sg19
I16
sg20
I4
sa(dp338
g8
I750
sg4
I5
sg5
I0
sg6
g7
sg3
I0
sg9
I3
sg10
g11
sg12
I25
sg13
I9
sg14
I303
sg15
I1
sg16
I0
sg17
g22
sg19
I8
sg20
I4
sa(dp339
g8
I250
sg4
I5
sg5
I0
sg6
g18
sg3
I0
sg9
I3
sg10
g11
sg12
I25
sg13
I8
sg14
I304
sg15
I1
sg16
I1
sg17
g22
sg19
I16
sg20
I4
sa(dp340
g8
I750
sg4
I5
sg5
I0
sg6
g7
sg3
I0
sg9
I3
sg10
g11
sg12
I25
sg13
I9
sg14
I305
sg15
I1
sg16
I0
sg17
g22
sg19
I8
sg20
I4
sa(dp341
g8
I250
sg4
I5
sg5
I0
sg6
g18
sg3
I0
sg9
I3
sg10
g11
sg12
I25
sg13
I8
sg14
I306
sg15
I1
sg16
I1
sg17
g22
sg19
I16
sg20
I4
sa(dp342
g8
I750
sg4
I5
sg5
I0
sg6
g7
sg3
I0
sg9
I3
sg10
g11
sg12
I25
sg13
I9
sg14
I307
sg15
I1
sg16
I0
sg17
g22
sg19
I8
sg20
I4
sa(dp343
g8
I250
sg4
I5
sg5
I0
sg6
g18
sg3
I0
sg9
I3
sg10
g11
sg12
I25
sg13
I8
sg14
I308
sg15
I1
sg16
I1
sg17
g22
sg19
I16
sg20
I4
sa(dp344
g8
I750
sg4
I5
sg5
I0
sg6
g7
sg3
I0
sg9
I3
sg10
g11
sg12
I25
sg13
I9
sg14
I309
sg15
I1
sg16
I0
sg17
g22
sg19
I8
sg20
I4
sa(dp345
g8
I250
sg4
I5
sg5
I0
sg6
g18
sg3
I0
sg9
I3
sg10
g11
sg12
I25
sg13
I8
sg14
I310
sg15
I1
sg16
I1
sg17
g22
sg19
I16
sg20
I4
sa(dp346
g8
I750
sg4
I5
sg5
I0
sg6
g7
sg3
I0
sg9
I3
sg10
g11
sg12
I25
sg13
I9
sg14
I311
sg15
I1
sg16
I0
sg17
g22
sg19
I8
sg20
I4
sa(dp347
g8
I250
sg4
I5
sg5
I0
sg6
g18
sg3
I0
sg9
I3
sg10
g11
sg12
I25
sg13
I8
sg14
I312
sg15
I1
sg16
I1
sg17
g22
sg19
I16
sg20
I4
sa(dp348
g8
I750
sg4
I5
sg5
I0
sg6
g7
sg3
I0
sg9
I3
sg10
g11
sg12
I25
sg13
I9
sg14
I313
sg15
I1
sg16
I0
sg17
g22
sg19
I8
sg20
I4
sa(dp349
g8
I250
sg4
I5
sg5
I0
sg6
g18
sg3
I0
sg9
I3
sg10
g11
sg12
I25
sg13
I8
sg14
I314
sg15
I1
sg16
I1
sg17
g22
sg19
I16
sg20
I4
sa(dp350
g8
I750
sg4
I5
sg5
I0
sg6
g7
sg3
I0
sg9
I3
sg10
g11
sg12
I25
sg13
I9
sg14
I315
sg15
I1
sg16
I0
sg17
g22
sg19
I8
sg20
I4
sa(dp351
g8
I250
sg4
I5
sg5
I0
sg6
g18
sg3
I0
sg9
I3
sg10
g11
sg12
I25
sg13
I8
sg14
I316
sg15
I1
sg16
I1
sg17
g22
sg19
I16
sg20
I4
sa(dp352
g8
I750
sg4
I5
sg5
I0
sg6
g7
sg3
I0
sg9
I3
sg10
g11
sg12
I25
sg13
I9
sg14
I317
sg15
I1
sg16
I0
sg17
g22
sg19
I8
sg20
I4
sa(dp353
g8
I250
sg4
I5
sg5
I0
sg6
g18
sg3
I0
sg9
I3
sg10
g11
sg12
I25
sg13
I8
sg14
I318
sg15
I1
sg16
I1
sg17
g22
sg19
I16
sg20
I4
sa(dp354
g8
I750
sg4
I5
sg5
I0
sg6
g7
sg3
I0
sg9
I3
sg10
g11
sg12
I25
sg13
I9
sg14
I319
sg15
I1
sg16
I0
sg17
g22
sg19
I8
sg20
I4
sa(dp355
g8
I250
sg4
I5
sg5
I0
sg6
g18
sg3
I0
sg9
I3
sg10
g11
sg12
I25
sg13
I8
sg14
I320
sg15
I1
sg16
I1
sg17
g22
sg19
I16
sg20
I4
sa(dp356
g8
I750
sg4
I5
sg5
I0
sg6
g7
sg3
I0
sg9
I3
sg10
g11
sg12
I25
sg13
I9
sg14
I321
sg15
I1
sg16
I0
sg17
g22
sg19
I8
sg20
I4
sa(dp357
g8
I250
sg4
I5
sg5
I0
sg6
g18
sg3
I0
sg9
I3
sg10
g11
sg12
I25
sg13
I8
sg14
I322
sg15
I1
sg16
I1
sg17
g22
sg19
I16
sg20
I4
sa(dp358
g8
I750
sg4
I5
sg5
I0
sg6
g7
sg3
I0
sg9
I3
sg10
g11
sg12
I25
sg13
I9
sg14
I323
sg15
I1
sg16
I0
sg17
g22
sg19
I8
sg20
I4
sa(dp359
g8
I250
sg4
I5
sg5
I0
sg6
g18
sg3
I0
sg9
I3
sg10
g11
sg12
I25
sg13
I8
sg14
I324
sg15
I1
sg16
I1
sg17
g22
sg19
I16
sg20
I4
sa(dp360
g8
I750
sg4
I5
sg5
I0
sg6
g7
sg3
I0
sg9
I3
sg10
g11
sg12
I25
sg13
I9
sg14
I325
sg15
I1
sg16
I0
sg17
g22
sg19
I8
sg20
I4
sa(dp361
g8
I250
sg4
I5
sg5
I0
sg6
g18
sg3
I0
sg9
I3
sg10
g11
sg12
I25
sg13
I8
sg14
I326
sg15
I1
sg16
I1
sg17
g22
sg19
I16
sg20
I4
sa(dp362
g8
I750
sg4
I5
sg5
I0
sg6
g7
sg3
I0
sg9
I3
sg10
g11
sg12
I25
sg13
I9
sg14
I327
sg15
I1
sg16
I0
sg17
g22
sg19
I8
sg20
I4
sa(dp363
g8
I250
sg4
I5
sg5
I0
sg6
g18
sg3
I0
sg9
I3
sg10
g11
sg12
I25
sg13
I8
sg14
I328
sg15
I1
sg16
I1
sg17
g22
sg19
I16
sg20
I4
sa(dp364
g8
I750
sg4
I5
sg5
I0
sg6
g7
sg3
I0
sg9
I3
sg10
g11
sg12
I25
sg13
I9
sg14
I329
sg15
I1
sg16
I0
sg17
g22
sg19
I8
sg20
I4
sa(dp365
g8
I500
sg4
I5
sg5
I0
sg6
g7
sg3
I0
sg9
I8
sg10
g11
sg12
I25
sg13
I9
sg14
I330
sg15
I0
sg16
I0
sg17
g18
sg19
I30
sg20
I4
sa(dp366
g8
I250
sg4
I5
sg5
I0
sg6
g18
sg3
I0
sg9
I5
sg10
g11
sg12
I25
sg13
I8
sg14
I331
sg15
I0
sg16
I0
sg17
g85
sg19
I16
sg20
I4
sa(dp367
g8
I500
sg4
I5
sg5
I0
sg6
g7
sg3
I0
sg9
I8
sg10
g11
sg12
I25
sg13
I9
sg14
I332
sg15
I0
sg16
I0
sg17
g18
sg19
I30
sg20
I5
sa(dp368
g8
I700
sg4
I5
sg5
I0
sg6
g88
sg3
I0
sg9
I1
sg10
g89
sg12
I25
sg13
I1
sg14
I333
sg15
I0
sg16
I0
sg17
g88
sg19
I21
sg20
I5
sa(dp369
g8
I300
sg4
I5
sg5
I0
sg6
g91
sg3
I0
sg9
I1
sg10
g89
sg12
I25
sg13
I8
sg14
I334
sg15
I0
sg16
I0
sg17
g88
sg19
I20
sg20
I5
sa(dp370
g8
I35
sg4
I5
sg5
I0
sg6
g91
sg3
I5
sg9
I7
sg10
g89
sg12
I25
sg13
I8
sg14
I335
sg15
I0
sg16
I0
sg17
g93
sg19
I25
sg20
I5
sa(dp371
g8
I400
sg4
I5
sg5
I0
sg6
g7
sg3
I0
sg9
I8
sg10
g11
sg12
I25
sg13
I9
sg14
I336
sg15
I0
sg16
I0
sg17
g18
sg19
I30
sg20
I5
sa(dp372
g8
I300
sg4
I5
sg5
I0
sg6
g91
sg3
I0
sg9
I1
sg10
g89
sg12
I25
sg13
I8
sg14
I337
sg15
I0
sg16
I0
sg17
g88
sg19
I20
sg20
I5
sa(dp373
g8
I35
sg4
I5
sg5
I0
sg6
g91
sg3
I5
sg9
I7
sg10
g89
sg12
I25
sg13
I8
sg14
I338
sg15
I0
sg16
I0
sg17
g93
sg19
I25
sg20
I5
sa(dp374
g8
I400
sg4
I5
sg5
I0
sg6
g7
sg3
I0
sg9
I8
sg10
g11
sg12
I25
sg13
I9
sg14
I339
sg15
I0
sg16
I0
sg17
g18
sg19
I30
sg20
I5
sa(dp375
g8
I4000
sg4
I5
sg5
I0
sg6
g99
sg3
I0
sg9
I6
sg10
g89
sg12
I25
sg13
I9
sg14
I340
sg15
I0
sg16
I0
sg17
g100
sg19
I8
sg20
I5
sa(dp376
g8
I4000
sg4
I5
sg5
I0
sg6
g99
sg3
I0
sg9
I6
sg10
g89
sg12
I25
sg13
I9
sg14
I341
sg15
I0
sg16
I0
sg17
g100
sg19
I8
sg20
I5
sa(dp377
g8
I4000
sg4
I5
sg5
I0
sg6
g99
sg3
I0
sg9
I5
sg10
g89
sg12
I25
sg13
I9
sg14
I342
sg15
I0
sg16
I0
sg17
g103
sg19
I8
sg20
I5
sa(dp378
g8
I4000
sg4
I5
sg5
I0
sg6
g99
sg3
I0
sg9
I5
sg10
g89
sg12
I25
sg13
I9
sg14
I343
sg15
I0
sg16
I0
sg17
g103
sg19
I8
sg20
I5
sa(dp379
g8
I300
sg4
I5
sg5
I0
sg6
g91
sg3
I0
sg9
I5
sg10
g89
sg12
I25
sg13
I8
sg14
I344
sg15
I0
sg16
I0
sg17
g103
sg19
I20
sg20
I5
sa(dp380
g8
I700
sg4
I5
sg5
I0
sg6
g88
sg3
I0
sg9
I7
sg10
g89
sg12
I25
sg13
I1
sg14
I345
sg15
I0
sg16
I0
sg17
g93
sg19
I21
sg20
I5
sa(dp381
g8
I700
sg4
I5
sg5
I0
sg6
g108
sg3
I0
sg9
I2
sg10
g89
sg12
I25
sg13
I2
sg14
I346
sg15
I0
sg16
I0
sg17
g108
sg19
I21
sg20
I5
sa(dp382
g8
I270
sg4
I5
sg5
I0
sg6
g110
sg3
I0
sg9
I2
sg10
g89
sg12
I25
sg13
I4
sg14
I347
sg15
I0
sg16
I0
sg17
g108
sg19
I20
sg20
I5
sa(dp383
g8
I700
sg4
I5
sg5
I0
sg6
g110
sg3
I0
sg9
I7
sg10
g89
sg12
I25
sg13
I4
sg14
I348
sg15
I0
sg16
I0
sg17
g93
sg19
I21
sg20
I5
sa(dp384
g8
I700
sg4
I5
sg5
I0
sg6
g108
sg3
I0
sg9
I7
sg10
g89
sg12
I25
sg13
I2
sg14
I349
sg15
I0
sg16
I0
sg17
g93
sg19
I21
sg20
I5
sa(dp385
g8
I4000
sg4
I5
sg5
I0
sg6
g99
sg3
I0
sg9
I6
sg10
g89
sg12
I25
sg13
I9
sg14
I350
sg15
I0
sg16
I0
sg17
g100
sg19
I8
sg20
I5
sa(dp386
g8
I4000
sg4
I5
sg5
I0
sg6
g99
sg3
I0
sg9
I6
sg10
g89
sg12
I25
sg13
I9
sg14
I351
sg15
I0
sg16
I0
sg17
g100
sg19
I8
sg20
I5
sa(dp387
g8
I4000
sg4
I5
sg5
I0
sg6
g99
sg3
I0
sg9
I5
sg10
g89
sg12
I25
sg13
I9
sg14
I352
sg15
I0
sg16
I0
sg17
g103
sg19
I8
sg20
I5
sa(dp388
g8
I4000
sg4
I5
sg5
I0
sg6
g99
sg3
I0
sg9
I5
sg10
g89
sg12
I25
sg13
I9
sg14
I353
sg15
I0
sg16
I0
sg17
g103
sg19
I8
sg20
I5
sa(dp389
g8
I700
sg4
I5
sg5
I0
sg6
g118
sg3
I0
sg9
I3
sg10
g89
sg12
I25
sg13
I3
sg14
I354
sg15
I0
sg16
I0
sg17
g118
sg19
I21
sg20
I5
sa(dp390
g8
I750
sg4
I5
sg5
I0
sg6
g110
sg3
I0
sg9
I3
sg10
g89
sg12
I25
sg13
I4
sg14
I355
sg15
I0
sg16
I0
sg17
g118
sg19
I20
sg20
I5
sa(dp391
g8
I700
sg4
I5
sg5
I0
sg6
g110
sg3
I0
sg9
I7
sg10
g89
sg12
I25
sg13
I4
sg14
I356
sg15
I0
sg16
I0
sg17
g93
sg19
I21
sg20
I5
sa(dp392
g8
I700
sg4
I5
sg5
I0
sg6
g118
sg3
I0
sg9
I7
sg10
g89
sg12
I25
sg13
I3
sg14
I357
sg15
I0
sg16
I0
sg17
g93
sg19
I21
sg20
I5
sa(dp393
g8
I4500
sg4
I5
sg5
I0
sg6
g110
sg3
I0
sg9
I7
sg10
g89
sg12
I25
sg13
I4
sg14
I358
sg15
I0
sg16
I0
sg17
g93
sg19
I8
sg20
I5
sa(dp394
g8
I500
sg4
I5
sg5
I0
sg6
g7
sg3
I0
sg9
I8
sg10
g11
sg12
I25
sg13
I9
sg14
I359
sg15
I0
sg16
I0
sg17
g18
sg19
I30
sg20
I5
sa(dp395
g8
I700
sg4
I5
sg5
I0
sg6
g110
sg3
I0
sg9
I4
sg10
g89
sg12
I25
sg13
I4
sg14
I360
sg15
I0
sg16
I0
sg17
g110
sg19
I21
sg20
I5
sa(dp396
g8
I300
sg4
I5
sg5
I0
sg6
g91
sg3
I0
sg9
I4
sg10
g89
sg12
I25
sg13
I8
sg14
I361
sg15
I0
sg16
I0
sg17
g110
sg19
I20
sg20
I5
sa(dp397
g8
I35
sg4
I5
sg5
I0
sg6
g91
sg3
I0
sg9
I7
sg10
g89
sg12
I25
sg13
I8
sg14
I362
sg15
I0
sg16
I0
sg17
g93
sg19
I25
sg20
I5
sa(dp398
g8
I700
sg4
I5
sg5
I0
sg6
g110
sg3
I5
sg9
I7
sg10
g89
sg12
I25
sg13
I4
sg14
I363
sg15
I0
sg16
I0
sg17
g93
sg19
I21
sg20
I5
sa(dp399
g8
I400
sg4
I5
sg5
I0
sg6
g7
sg3
I0
sg9
I8
sg10
g11
sg12
I25
sg13
I9
sg14
I364
sg15
I0
sg16
I0
sg17
g18
sg19
I30
sg20
I5
sa(dp400
g8
I700
sg4
I5
sg5
I0
sg6
g110
sg3
I0
sg9
I4
sg10
g89
sg12
I25
sg13
I4
sg14
I365
sg15
I0
sg16
I0
sg17
g110
sg19
I21
sg20
I5
sa(dp401
g8
I300
sg4
I5
sg5
I0
sg6
g91
sg3
I0
sg9
I4
sg10
g89
sg12
I25
sg13
I8
sg14
I366
sg15
I0
sg16
I0
sg17
g110
sg19
I20
sg20
I5
sa(dp402
g8
I35
sg4
I5
sg5
I0
sg6
g91
sg3
I0
sg9
I7
sg10
g89
sg12
I25
sg13
I8
sg14
I367
sg15
I0
sg16
I0
sg17
g93
sg19
I25
sg20
I5
sa(dp403
g8
I700
sg4
I5
sg5
I0
sg6
g110
sg3
I5
sg9
I7
sg10
g89
sg12
I25
sg13
I4
sg14
I368
sg15
I0
sg16
I0
sg17
g93
sg19
I21
sg20
I5
sa(dp404
g8
I400
sg4
I5
sg5
I0
sg6
g7
sg3
I0
sg9
I8
sg10
g11
sg12
I25
sg13
I9
sg14
I369
sg15
I0
sg16
I0
sg17
g18
sg19
I30
sg20
I5
sa(dp405
g8
I2000
sg4
I5
sg5
I0
sg6
g99
sg3
I0
sg9
I4
sg10
g89
sg12
I25
sg13
I9
sg14
I370
sg15
I0
sg16
I0
sg17
g110
sg19
I16
sg20
I5
sa(dp406
g8
I4000
sg4
I5
sg5
I0
sg6
g99
sg3
I0
sg9
I6
sg10
g89
sg12
I25
sg13
I9
sg14
I371
sg15
I0
sg16
I0
sg17
g100
sg19
I8
sg20
I5
sa(dp407
g8
I4000
sg4
I5
sg5
I0
sg6
g99
sg3
I0
sg9
I6
sg10
g89
sg12
I25
sg13
I9
sg14
I372
sg15
I0
sg16
I0
sg17
g100
sg19
I8
sg20
I5
sa(dp408
g8
I4000
sg4
I5
sg5
I0
sg6
g99
sg3
I0
sg9
I5
sg10
g89
sg12
I25
sg13
I9
sg14
I373
sg15
I0
sg16
I0
sg17
g103
sg19
I8
sg20
I5
sa(dp409
g8
I4000
sg4
I5
sg5
I0
sg6
g99
sg3
I0
sg9
I5
sg10
g89
sg12
I25
sg13
I9
sg14
I374
sg15
I0
sg16
I0
sg17
g103
sg19
I8
sg20
I5
sa(dp410
g8
I300
sg4
I5
sg5
I0
sg6
g91
sg3
I0
sg9
I5
sg10
g89
sg12
I25
sg13
I8
sg14
I375
sg15
I0
sg16
I0
sg17
g103
sg19
I20
sg20
I5
sa(dp411
g8
I500
sg4
I5
sg5
I0
sg6
g7
sg3
I0
sg9
I8
sg10
g11
sg12
I25
sg13
I9
sg14
I376
sg15
I0
sg16
I0
sg17
g18
sg19
I30
sg20
I5
sa(dp412
g8
I300
sg4
I5
sg5
I0
sg6
g91
sg3
I0
sg9
I5
sg10
g89
sg12
I25
sg13
I8
sg14
I377
sg15
I0
sg16
I0
sg17
g103
sg19
I20
sg20
I5
sa(dp413
g8
I500
sg4
I5
sg5
I0
sg6
g7
sg3
I0
sg9
I8
sg10
g11
sg12
I25
sg13
I9
sg14
I378
sg15
I0
sg16
I0
sg17
g18
sg19
I30
sg20
I5
sa(dp414
g8
I300
sg4
I5
sg5
I0
sg6
g91
sg3
I0
sg9
I5
sg10
g89
sg12
I25
sg13
I8
sg14
I379
sg15
I0
sg16
I0
sg17
g103
sg19
I20
sg20
I5
sa(dp415
g8
I500
sg4
I5
sg5
I0
sg6
g7
sg3
I0
sg9
I8
sg10
g11
sg12
I25
sg13
I9
sg14
I380
sg15
I0
sg16
I0
sg17
g18
sg19
I30
sg20
I5
sa(dp416
g8
I300
sg4
I5
sg5
I0
sg6
g91
sg3
I0
sg9
I5
sg10
g89
sg12
I25
sg13
I8
sg14
I381
sg15
I0
sg16
I0
sg17
g103
sg19
I20
sg20
I5
sa(dp417
g8
I500
sg4
I5
sg5
I0
sg6
g7
sg3
I0
sg9
I8
sg10
g11
sg12
I25
sg13
I9
sg14
I382
sg15
I0
sg16
I0
sg17
g18
sg19
I30
sg20
I5
sa(dp418
g8
I300
sg4
I5
sg5
I0
sg6
g91
sg3
I0
sg9
I5
sg10
g89
sg12
I25
sg13
I8
sg14
I383
sg15
I0
sg16
I0
sg17
g103
sg19
I20
sg20
I5
sa(dp419
g8
I500
sg4
I5
sg5
I0
sg6
g7
sg3
I0
sg9
I8
sg10
g11
sg12
I25
sg13
I9
sg14
I384
sg15
I0
sg16
I0
sg17
g18
sg19
I30
sg20
I5
sa(dp420
g8
I300
sg4
I5
sg5
I0
sg6
g91
sg3
I0
sg9
I5
sg10
g89
sg12
I25
sg13
I8
sg14
I385
sg15
I0
sg16
I0
sg17
g103
sg19
I20
sg20
I5
sa(dp421
g8
I500
sg4
I5
sg5
I0
sg6
g7
sg3
I0
sg9
I8
sg10
g11
sg12
I25
sg13
I9
sg14
I386
sg15
I0
sg16
I0
sg17
g18
sg19
I30
sg20
I5
sa(dp422
g8
I300
sg4
I5
sg5
I0
sg6
g91
sg3
I0
sg9
I5
sg10
g89
sg12
I25
sg13
I8
sg14
I387
sg15
I0
sg16
I0
sg17
g103
sg19
I20
sg20
I5
sa(dp423
g8
I500
sg4
I5
sg5
I0
sg6
g7
sg3
I0
sg9
I8
sg10
g11
sg12
I25
sg13
I9
sg14
I388
sg15
I0
sg16
I0
sg17
g18
sg19
I30
sg20
I5
sa(dp424
g8
I300
sg4
I5
sg5
I0
sg6
g91
sg3
I0
sg9
I5
sg10
g89
sg12
I25
sg13
I8
sg14
I389
sg15
I0
sg16
I0
sg17
g103
sg19
I20
sg20
I5
sa(dp425
g8
I500
sg4
I5
sg5
I0
sg6
g7
sg3
I0
sg9
I8
sg10
g11
sg12
I25
sg13
I9
sg14
I390
sg15
I0
sg16
I0
sg17
g18
sg19
I30
sg20
I5
sa(dp426
g8
I300
sg4
I5
sg5
I0
sg6
g91
sg3
I0
sg9
I5
sg10
g89
sg12
I25
sg13
I8
sg14
I391
sg15
I0
sg16
I0
sg17
g103
sg19
I20
sg20
I5
sa(dp427
g8
I500
sg4
I5
sg5
I0
sg6
g7
sg3
I0
sg9
I8
sg10
g11
sg12
I25
sg13
I9
sg14
I392
sg15
I0
sg16
I0
sg17
g18
sg19
I30
sg20
I5
sa(dp428
g8
I300
sg4
I5
sg5
I0
sg6
g91
sg3
I0
sg9
I5
sg10
g89
sg12
I25
sg13
I8
sg14
I393
sg15
I0
sg16
I0
sg17
g103
sg19
I20
sg20
I5
sa(dp429
g8
I500
sg4
I5
sg5
I0
sg6
g7
sg3
I0
sg9
I8
sg10
g11
sg12
I25
sg13
I9
sg14
I394
sg15
I0
sg16
I0
sg17
g18
sg19
I30
sg20
I5
sa(dp430
g8
I1000
sg4
I5
sg5
I0
sg6
g7
sg3
I0
sg9
I4
sg10
g11
sg12
I25
sg13
I9
sg14
I395
sg15
I0
sg16
I0
sg17
g160
sg19
I8
sg20
I5
sa(dp431
g8
I1000
sg4
I5
sg5
I0
sg6
g7
sg3
I0
sg9
I4
sg10
g11
sg12
I25
sg13
I9
sg14
I396
sg15
I0
sg16
I0
sg17
g160
sg19
I8
sg20
I5
sa(dp432
g8
I1000
sg4
I5
sg5
I0
sg6
g7
sg3
I0
sg9
I4
sg10
g11
sg12
I25
sg13
I9
sg14
I397
sg15
I0
sg16
I0
sg17
g160
sg19
I8
sg20
I5
sa(dp433
g8
I1000
sg4
I5
sg5
I0
sg6
g7
sg3
I0
sg9
I4
sg10
g11
sg12
I25
sg13
I9
sg14
I398
sg15
I0
sg16
I0
sg17
g160
sg19
I8
sg20
I5
sa(dp434
g8
I1000
sg4
I5
sg5
I0
sg6
g7
sg3
I0
sg9
I3
sg10
g11
sg12
I25
sg13
I9
sg14
I399
sg15
I0
sg16
I0
sg17
g22
sg19
I8
sg20
I5
sa(dp435
g8
I1000
sg4
I5
sg5
I0
sg6
g7
sg3
I0
sg9
I3
sg10
g11
sg12
I25
sg13
I9
sg14
I400
sg15
I0
sg16
I0
sg17
g22
sg19
I8
sg20
I5
sa(dp436
g8
I1000
sg4
I5
sg5
I0
sg6
g7
sg3
I0
sg9
I3
sg10
g11
sg12
I25
sg13
I9
sg14
I401
sg15
I0
sg16
I0
sg17
g22
sg19
I8
sg20
I5
sa(dp437
g8
I1000
sg4
I5
sg5
I0
sg6
g7
sg3
I0
sg9
I3
sg10
g11
sg12
I25
sg13
I9
sg14
I402
sg15
I0
sg16
I0
sg17
g22
sg19
I8
sg20
I5
sa(dp438
g8
I1000
sg4
I5
sg5
I0
sg6
g7
sg3
I0
sg9
I3
sg10
g11
sg12
I25
sg13
I9
sg14
I403
sg15
I0
sg16
I0
sg17
g22
sg19
I8
sg20
I5
sa(dp439
g8
I300
sg4
I5
sg5
I0
sg6
g91
sg3
I0
sg9
I5
sg10
g89
sg12
I25
sg13
I8
sg14
I404
sg15
I0
sg16
I0
sg17
g103
sg19
I20
sg20
I5
sa(dp440
g8
I1000
sg4
I5
sg5
I0
sg6
g7
sg3
I0
sg9
I8
sg10
g11
sg12
I25
sg13
I9
sg14
I405
sg15
I0
sg16
I0
sg17
g18
sg19
I30
sg20
I6
sa(dp441
g8
I1000
sg4
I5
sg5
I0
sg6
g7
sg3
I0
sg9
I3
sg10
g11
sg12
I25
sg13
I9
sg14
I406
sg15
I0
sg16
I0
sg17
g22
sg19
I8
sg20
I6
sa(dp442
g8
I250
sg4
I5
sg5
I0
sg6
g18
sg3
I0
sg9
I2
sg10
g11
sg12
I25
sg13
I8
sg14
I407
sg15
I0
sg16
I0
sg17
g24
sg19
I16
sg20
I6
sa(dp443
g8
I35
sg4
I5
sg5
I0
sg6
g18
sg3
I0
sg9
I7
sg10
g11
sg12
I25
sg13
I8
sg14
I408
sg15
I0
sg16
I0
sg17
g26
sg19
I25
sg20
I6
sa(dp444
g8
I1000
sg4
I5
sg5
I0
sg6
g7
sg3
I0
sg9
I3
sg10
g11
sg12
I25
sg13
I9
sg14
I409
sg15
I0
sg16
I0
sg17
g22
sg19
I8
sg20
I6
sa(dp445
g8
I1000
sg4
I5
sg5
I0
sg6
g7
sg3
I0
sg9
I3
sg10
g11
sg12
I25
sg13
I9
sg14
I410
sg15
I0
sg16
I0
sg17
g22
sg19
I8
sg20
I6
sa(dp446
g8
I1000
sg4
I5
sg5
I0
sg6
g7
sg3
I0
sg9
I3
sg10
g11
sg12
I25
sg13
I9
sg14
I411
sg15
I0
sg16
I0
sg17
g22
sg19
I8
sg20
I6
sa(dp447
g8
I1000
sg4
I5
sg5
I0
sg6
g7
sg3
I0
sg9
I3
sg10
g11
sg12
I25
sg13
I9
sg14
I412
sg15
I0
sg16
I0
sg17
g22
sg19
I8
sg20
I6
sa(dp448
g8
I1000
sg4
I5
sg5
I0
sg6
g7
sg3
I45
sg9
I3
sg10
g11
sg12
I25
sg13
I9
sg14
I413
sg15
I0
sg16
I0
sg17
g22
sg19
I8
sg20
I6
sa(dp449
g8
I350
sg4
I5
sg5
I0
sg6
g7
sg3
I0
sg9
I8
sg10
g11
sg12
I25
sg13
I9
sg14
I414
sg15
I0
sg16
I0
sg17
g18
sg19
I30
sg20
I6
sa(dp450
g8
I1000
sg4
I5
sg5
I0
sg6
g7
sg3
I0
sg9
I3
sg10
g11
sg12
I25
sg13
I9
sg14
I415
sg15
I0
sg16
I0
sg17
g22
sg19
I8
sg20
I6
sa(dp451
g8
I1000
sg4
I5
sg5
I0
sg6
g7
sg3
I0
sg9
I3
sg10
g11
sg12
I25
sg13
I9
sg14
I416
sg15
I0
sg16
I0
sg17
g22
sg19
I8
sg20
I6
sa(dp452
g8
I1000
sg4
I5
sg5
I0
sg6
g7
sg3
I0
sg9
I3
sg10
g11
sg12
I25
sg13
I9
sg14
I417
sg15
I0
sg16
I0
sg17
g22
sg19
I8
sg20
I6
sa(dp453
g8
I1000
sg4
I5
sg5
I0
sg6
g7
sg3
I0
sg9
I3
sg10
g11
sg12
I25
sg13
I9
sg14
I418
sg15
I0
sg16
I0
sg17
g22
sg19
I8
sg20
I6
sa(dp454
g8
I250
sg4
I5
sg5
I0
sg6
g18
sg3
I0
sg9
I3
sg10
g11
sg12
I25
sg13
I8
sg14
I419
sg15
I1
sg16
I1
sg17
g22
sg19
I16
sg20
I6
sa(dp455
g8
I1000
sg4
I5
sg5
I0
sg6
g7
sg3
I0
sg9
I3
sg10
g11
sg12
I25
sg13
I9
sg14
I420
sg15
I1
sg16
I1
sg17
g22
sg19
I8
sg20
I6
sa(dp456
g8
I250
sg4
I5
sg5
I0
sg6
g18
sg3
I0
sg9
I3
sg10
g11
sg12
I25
sg13
I8
sg14
I421
sg15
I1
sg16
I1
sg17
g22
sg19
I16
sg20
I6
sa(dp457
g8
I1000
sg4
I5
sg5
I0
sg6
g7
sg3
I0
sg9
I3
sg10
g11
sg12
I25
sg13
I9
sg14
I422
sg15
I1
sg16
I1
sg17
g22
sg19
I8
sg20
I6
sa(dp458
g8
I250
sg4
I5
sg5
I0
sg6
g18
sg3
I0
sg9
I3
sg10
g11
sg12
I25
sg13
I8
sg14
I423
sg15
I1
sg16
I1
sg17
g22
sg19
I16
sg20
I6
sa(dp459
g8
I1000
sg4
I5
sg5
I0
sg6
g7
sg3
I0
sg9
I3
sg10
g11
sg12
I25
sg13
I9
sg14
I424
sg15
I1
sg16
I1
sg17
g22
sg19
I8
sg20
I6
sa(dp460
g8
I250
sg4
I5
sg5
I0
sg6
g18
sg3
I0
sg9
I3
sg10
g11
sg12
I25
sg13
I8
sg14
I425
sg15
I1
sg16
I1
sg17
g22
sg19
I16
sg20
I6
sa(dp461
g8
I750
sg4
I5
sg5
I0
sg6
g7
sg3
I0
sg9
I3
sg10
g11
sg12
I25
sg13
I9
sg14
I426
sg15
I1
sg16
I0
sg17
g22
sg19
I8
sg20
I6
sa(dp462
g8
I250
sg4
I5
sg5
I0
sg6
g18
sg3
I0
sg9
I3
sg10
g11
sg12
I25
sg13
I8
sg14
I427
sg15
I1
sg16
I1
sg17
g22
sg19
I16
sg20
I6
sa(dp463
g8
I750
sg4
I5
sg5
I0
sg6
g7
sg3
I0
sg9
I3
sg10
g11
sg12
I25
sg13
I9
sg14
I428
sg15
I1
sg16
I0
sg17
g22
sg19
I8
sg20
I6
sa(dp464
g8
I250
sg4
I5
sg5
I0
sg6
g18
sg3
I0
sg9
I3
sg10
g11
sg12
I25
sg13
I8
sg14
I429
sg15
I1
sg16
I1
sg17
g22
sg19
I16
sg20
I6
sa(dp465
g8
I750
sg4
I5
sg5
I0
sg6
g7
sg3
I0
sg9
I3
sg10
g11
sg12
I25
sg13
I9
sg14
I430
sg15
I1
sg16
I0
sg17
g22
sg19
I8
sg20
I6
sa(dp466
g8
I250
sg4
I5
sg5
I0
sg6
g18
sg3
I0
sg9
I3
sg10
g11
sg12
I25
sg13
I8
sg14
I431
sg15
I1
sg16
I1
sg17
g22
sg19
I16
sg20
I6
sa(dp467
g8
I750
sg4
I5
sg5
I0
sg6
g7
sg3
I0
sg9
I3
sg10
g11
sg12
I25
sg13
I9
sg14
I432
sg15
I1
sg16
I0
sg17
g22
sg19
I8
sg20
I6
sa(dp468
g8
I250
sg4
I5
sg5
I0
sg6
g18
sg3
I0
sg9
I3
sg10
g11
sg12
I25
sg13
I8
sg14
I433
sg15
I1
sg16
I1
sg17
g22
sg19
I16
sg20
I6
sa(dp469
g8
I750
sg4
I5
sg5
I0
sg6
g7
sg3
I0
sg9
I3
sg10
g11
sg12
I25
sg13
I9
sg14
I434
sg15
I1
sg16
I0
sg17
g22
sg19
I8
sg20
I6
sa(dp470
g8
I250
sg4
I5
sg5
I0
sg6
g18
sg3
I0
sg9
I3
sg10
g11
sg12
I25
sg13
I8
sg14
I435
sg15
I1
sg16
I1
sg17
g22
sg19
I16
sg20
I6
sa(dp471
g8
I750
sg4
I5
sg5
I0
sg6
g7
sg3
I0
sg9
I3
sg10
g11
sg12
I25
sg13
I9
sg14
I436
sg15
I1
sg16
I0
sg17
g22
sg19
I8
sg20
I6
sa(dp472
g8
I250
sg4
I5
sg5
I0
sg6
g18
sg3
I0
sg9
I3
sg10
g11
sg12
I25
sg13
I8
sg14
I437
sg15
I1
sg16
I1
sg17
g22
sg19
I16
sg20
I6
sa(dp473
g8
I750
sg4
I5
sg5
I0
sg6
g7
sg3
I0
sg9
I3
sg10
g11
sg12
I25
sg13
I9
sg14
I438
sg15
I1
sg16
I0
sg17
g22
sg19
I8
sg20
I6
sa(dp474
g8
I250
sg4
I5
sg5
I0
sg6
g18
sg3
I0
sg9
I3
sg10
g11
sg12
I25
sg13
I8
sg14
I439
sg15
I1
sg16
I1
sg17
g22
sg19
I16
sg20
I6
sa(dp475
g8
I750
sg4
I5
sg5
I0
sg6
g7
sg3
I0
sg9
I3
sg10
g11
sg12
I25
sg13
I9
sg14
I440
sg15
I1
sg16
I0
sg17
g22
sg19
I8
sg20
I6
sa(dp476
g8
I250
sg4
I5
sg5
I0
sg6
g18
sg3
I0
sg9
I3
sg10
g11
sg12
I25
sg13
I8
sg14
I441
sg15
I1
sg16
I1
sg17
g22
sg19
I16
sg20
I6
sa(dp477
g8
I750
sg4
I5
sg5
I0
sg6
g7
sg3
I0
sg9
I3
sg10
g11
sg12
I25
sg13
I9
sg14
I442
sg15
I1
sg16
I0
sg17
g22
sg19
I8
sg20
I6
sa(dp478
g8
I250
sg4
I5
sg5
I0
sg6
g18
sg3
I0
sg9
I3
sg10
g11
sg12
I25
sg13
I8
sg14
I443
sg15
I1
sg16
I1
sg17
g22
sg19
I16
sg20
I6
sa(dp479
g8
I750
sg4
I5
sg5
I0
sg6
g7
sg3
I0
sg9
I3
sg10
g11
sg12
I25
sg13
I9
sg14
I444
sg15
I1
sg16
I0
sg17
g22
sg19
I8
sg20
I6
sa(dp480
g8
I250
sg4
I5
sg5
I0
sg6
g18
sg3
I0
sg9
I3
sg10
g11
sg12
I25
sg13
I8
sg14
I445
sg15
I1
sg16
I1
sg17
g22
sg19
I16
sg20
I6
sa(dp481
g8
I750
sg4
I5
sg5
I0
sg6
g7
sg3
I0
sg9
I3
sg10
g11
sg12
I25
sg13
I9
sg14
I446
sg15
I1
sg16
I0
sg17
g22
sg19
I8
sg20
I6
sa(dp482
g8
I250
sg4
I5
sg5
I0
sg6
g18
sg3
I0
sg9
I3
sg10
g11
sg12
I25
sg13
I8
sg14
I447
sg15
I1
sg16
I1
sg17
g22
sg19
I16
sg20
I6
sa(dp483
g8
I750
sg4
I5
sg5
I0
sg6
g7
sg3
I0
sg9
I3
sg10
g11
sg12
I25
sg13
I9
sg14
I448
sg15
I1
sg16
I0
sg17
g22
sg19
I8
sg20
I6
sa(dp484
g8
I250
sg4
I5
sg5
I0
sg6
g18
sg3
I0
sg9
I3
sg10
g11
sg12
I25
sg13
I8
sg14
I449
sg15
I1
sg16
I1
sg17
g22
sg19
I16
sg20
I6
sa(dp485
g8
I750
sg4
I5
sg5
I0
sg6
g7
sg3
I0
sg9
I3
sg10
g11
sg12
I25
sg13
I9
sg14
I450
sg15
I1
sg16
I0
sg17
g22
sg19
I8
sg20
I6
sa(dp486
g8
I250
sg4
I5
sg5
I0
sg6
g18
sg3
I0
sg9
I3
sg10
g11
sg12
I25
sg13
I8
sg14
I451
sg15
I1
sg16
I1
sg17
g22
sg19
I16
sg20
I6
sa(dp487
g8
I750
sg4
I5
sg5
I0
sg6
g7
sg3
I0
sg9
I3
sg10
g11
sg12
I25
sg13
I9
sg14
I452
sg15
I1
sg16
I0
sg17
g22
sg19
I8
sg20
I6
sa(dp488
g8
I250
sg4
I5
sg5
I0
sg6
g18
sg3
I0
sg9
I3
sg10
g11
sg12
I25
sg13
I8
sg14
I453
sg15
I1
sg16
I1
sg17
g22
sg19
I16
sg20
I6
sa(dp489
g8
I750
sg4
I5
sg5
I0
sg6
g7
sg3
I0
sg9
I3
sg10
g11
sg12
I25
sg13
I9
sg14
I454
sg15
I1
sg16
I0
sg17
g22
sg19
I8
sg20
I6
sa(dp490
g8
I250
sg4
I5
sg5
I0
sg6
g18
sg3
I0
sg9
I3
sg10
g11
sg12
I25
sg13
I8
sg14
I455
sg15
I1
sg16
I1
sg17
g22
sg19
I16
sg20
I6
sa(dp491
g8
I750
sg4
I5
sg5
I0
sg6
g7
sg3
I0
sg9
I3
sg10
g11
sg12
I25
sg13
I9
sg14
I456
sg15
I1
sg16
I0
sg17
g22
sg19
I8
sg20
I6
sa(dp492
g8
I250
sg4
I5
sg5
I0
sg6
g18
sg3
I0
sg9
I3
sg10
g11
sg12
I25
sg13
I8
sg14
I457
sg15
I1
sg16
I1
sg17
g22
sg19
I16
sg20
I6
sa(dp493
g8
I750
sg4
I5
sg5
I0
sg6
g7
sg3
I0
sg9
I3
sg10
g11
sg12
I25
sg13
I9
sg14
I458
sg15
I1
sg16
I0
sg17
g22
sg19
I8
sg20
I6
sa(dp494
g8
I250
sg4
I5
sg5
I0
sg6
g18
sg3
I0
sg9
I3
sg10
g11
sg12
I25
sg13
I8
sg14
I459
sg15
I1
sg16
I1
sg17
g22
sg19
I16
sg20
I6
sa(dp495
g8
I750
sg4
I5
sg5
I0
sg6
g7
sg3
I0
sg9
I3
sg10
g11
sg12
I25
sg13
I9
sg14
I460
sg15
I1
sg16
I0
sg17
g22
sg19
I8
sg20
I6
sa(dp496
g8
I250
sg4
I5
sg5
I0
sg6
g18
sg3
I0
sg9
I3
sg10
g11
sg12
I25
sg13
I8
sg14
I461
sg15
I1
sg16
I1
sg17
g22
sg19
I16
sg20
I6
sa(dp497
g8
I750
sg4
I5
sg5
I0
sg6
g7
sg3
I0
sg9
I3
sg10
g11
sg12
I25
sg13
I9
sg14
I462
sg15
I1
sg16
I0
sg17
g22
sg19
I8
sg20
I6
sa(dp498
g8
I250
sg4
I5
sg5
I0
sg6
g18
sg3
I0
sg9
I3
sg10
g11
sg12
I25
sg13
I8
sg14
I463
sg15
I1
sg16
I1
sg17
g22
sg19
I16
sg20
I6
sa(dp499
g8
I750
sg4
I5
sg5
I0
sg6
g7
sg3
I0
sg9
I3
sg10
g11
sg12
I25
sg13
I9
sg14
I464
sg15
I1
sg16
I0
sg17
g22
sg19
I8
sg20
I6
sa(dp500
g8
I500
sg4
I5
sg5
I0
sg6
g7
sg3
I0
sg9
I8
sg10
g11
sg12
I25
sg13
I9
sg14
I465
sg15
I0
sg16
I0
sg17
g18
sg19
I30
sg20
I6
sa(dp501
g8
I250
sg4
I5
sg5
I0
sg6
g18
sg3
I0
sg9
I5
sg10
g11
sg12
I25
sg13
I8
sg14
I466
sg15
I0
sg16
I0
sg17
g85
sg19
I16
sg20
I6
sa(dp502
g8
I500
sg4
I5
sg5
I0
sg6
g7
sg3
I0
sg9
I8
sg10
g11
sg12
I25
sg13
I9
sg14
I467
sg15
I0
sg16
I0
sg17
g18
sg19
I30
sg20
I7
sa(dp503
g8
I700
sg4
I5
sg5
I0
sg6
g88
sg3
I0
sg9
I1
sg10
g89
sg12
I25
sg13
I1
sg14
I468
sg15
I0
sg16
I0
sg17
g88
sg19
I21
sg20
I7
sa(dp504
g8
I300
sg4
I5
sg5
I0
sg6
g91
sg3
I0
sg9
I1
sg10
g89
sg12
I25
sg13
I8
sg14
I469
sg15
I0
sg16
I0
sg17
g88
sg19
I20
sg20
I7
sa(dp505
g8
I35
sg4
I5
sg5
I0
sg6
g91
sg3
I5
sg9
I7
sg10
g89
sg12
I25
sg13
I8
sg14
I470
sg15
I0
sg16
I0
sg17
g93
sg19
I25
sg20
I7
sa(dp506
g8
I400
sg4
I5
sg5
I0
sg6
g7
sg3
I0
sg9
I8
sg10
g11
sg12
I25
sg13
I9
sg14
I471
sg15
I0
sg16
I0
sg17
g18
sg19
I30
sg20
I7
sa(dp507
g8
I300
sg4
I5
sg5
I0
sg6
g91
sg3
I0
sg9
I1
sg10
g89
sg12
I25
sg13
I8
sg14
I472
sg15
I0
sg16
I0
sg17
g88
sg19
I20
sg20
I7
sa(dp508
g8
I35
sg4
I5
sg5
I0
sg6
g91
sg3
I5
sg9
I7
sg10
g89
sg12
I25
sg13
I8
sg14
I473
sg15
I0
sg16
I0
sg17
g93
sg19
I25
sg20
I7
sa(dp509
g8
I400
sg4
I5
sg5
I0
sg6
g7
sg3
I0
sg9
I8
sg10
g11
sg12
I25
sg13
I9
sg14
I474
sg15
I0
sg16
I0
sg17
g18
sg19
I30
sg20
I7
sa(dp510
g8
I4000
sg4
I5
sg5
I0
sg6
g99
sg3
I0
sg9
I6
sg10
g89
sg12
I25
sg13
I9
sg14
I475
sg15
I0
sg16
I0
sg17
g100
sg19
I8
sg20
I7
sa(dp511
g8
I4000
sg4
I5
sg5
I0
sg6
g99
sg3
I0
sg9
I6
sg10
g89
sg12
I25
sg13
I9
sg14
I476
sg15
I0
sg16
I0
sg17
g100
sg19
I8
sg20
I7
sa(dp512
g8
I4000
sg4
I5
sg5
I0
sg6
g99
sg3
I0
sg9
I5
sg10
g89
sg12
I25
sg13
I9
sg14
I477
sg15
I0
sg16
I0
sg17
g103
sg19
I8
sg20
I7
sa(dp513
g8
I4000
sg4
I5
sg5
I0
sg6
g99
sg3
I0
sg9
I5
sg10
g89
sg12
I25
sg13
I9
sg14
I478
sg15
I0
sg16
I0
sg17
g103
sg19
I8
sg20
I7
sa(dp514
g8
I300
sg4
I5
sg5
I0
sg6
g91
sg3
I0
sg9
I5
sg10
g89
sg12
I25
sg13
I8
sg14
I479
sg15
I0
sg16
I0
sg17
g103
sg19
I20
sg20
I7
sa(dp515
g8
I700
sg4
I5
sg5
I0
sg6
g88
sg3
I0
sg9
I7
sg10
g89
sg12
I25
sg13
I1
sg14
I480
sg15
I0
sg16
I0
sg17
g93
sg19
I21
sg20
I7
sa(dp516
g8
I700
sg4
I5
sg5
I0
sg6
g108
sg3
I0
sg9
I2
sg10
g89
sg12
I25
sg13
I2
sg14
I481
sg15
I0
sg16
I0
sg17
g108
sg19
I21
sg20
I7
sa(dp517
g8
I270
sg4
I5
sg5
I0
sg6
g110
sg3
I0
sg9
I2
sg10
g89
sg12
I25
sg13
I4
sg14
I482
sg15
I0
sg16
I0
sg17
g108
sg19
I20
sg20
I7
sa(dp518
g8
I700
sg4
I5
sg5
I0
sg6
g110
sg3
I0
sg9
I7
sg10
g89
sg12
I25
sg13
I4
sg14
I483
sg15
I0
sg16
I0
sg17
g93
sg19
I21
sg20
I7
sa(dp519
g8
I700
sg4
I5
sg5
I0
sg6
g108
sg3
I0
sg9
I7
sg10
g89
sg12
I25
sg13
I2
sg14
I484
sg15
I0
sg16
I0
sg17
g93
sg19
I21
sg20
I7
sa(dp520
g8
I4000
sg4
I5
sg5
I0
sg6
g99
sg3
I0
sg9
I6
sg10
g89
sg12
I25
sg13
I9
sg14
I485
sg15
I0
sg16
I0
sg17
g100
sg19
I8
sg20
I7
sa(dp521
g8
I4000
sg4
I5
sg5
I0
sg6
g99
sg3
I0
sg9
I6
sg10
g89
sg12
I25
sg13
I9
sg14
I486
sg15
I0
sg16
I0
sg17
g100
sg19
I8
sg20
I7
sa(dp522
g8
I4000
sg4
I5
sg5
I0
sg6
g99
sg3
I0
sg9
I5
sg10
g89
sg12
I25
sg13
I9
sg14
I487
sg15
I0
sg16
I0
sg17
g103
sg19
I8
sg20
I7
sa(dp523
g8
I4000
sg4
I5
sg5
I0
sg6
g99
sg3
I0
sg9
I5
sg10
g89
sg12
I25
sg13
I9
sg14
I488
sg15
I0
sg16
I0
sg17
g103
sg19
I8
sg20
I7
sa(dp524
g8
I700
sg4
I5
sg5
I0
sg6
g118
sg3
I0
sg9
I3
sg10
g89
sg12
I25
sg13
I3
sg14
I489
sg15
I0
sg16
I0
sg17
g118
sg19
I21
sg20
I7
sa(dp525
g8
I750
sg4
I5
sg5
I0
sg6
g110
sg3
I0
sg9
I3
sg10
g89
sg12
I25
sg13
I4
sg14
I490
sg15
I0
sg16
I0
sg17
g118
sg19
I20
sg20
I7
sa(dp526
g8
I700
sg4
I5
sg5
I0
sg6
g110
sg3
I0
sg9
I7
sg10
g89
sg12
I25
sg13
I4
sg14
I491
sg15
I0
sg16
I0
sg17
g93
sg19
I21
sg20
I7
sa(dp527
g8
I700
sg4
I5
sg5
I0
sg6
g118
sg3
I0
sg9
I7
sg10
g89
sg12
I25
sg13
I3
sg14
I492
sg15
I0
sg16
I0
sg17
g93
sg19
I21
sg20
I7
sa(dp528
g8
I4500
sg4
I5
sg5
I0
sg6
g110
sg3
I0
sg9
I7
sg10
g89
sg12
I25
sg13
I4
sg14
I493
sg15
I0
sg16
I0
sg17
g93
sg19
I8
sg20
I7
sa(dp529
g8
I500
sg4
I5
sg5
I0
sg6
g7
sg3
I0
sg9
I8
sg10
g11
sg12
I25
sg13
I9
sg14
I494
sg15
I0
sg16
I0
sg17
g18
sg19
I30
sg20
I7
sa(dp530
g8
I700
sg4
I5
sg5
I0
sg6
g110
sg3
I0
sg9
I4
sg10
g89
sg12
I25
sg13
I4
sg14
I495
sg15
I0
sg16
I0
sg17
g110
sg19
I21
sg20
I7
sa(dp531
g8
I300
sg4
I5
sg5
I0
sg6
g91
sg3
I0
sg9
I4
sg10
g89
sg12
I25
sg13
I8
sg14
I496
sg15
I0
sg16
I0
sg17
g110
sg19
I20
sg20
I7
sa(dp532
g8
I35
sg4
I5
sg5
I0
sg6
g91
sg3
I0
sg9
I7
sg10
g89
sg12
I25
sg13
I8
sg14
I497
sg15
I0
sg16
I0
sg17
g93
sg19
I25
sg20
I7
sa(dp533
g8
I700
sg4
I5
sg5
I0
sg6
g110
sg3
I5
sg9
I7
sg10
g89
sg12
I25
sg13
I4
sg14
I498
sg15
I0
sg16
I0
sg17
g93
sg19
I21
sg20
I7
sa(dp534
g8
I400
sg4
I5
sg5
I0
sg6
g7
sg3
I0
sg9
I8
sg10
g11
sg12
I25
sg13
I9
sg14
I499
sg15
I0
sg16
I0
sg17
g18
sg19
I30
sg20
I7
sa(dp535
g8
I700
sg4
I5
sg5
I0
sg6
g110
sg3
I0
sg9
I4
sg10
g89
sg12
I25
sg13
I4
sg14
I500
sg15
I0
sg16
I0
sg17
g110
sg19
I21
sg20
I7
sa(dp536
g8
I300
sg4
I5
sg5
I0
sg6
g91
sg3
I0
sg9
I4
sg10
g89
sg12
I25
sg13
I8
sg14
I501
sg15
I0
sg16
I0
sg17
g110
sg19
I20
sg20
I7
sa(dp537
g8
I35
sg4
I5
sg5
I0
sg6
g91
sg3
I0
sg9
I7
sg10
g89
sg12
I25
sg13
I8
sg14
I502
sg15
I0
sg16
I0
sg17
g93
sg19
I25
sg20
I7
sa(dp538
g8
I700
sg4
I5
sg5
I0
sg6
g110
sg3
I5
sg9
I7
sg10
g89
sg12
I25
sg13
I4
sg14
I503
sg15
I0
sg16
I0
sg17
g93
sg19
I21
sg20
I7
sa(dp539
g8
I400
sg4
I5
sg5
I0
sg6
g7
sg3
I0
sg9
I8
sg10
g11
sg12
I25
sg13
I9
sg14
I504
sg15
I0
sg16
I0
sg17
g18
sg19
I30
sg20
I7
sa(dp540
g8
I2000
sg4
I5
sg5
I0
sg6
g99
sg3
I0
sg9
I4
sg10
g89
sg12
I25
sg13
I9
sg14
I505
sg15
I0
sg16
I0
sg17
g110
sg19
I16
sg20
I7
sa(dp541
g8
I4000
sg4
I5
sg5
I0
sg6
g99
sg3
I0
sg9
I6
sg10
g89
sg12
I25
sg13
I9
sg14
I506
sg15
I0
sg16
I0
sg17
g100
sg19
I8
sg20
I7
sa(dp542
g8
I4000
sg4
I5
sg5
I0
sg6
g99
sg3
I0
sg9
I6
sg10
g89
sg12
I25
sg13
I9
sg14
I507
sg15
I0
sg16
I0
sg17
g100
sg19
I8
sg20
I7
sa(dp543
g8
I4000
sg4
I5
sg5
I0
sg6
g99
sg3
I0
sg9
I5
sg10
g89
sg12
I25
sg13
I9
sg14
I508
sg15
I0
sg16
I0
sg17
g103
sg19
I8
sg20
I7
sa(dp544
g8
I4000
sg4
I5
sg5
I0
sg6
g99
sg3
I0
sg9
I5
sg10
g89
sg12
I25
sg13
I9
sg14
I509
sg15
I0
sg16
I0
sg17
g103
sg19
I8
sg20
I7
sa(dp545
g8
I300
sg4
I5
sg5
I0
sg6
g91
sg3
I0
sg9
I5
sg10
g89
sg12
I25
sg13
I8
sg14
I510
sg15
I0
sg16
I0
sg17
g103
sg19
I20
sg20
I7
sa(dp546
g8
I500
sg4
I5
sg5
I0
sg6
g7
sg3
I0
sg9
I8
sg10
g11
sg12
I25
sg13
I9
sg14
I511
sg15
I0
sg16
I0
sg17
g18
sg19
I30
sg20
I7
sa(dp547
g8
I300
sg4
I5
sg5
I0
sg6
g91
sg3
I0
sg9
I5
sg10
g89
sg12
I25
sg13
I8
sg14
I512
sg15
I0
sg16
I0
sg17
g103
sg19
I20
sg20
I7
sa(dp548
g8
I500
sg4
I5
sg5
I0
sg6
g7
sg3
I0
sg9
I8
sg10
g11
sg12
I25
sg13
I9
sg14
I513
sg15
I0
sg16
I0
sg17
g18
sg19
I30
sg20
I7
sa(dp549
g8
I300
sg4
I5
sg5
I0
sg6
g91
sg3
I0
sg9
I5
sg10
g89
sg12
I25
sg13
I8
sg14
I514
sg15
I0
sg16
I0
sg17
g103
sg19
I20
sg20
I7
sa(dp550
g8
I500
sg4
I5
sg5
I0
sg6
g7
sg3
I0
sg9
I8
sg10
g11
sg12
I25
sg13
I9
sg14
I515
sg15
I0
sg16
I0
sg17
g18
sg19
I30
sg20
I7
sa(dp551
g8
I300
sg4
I5
sg5
I0
sg6
g91
sg3
I0
sg9
I5
sg10
g89
sg12
I25
sg13
I8
sg14
I516
sg15
I0
sg16
I0
sg17
g103
sg19
I20
sg20
I7
sa(dp552
g8
I500
sg4
I5
sg5
I0
sg6
g7
sg3
I0
sg9
I8
sg10
g11
sg12
I25
sg13
I9
sg14
I517
sg15
I0
sg16
I0
sg17
g18
sg19
I30
sg20
I7
sa(dp553
g8
I300
sg4
I5
sg5
I0
sg6
g91
sg3
I0
sg9
I5
sg10
g89
sg12
I25
sg13
I8
sg14
I518
sg15
I0
sg16
I0
sg17
g103
sg19
I20
sg20
I7
sa(dp554
g8
I500
sg4
I5
sg5
I0
sg6
g7
sg3
I0
sg9
I8
sg10
g11
sg12
I25
sg13
I9
sg14
I519
sg15
I0
sg16
I0
sg17
g18
sg19
I30
sg20
I7
sa(dp555
g8
I300
sg4
I5
sg5
I0
sg6
g91
sg3
I0
sg9
I5
sg10
g89
sg12
I25
sg13
I8
sg14
I520
sg15
I0
sg16
I0
sg17
g103
sg19
I20
sg20
I7
sa(dp556
g8
I500
sg4
I5
sg5
I0
sg6
g7
sg3
I0
sg9
I8
sg10
g11
sg12
I25
sg13
I9
sg14
I521
sg15
I0
sg16
I0
sg17
g18
sg19
I30
sg20
I7
sa(dp557
g8
I300
sg4
I5
sg5
I0
sg6
g91
sg3
I0
sg9
I5
sg10
g89
sg12
I25
sg13
I8
sg14
I522
sg15
I0
sg16
I0
sg17
g103
sg19
I20
sg20
I7
sa(dp558
g8
I500
sg4
I5
sg5
I0
sg6
g7
sg3
I0
sg9
I8
sg10
g11
sg12
I25
sg13
I9
sg14
I523
sg15
I0
sg16
I0
sg17
g18
sg19
I30
sg20
I7
sa(dp559
g8
I300
sg4
I5
sg5
I0
sg6
g91
sg3
I0
sg9
I5
sg10
g89
sg12
I25
sg13
I8
sg14
I524
sg15
I0
sg16
I0
sg17
g103
sg19
I20
sg20
I7
sa(dp560
g8
I500
sg4
I5
sg5
I0
sg6
g7
sg3
I0
sg9
I8
sg10
g11
sg12
I25
sg13
I9
sg14
I525
sg15
I0
sg16
I0
sg17
g18
sg19
I30
sg20
I7
sa(dp561
g8
I300
sg4
I5
sg5
I0
sg6
g91
sg3
I0
sg9
I5
sg10
g89
sg12
I25
sg13
I8
sg14
I526
sg15
I0
sg16
I0
sg17
g103
sg19
I20
sg20
I7
sa(dp562
g8
I500
sg4
I5
sg5
I0
sg6
g7
sg3
I0
sg9
I8
sg10
g11
sg12
I25
sg13
I9
sg14
I527
sg15
I0
sg16
I0
sg17
g18
sg19
I30
sg20
I7
sa(dp563
g8
I300
sg4
I5
sg5
I0
sg6
g91
sg3
I0
sg9
I5
sg10
g89
sg12
I25
sg13
I8
sg14
I528
sg15
I0
sg16
I0
sg17
g103
sg19
I20
sg20
I7
sa(dp564
g8
I500
sg4
I5
sg5
I0
sg6
g7
sg3
I0
sg9
I8
sg10
g11
sg12
I25
sg13
I9
sg14
I529
sg15
I0
sg16
I0
sg17
g18
sg19
I30
sg20
I7
sa(dp565
g8
I1000
sg4
I5
sg5
I0
sg6
g7
sg3
I0
sg9
I4
sg10
g11
sg12
I25
sg13
I9
sg14
I530
sg15
I0
sg16
I0
sg17
g160
sg19
I8
sg20
I7
sa(dp566
g8
I1000
sg4
I5
sg5
I0
sg6
g7
sg3
I0
sg9
I4
sg10
g11
sg12
I25
sg13
I9
sg14
I531
sg15
I0
sg16
I0
sg17
g160
sg19
I8
sg20
I7
sa(dp567
g8
I1000
sg4
I5
sg5
I0
sg6
g7
sg3
I0
sg9
I4
sg10
g11
sg12
I25
sg13
I9
sg14
I532
sg15
I0
sg16
I0
sg17
g160
sg19
I8
sg20
I7
sa(dp568
g8
I1000
sg4
I5
sg5
I0
sg6
g7
sg3
I0
sg9
I4
sg10
g11
sg12
I25
sg13
I9
sg14
I533
sg15
I0
sg16
I0
sg17
g160
sg19
I8
sg20
I7
sa(dp569
g8
I1000
sg4
I5
sg5
I0
sg6
g7
sg3
I0
sg9
I3
sg10
g11
sg12
I25
sg13
I9
sg14
I534
sg15
I0
sg16
I0
sg17
g22
sg19
I8
sg20
I7
sa(dp570
g8
I1000
sg4
I5
sg5
I0
sg6
g7
sg3
I0
sg9
I3
sg10
g11
sg12
I25
sg13
I9
sg14
I535
sg15
I0
sg16
I0
sg17
g22
sg19
I8
sg20
I7
sa(dp571
g8
I1000
sg4
I5
sg5
I0
sg6
g7
sg3
I0
sg9
I3
sg10
g11
sg12
I25
sg13
I9
sg14
I536
sg15
I0
sg16
I0
sg17
g22
sg19
I8
sg20
I7
sa(dp572
g8
I1000
sg4
I5
sg5
I0
sg6
g7
sg3
I0
sg9
I3
sg10
g11
sg12
I25
sg13
I9
sg14
I537
sg15
I0
sg16
I0
sg17
g22
sg19
I8
sg20
I7
sa(dp573
g8
I1000
sg4
I5
sg5
I0
sg6
g7
sg3
I0
sg9
I3
sg10
g11
sg12
I25
sg13
I9
sg14
I538
sg15
I0
sg16
I0
sg17
g22
sg19
I8
sg20
I7
sa(dp574
g8
I300
sg4
I5
sg5
I0
sg6
g91
sg3
I0
sg9
I5
sg10
g89
sg12
I25
sg13
I8
sg14
I539
sg15
I0
sg16
I0
sg17
g103
sg19
I20
sg20
I7
sa(dp575
g8
I1000
sg4
I5
sg5
I0
sg6
g7
sg3
I0
sg9
I8
sg10
g11
sg12
I25
sg13
I9
sg14
I540
sg15
I0
sg16
I0
sg17
g18
sg19
I30
sg20
I8
sa(dp576
g8
I1000
sg4
I5
sg5
I0
sg6
g7
sg3
I0
sg9
I3
sg10
g11
sg12
I25
sg13
I9
sg14
I541
sg15
I0
sg16
I0
sg17
g22
sg19
I8
sg20
I8
sa(dp577
g8
I250
sg4
I5
sg5
I0
sg6
g18
sg3
I0
sg9
I2
sg10
g11
sg12
I25
sg13
I8
sg14
I542
sg15
I0
sg16
I0
sg17
g24
sg19
I16
sg20
I8
sa(dp578
g8
I35
sg4
I5
sg5
I0
sg6
g18
sg3
I0
sg9
I7
sg10
g11
sg12
I25
sg13
I8
sg14
I543
sg15
I0
sg16
I0
sg17
g26
sg19
I25
sg20
I8
sa(dp579
g8
I1000
sg4
I5
sg5
I0
sg6
g7
sg3
I0
sg9
I3
sg10
g11
sg12
I25
sg13
I9
sg14
I544
sg15
I0
sg16
I0
sg17
g22
sg19
I8
sg20
I8
sa(dp580
g8
I1000
sg4
I5
sg5
I0
sg6
g7
sg3
I0
sg9
I3
sg10
g11
sg12
I25
sg13
I9
sg14
I545
sg15
I0
sg16
I0
sg17
g22
sg19
I8
sg20
I8
sa(dp581
g8
I1000
sg4
I5
sg5
I0
sg6
g7
sg3
I0
sg9
I3
sg10
g11
sg12
I25
sg13
I9
sg14
I546
sg15
I0
sg16
I0
sg17
g22
sg19
I8
sg20
I8
sa(dp582
g8
I1000
sg4
I5
sg5
I0
sg6
g7
sg3
I0
sg9
I3
sg10
g11
sg12
I25
sg13
I9
sg14
I547
sg15
I0
sg16
I0
sg17
g22
sg19
I8
sg20
I8
sa(dp583
g8
I1000
sg4
I5
sg5
I0
sg6
g7
sg3
I45
sg9
I3
sg10
g11
sg12
I25
sg13
I9
sg14
I548
sg15
I0
sg16
I0
sg17
g22
sg19
I8
sg20
I8
sa(dp584
g8
I350
sg4
I5
sg5
I0
sg6
g7
sg3
I0
sg9
I8
sg10
g11
sg12
I25
sg13
I9
sg14
I549
sg15
I0
sg16
I0
sg17
g18
sg19
I30
sg20
I8
sa(dp585
g8
I1000
sg4
I5
sg5
I0
sg6
g7
sg3
I0
sg9
I3
sg10
g11
sg12
I25
sg13
I9
sg14
I550
sg15
I0
sg16
I0
sg17
g22
sg19
I8
sg20
I8
sa(dp586
g8
I1000
sg4
I5
sg5
I0
sg6
g7
sg3
I0
sg9
I3
sg10
g11
sg12
I25
sg13
I9
sg14
I551
sg15
I0
sg16
I0
sg17
g22
sg19
I8
sg20
I8
sa(dp587
g8
I1000
sg4
I5
sg5
I0
sg6
g7
sg3
I0
sg9
I3
sg10
g11
sg12
I25
sg13
I9
sg14
I552
sg15
I0
sg16
I0
sg17
g22
sg19
I8
sg20
I8
sa(dp588
g8
I1000
sg4
I5
sg5
I0
sg6
g7
sg3
I0
sg9
I3
sg10
g11
sg12
I25
sg13
I9
sg14
I553
sg15
I0
sg16
I0
sg17
g22
sg19
I8
sg20
I8
sa(dp589
g8
I250
sg4
I5
sg5
I0
sg6
g18
sg3
I0
sg9
I3
sg10
g11
sg12
I25
sg13
I8
sg14
I554
sg15
I1
sg16
I1
sg17
g22
sg19
I16
sg20
I8
sa(dp590
g8
I1000
sg4
I5
sg5
I0
sg6
g7
sg3
I0
sg9
I3
sg10
g11
sg12
I25
sg13
I9
sg14
I555
sg15
I1
sg16
I1
sg17
g22
sg19
I8
sg20
I8
sa(dp591
g8
I250
sg4
I5
sg5
I0
sg6
g18
sg3
I0
sg9
I3
sg10
g11
sg12
I25
sg13
I8
sg14
I556
sg15
I1
sg16
I1
sg17
g22
sg19
I16
sg20
I8
sa(dp592
g8
I1000
sg4
I5
sg5
I0
sg6
g7
sg3
I0
sg9
I3
sg10
g11
sg12
I25
sg13
I9
sg14
I557
sg15
I1
sg16
I1
sg17
g22
sg19
I8
sg20
I8
sa(dp593
g8
I250
sg4
I5
sg5
I0
sg6
g18
sg3
I0
sg9
I3
sg10
g11
sg12
I25
sg13
I8
sg14
I558
sg15
I1
sg16
I1
sg17
g22
sg19
I16
sg20
I8
sa(dp594
g8
I1000
sg4
I5
sg5
I0
sg6
g7
sg3
I0
sg9
I3
sg10
g11
sg12
I25
sg13
I9
sg14
I559
sg15
I1
sg16
I1
sg17
g22
sg19
I8
sg20
I8
sa(dp595
g8
I250
sg4
I5
sg5
I0
sg6
g18
sg3
I0
sg9
I3
sg10
g11
sg12
I25
sg13
I8
sg14
I560
sg15
I1
sg16
I1
sg17
g22
sg19
I16
sg20
I8
sa(dp596
g8
I750
sg4
I5
sg5
I0
sg6
g7
sg3
I0
sg9
I3
sg10
g11
sg12
I25
sg13
I9
sg14
I561
sg15
I1
sg16
I0
sg17
g22
sg19
I8
sg20
I8
sa(dp597
g8
I250
sg4
I5
sg5
I0
sg6
g18
sg3
I0
sg9
I3
sg10
g11
sg12
I25
sg13
I8
sg14
I562
sg15
I1
sg16
I1
sg17
g22
sg19
I16
sg20
I8
sa(dp598
g8
I750
sg4
I5
sg5
I0
sg6
g7
sg3
I0
sg9
I3
sg10
g11
sg12
I25
sg13
I9
sg14
I563
sg15
I1
sg16
I0
sg17
g22
sg19
I8
sg20
I8
sa(dp599
g8
I250
sg4
I5
sg5
I0
sg6
g18
sg3
I0
sg9
I3
sg10
g11
sg12
I25
sg13
I8
sg14
I564
sg15
I1
sg16
I1
sg17
g22
sg19
I16
sg20
I8
sa(dp600
g8
I750
sg4
I5
sg5
I0
sg6
g7
sg3
I0
sg9
I3
sg10
g11
sg12
I25
sg13
I9
sg14
I565
sg15
I1
sg16
I0
sg17
g22
sg19
I8
sg20
I8
sa(dp601
g8
I250
sg4
I5
sg5
I0
sg6
g18
sg3
I0
sg9
I3
sg10
g11
sg12
I25
sg13
I8
sg14
I566
sg15
I1
sg16
I1
sg17
g22
sg19
I16
sg20
I8
sa(dp602
g8
I750
sg4
I5
sg5
I0
sg6
g7
sg3
I0
sg9
I3
sg10
g11
sg12
I25
sg13
I9
sg14
I567
sg15
I1
sg16
I0
sg17
g22
sg19
I8
sg20
I8
sa(dp603
g8
I250
sg4
I5
sg5
I0
sg6
g18
sg3
I0
sg9
I3
sg10
g11
sg12
I25
sg13
I8
sg14
I568
sg15
I1
sg16
I1
sg17
g22
sg19
I16
sg20
I8
sa(dp604
g8
I750
sg4
I5
sg5
I0
sg6
g7
sg3
I0
sg9
I3
sg10
g11
sg12
I25
sg13
I9
sg14
I569
sg15
I1
sg16
I0
sg17
g22
sg19
I8
sg20
I8
sa(dp605
g8
I250
sg4
I5
sg5
I0
sg6
g18
sg3
I0
sg9
I3
sg10
g11
sg12
I25
sg13
I8
sg14
I570
sg15
I1
sg16
I1
sg17
g22
sg19
I16
sg20
I8
sa(dp606
g8
I750
sg4
I5
sg5
I0
sg6
g7
sg3
I0
sg9
I3
sg10
g11
sg12
I25
sg13
I9
sg14
I571
sg15
I1
sg16
I0
sg17
g22
sg19
I8
sg20
I8
sa(dp607
g8
I250
sg4
I5
sg5
I0
sg6
g18
sg3
I0
sg9
I3
sg10
g11
sg12
I25
sg13
I8
sg14
I572
sg15
I1
sg16
I1
sg17
g22
sg19
I16
sg20
I8
sa(dp608
g8
I750
sg4
I5
sg5
I0
sg6
g7
sg3
I0
sg9
I3
sg10
g11
sg12
I25
sg13
I9
sg14
I573
sg15
I1
sg16
I0
sg17
g22
sg19
I8
sg20
I8
sa(dp609
g8
I250
sg4
I5
sg5
I0
sg6
g18
sg3
I0
sg9
I3
sg10
g11
sg12
I25
sg13
I8
sg14
I574
sg15
I1
sg16
I1
sg17
g22
sg19
I16
sg20
I8
sa(dp610
g8
I750
sg4
I5
sg5
I0
sg6
g7
sg3
I0
sg9
I3
sg10
g11
sg12
I25
sg13
I9
sg14
I575
sg15
I1
sg16
I0
sg17
g22
sg19
I8
sg20
I8
sa(dp611
g8
I250
sg4
I5
sg5
I0
sg6
g18
sg3
I0
sg9
I3
sg10
g11
sg12
I25
sg13
I8
sg14
I576
sg15
I1
sg16
I1
sg17
g22
sg19
I16
sg20
I8
sa(dp612
g8
I750
sg4
I5
sg5
I0
sg6
g7
sg3
I0
sg9
I3
sg10
g11
sg12
I25
sg13
I9
sg14
I577
sg15
I1
sg16
I0
sg17
g22
sg19
I8
sg20
I8
sa(dp613
g8
I250
sg4
I5
sg5
I0
sg6
g18
sg3
I0
sg9
I3
sg10
g11
sg12
I25
sg13
I8
sg14
I578
sg15
I1
sg16
I1
sg17
g22
sg19
I16
sg20
I8
sa(dp614
g8
I750
sg4
I5
sg5
I0
sg6
g7
sg3
I0
sg9
I3
sg10
g11
sg12
I25
sg13
I9
sg14
I579
sg15
I1
sg16
I0
sg17
g22
sg19
I8
sg20
I8
sa(dp615
g8
I250
sg4
I5
sg5
I0
sg6
g18
sg3
I0
sg9
I3
sg10
g11
sg12
I25
sg13
I8
sg14
I580
sg15
I1
sg16
I1
sg17
g22
sg19
I16
sg20
I8
sa(dp616
g8
I750
sg4
I5
sg5
I0
sg6
g7
sg3
I0
sg9
I3
sg10
g11
sg12
I25
sg13
I9
sg14
I581
sg15
I1
sg16
I0
sg17
g22
sg19
I8
sg20
I8
sa(dp617
g8
I250
sg4
I5
sg5
I0
sg6
g18
sg3
I0
sg9
I3
sg10
g11
sg12
I25
sg13
I8
sg14
I582
sg15
I1
sg16
I1
sg17
g22
sg19
I16
sg20
I8
sa(dp618
g8
I750
sg4
I5
sg5
I0
sg6
g7
sg3
I0
sg9
I3
sg10
g11
sg12
I25
sg13
I9
sg14
I583
sg15
I1
sg16
I0
sg17
g22
sg19
I8
sg20
I8
sa(dp619
g8
I250
sg4
I5
sg5
I0
sg6
g18
sg3
I0
sg9
I3
sg10
g11
sg12
I25
sg13
I8
sg14
I584
sg15
I1
sg16
I1
sg17
g22
sg19
I16
sg20
I8
sa(dp620
g8
I750
sg4
I5
sg5
I0
sg6
g7
sg3
I0
sg9
I3
sg10
g11
sg12
I25
sg13
I9
sg14
I585
sg15
I1
sg16
I0
sg17
g22
sg19
I8
sg20
I8
sa(dp621
g8
I250
sg4
I5
sg5
I0
sg6
g18
sg3
I0
sg9
I3
sg10
g11
sg12
I25
sg13
I8
sg14
I586
sg15
I1
sg16
I1
sg17
g22
sg19
I16
sg20
I8
sa(dp622
g8
I750
sg4
I5
sg5
I0
sg6
g7
sg3
I0
sg9
I3
sg10
g11
sg12
I25
sg13
I9
sg14
I587
sg15
I1
sg16
I0
sg17
g22
sg19
I8
sg20
I8
sa(dp623
g8
I250
sg4
I5
sg5
I0
sg6
g18
sg3
I0
sg9
I3
sg10
g11
sg12
I25
sg13
I8
sg14
I588
sg15
I1
sg16
I1
sg17
g22
sg19
I16
sg20
I8
sa(dp624
g8
I750
sg4
I5
sg5
I0
sg6
g7
sg3
I0
sg9
I3
sg10
g11
sg12
I25
sg13
I9
sg14
I589
sg15
I1
sg16
I0
sg17
g22
sg19
I8
sg20
I8
sa(dp625
g8
I250
sg4
I5
sg5
I0
sg6
g18
sg3
I0
sg9
I3
sg10
g11
sg12
I25
sg13
I8
sg14
I590
sg15
I1
sg16
I1
sg17
g22
sg19
I16
sg20
I8
sa(dp626
g8
I750
sg4
I5
sg5
I0
sg6
g7
sg3
I0
sg9
I3
sg10
g11
sg12
I25
sg13
I9
sg14
I591
sg15
I1
sg16
I0
sg17
g22
sg19
I8
sg20
I8
sa(dp627
g8
I250
sg4
I5
sg5
I0
sg6
g18
sg3
I0
sg9
I3
sg10
g11
sg12
I25
sg13
I8
sg14
I592
sg15
I1
sg16
I1
sg17
g22
sg19
I16
sg20
I8
sa(dp628
g8
I750
sg4
I5
sg5
I0
sg6
g7
sg3
I0
sg9
I3
sg10
g11
sg12
I25
sg13
I9
sg14
I593
sg15
I1
sg16
I0
sg17
g22
sg19
I8
sg20
I8
sa(dp629
g8
I250
sg4
I5
sg5
I0
sg6
g18
sg3
I0
sg9
I3
sg10
g11
sg12
I25
sg13
I8
sg14
I594
sg15
I1
sg16
I1
sg17
g22
sg19
I16
sg20
I8
sa(dp630
g8
I750
sg4
I5
sg5
I0
sg6
g7
sg3
I0
sg9
I3
sg10
g11
sg12
I25
sg13
I9
sg14
I595
sg15
I1
sg16
I0
sg17
g22
sg19
I8
sg20
I8
sa(dp631
g8
I250
sg4
I5
sg5
I0
sg6
g18
sg3
I0
sg9
I3
sg10
g11
sg12
I25
sg13
I8
sg14
I596
sg15
I1
sg16
I1
sg17
g22
sg19
I16
sg20
I8
sa(dp632
g8
I750
sg4
I5
sg5
I0
sg6
g7
sg3
I0
sg9
I3
sg10
g11
sg12
I25
sg13
I9
sg14
I597
sg15
I1
sg16
I0
sg17
g22
sg19
I8
sg20
I8
sa(dp633
g8
I250
sg4
I5
sg5
I0
sg6
g18
sg3
I0
sg9
I3
sg10
g11
sg12
I25
sg13
I8
sg14
I598
sg15
I1
sg16
I1
sg17
g22
sg19
I16
sg20
I8
sa(dp634
g8
I750
sg4
I5
sg5
I0
sg6
g7
sg3
I0
sg9
I3
sg10
g11
sg12
I25
sg13
I9
sg14
I599
sg15
I1
sg16
I0
sg17
g22
sg19
I8
sg20
I8
sa(dp635
g8
I500
sg4
I5
sg5
I0
sg6
g7
sg3
I0
sg9
I8
sg10
g11
sg12
I25
sg13
I9
sg14
I600
sg15
I0
sg16
I0
sg17
g18
sg19
I30
sg20
I8
sa(dp636
g8
I250
sg4
I5
sg5
I0
sg6
g18
sg3
I0
sg9
I5
sg10
g11
sg12
I25
sg13
I8
sg14
I601
sg15
I0
sg16
I0
sg17
g85
sg19
I16
sg20
I8
sa(dp637
g8
I500
sg4
I5
sg5
I0
sg6
g7
sg3
I0
sg9
I8
sg10
g11
sg12
I25
sg13
I9
sg14
I602
sg15
I0
sg16
I0
sg17
g18
sg19
I30
sg20
I9
sa(dp638
g8
I700
sg4
I5
sg5
I0
sg6
g88
sg3
I0
sg9
I1
sg10
g89
sg12
I25
sg13
I1
sg14
I603
sg15
I0
sg16
I0
sg17
g88
sg19
I21
sg20
I9
sa(dp639
g8
I300
sg4
I5
sg5
I0
sg6
g91
sg3
I0
sg9
I1
sg10
g89
sg12
I25
sg13
I8
sg14
I604
sg15
I0
sg16
I0
sg17
g88
sg19
I20
sg20
I9
sa(dp640
g8
I35
sg4
I5
sg5
I0
sg6
g91
sg3
I5
sg9
I7
sg10
g89
sg12
I25
sg13
I8
sg14
I605
sg15
I0
sg16
I0
sg17
g93
sg19
I25
sg20
I9
sa(dp641
g8
I400
sg4
I5
sg5
I0
sg6
g7
sg3
I0
sg9
I8
sg10
g11
sg12
I25
sg13
I9
sg14
I606
sg15
I0
sg16
I0
sg17
g18
sg19
I30
sg20
I9
sa(dp642
g8
I300
sg4
I5
sg5
I0
sg6
g91
sg3
I0
sg9
I1
sg10
g89
sg12
I25
sg13
I8
sg14
I607
sg15
I0
sg16
I0
sg17
g88
sg19
I20
sg20
I9
sa(dp643
g8
I35
sg4
I5
sg5
I0
sg6
g91
sg3
I5
sg9
I7
sg10
g89
sg12
I25
sg13
I8
sg14
I608
sg15
I0
sg16
I0
sg17
g93
sg19
I25
sg20
I9
sa(dp644
g8
I400
sg4
I5
sg5
I0
sg6
g7
sg3
I0
sg9
I8
sg10
g11
sg12
I25
sg13
I9
sg14
I609
sg15
I0
sg16
I0
sg17
g18
sg19
I30
sg20
I9
sa(dp645
g8
I4000
sg4
I5
sg5
I0
sg6
g99
sg3
I0
sg9
I6
sg10
g89
sg12
I25
sg13
I9
sg14
I610
sg15
I0
sg16
I0
sg17
g100
sg19
I8
sg20
I9
sa(dp646
g8
I4000
sg4
I5
sg5
I0
sg6
g99
sg3
I0
sg9
I6
sg10
g89
sg12
I25
sg13
I9
sg14
I611
sg15
I0
sg16
I0
sg17
g100
sg19
I8
sg20
I9
sa(dp647
g8
I4000
sg4
I5
sg5
I0
sg6
g99
sg3
I0
sg9
I5
sg10
g89
sg12
I25
sg13
I9
sg14
I612
sg15
I0
sg16
I0
sg17
g103
sg19
I8
sg20
I9
sa(dp648
g8
I4000
sg4
I5
sg5
I0
sg6
g99
sg3
I0
sg9
I5
sg10
g89
sg12
I25
sg13
I9
sg14
I613
sg15
I0
sg16
I0
sg17
g103
sg19
I8
sg20
I9
sa(dp649
g8
I300
sg4
I5
sg5
I0
sg6
g91
sg3
I0
sg9
I5
sg10
g89
sg12
I25
sg13
I8
sg14
I614
sg15
I0
sg16
I0
sg17
g103
sg19
I20
sg20
I9
sa(dp650
g8
I700
sg4
I5
sg5
I0
sg6
g88
sg3
I0
sg9
I7
sg10
g89
sg12
I25
sg13
I1
sg14
I615
sg15
I0
sg16
I0
sg17
g93
sg19
I21
sg20
I9
sa(dp651
g8
I700
sg4
I5
sg5
I0
sg6
g108
sg3
I0
sg9
I2
sg10
g89
sg12
I25
sg13
I2
sg14
I616
sg15
I0
sg16
I0
sg17
g108
sg19
I21
sg20
I9
sa(dp652
g8
I270
sg4
I5
sg5
I0
sg6
g110
sg3
I0
sg9
I2
sg10
g89
sg12
I25
sg13
I4
sg14
I617
sg15
I0
sg16
I0
sg17
g108
sg19
I20
sg20
I9
sa(dp653
g8
I700
sg4
I5
sg5
I0
sg6
g110
sg3
I0
sg9
I7
sg10
g89
sg12
I25
sg13
I4
sg14
I618
sg15
I0
sg16
I0
sg17
g93
sg19
I21
sg20
I9
sa(dp654
g8
I700
sg4
I5
sg5
I0
sg6
g108
sg3
I0
sg9
I7
sg10
g89
sg12
I25
sg13
I2
sg14
I619
sg15
I0
sg16
I0
sg17
g93
sg19
I21
sg20
I9
sa(dp655
g8
I4000
sg4
I5
sg5
I0
sg6
g99
sg3
I0
sg9
I6
sg10
g89
sg12
I25
sg13
I9
sg14
I620
sg15
I0
sg16
I0
sg17
g100
sg19
I8
sg20
I9
sa(dp656
g8
I4000
sg4
I5
sg5
I0
sg6
g99
sg3
I0
sg9
I6
sg10
g89
sg12
I25
sg13
I9
sg14
I621
sg15
I0
sg16
I0
sg17
g100
sg19
I8
sg20
I9
sa(dp657
g8
I4000
sg4
I5
sg5
I0
sg6
g99
sg3
I0
sg9
I5
sg10
g89
sg12
I25
sg13
I9
sg14
I622
sg15
I0
sg16
I0
sg17
g103
sg19
I8
sg20
I9
sa(dp658
g8
I4000
sg4
I5
sg5
I0
sg6
g99
sg3
I0
sg9
I5
sg10
g89
sg12
I25
sg13
I9
sg14
I623
sg15
I0
sg16
I0
sg17
g103
sg19
I8
sg20
I9
sa(dp659
g8
I700
sg4
I5
sg5
I0
sg6
g118
sg3
I0
sg9
I3
sg10
g89
sg12
I25
sg13
I3
sg14
I624
sg15
I0
sg16
I0
sg17
g118
sg19
I21
sg20
I9
sa(dp660
g8
I750
sg4
I5
sg5
I0
sg6
g110
sg3
I0
sg9
I3
sg10
g89
sg12
I25
sg13
I4
sg14
I625
sg15
I0
sg16
I0
sg17
g118
sg19
I20
sg20
I9
sa(dp661
g8
I700
sg4
I5
sg5
I0
sg6
g110
sg3
I0
sg9
I7
sg10
g89
sg12
I25
sg13
I4
sg14
I626
sg15
I0
sg16
I0
sg17
g93
sg19
I21
sg20
I9
sa(dp662
g8
I700
sg4
I5
sg5
I0
sg6
g118
sg3
I0
sg9
I7
sg10
g89
sg12
I25
sg13
I3
sg14
I627
sg15
I0
sg16
I0
sg17
g93
sg19
I21
sg20
I9
sa(dp663
g8
I4500
sg4
I5
sg5
I0
sg6
g110
sg3
I0
sg9
I7
sg10
g89
sg12
I25
sg13
I4
sg14
I628
sg15
I0
sg16
I0
sg17
g93
sg19
I8
sg20
I9
sa(dp664
g8
I500
sg4
I5
sg5
I0
sg6
g7
sg3
I0
sg9
I8
sg10
g11
sg12
I25
sg13
I9
sg14
I629
sg15
I0
sg16
I0
sg17
g18
sg19
I30
sg20
I9
sa(dp665
g8
I700
sg4
I5
sg5
I0
sg6
g110
sg3
I0
sg9
I4
sg10
g89
sg12
I25
sg13
I4
sg14
I630
sg15
I0
sg16
I0
sg17
g110
sg19
I21
sg20
I9
sa(dp666
g8
I300
sg4
I5
sg5
I0
sg6
g91
sg3
I0
sg9
I4
sg10
g89
sg12
I25
sg13
I8
sg14
I631
sg15
I0
sg16
I0
sg17
g110
sg19
I20
sg20
I9
sa(dp667
g8
I35
sg4
I5
sg5
I0
sg6
g91
sg3
I0
sg9
I7
sg10
g89
sg12
I25
sg13
I8
sg14
I632
sg15
I0
sg16
I0
sg17
g93
sg19
I25
sg20
I9
sa(dp668
g8
I700
sg4
I5
sg5
I0
sg6
g110
sg3
I5
sg9
I7
sg10
g89
sg12
I25
sg13
I4
sg14
I633
sg15
I0
sg16
I0
sg17
g93
sg19
I21
sg20
I9
sa(dp669
g8
I400
sg4
I5
sg5
I0
sg6
g7
sg3
I0
sg9
I8
sg10
g11
sg12
I25
sg13
I9
sg14
I634
sg15
I0
sg16
I0
sg17
g18
sg19
I30
sg20
I9
sa(dp670
g8
I700
sg4
I5
sg5
I0
sg6
g110
sg3
I0
sg9
I4
sg10
g89
sg12
I25
sg13
I4
sg14
I635
sg15
I0
sg16
I0
sg17
g110
sg19
I21
sg20
I9
sa(dp671
g8
I300
sg4
I5
sg5
I0
sg6
g91
sg3
I0
sg9
I4
sg10
g89
sg12
I25
sg13
I8
sg14
I636
sg15
I0
sg16
I0
sg17
g110
sg19
I20
sg20
I9
sa(dp672
g8
I35
sg4
I5
sg5
I0
sg6
g91
sg3
I0
sg9
I7
sg10
g89
sg12
I25
sg13
I8
sg14
I637
sg15
I0
sg16
I0
sg17
g93
sg19
I25
sg20
I9
sa(dp673
g8
I700
sg4
I5
sg5
I0
sg6
g110
sg3
I5
sg9
I7
sg10
g89
sg12
I25
sg13
I4
sg14
I638
sg15
I0
sg16
I0
sg17
g93
sg19
I21
sg20
I9
sa(dp674
g8
I400
sg4
I5
sg5
I0
sg6
g7
sg3
I0
sg9
I8
sg10
g11
sg12
I25
sg13
I9
sg14
I639
sg15
I0
sg16
I0
sg17
g18
sg19
I30
sg20
I9
sa(dp675
g8
I2000
sg4
I5
sg5
I0
sg6
g99
sg3
I0
sg9
I4
sg10
g89
sg12
I25
sg13
I9
sg14
I640
sg15
I0
sg16
I0
sg17
g110
sg19
I16
sg20
I9
sa(dp676
g8
I4000
sg4
I5
sg5
I0
sg6
g99
sg3
I0
sg9
I6
sg10
g89
sg12
I25
sg13
I9
sg14
I641
sg15
I0
sg16
I0
sg17
g100
sg19
I8
sg20
I9
sa(dp677
g8
I4000
sg4
I5
sg5
I0
sg6
g99
sg3
I0
sg9
I6
sg10
g89
sg12
I25
sg13
I9
sg14
I642
sg15
I0
sg16
I0
sg17
g100
sg19
I8
sg20
I9
sa(dp678
g8
I4000
sg4
I5
sg5
I0
sg6
g99
sg3
I0
sg9
I5
sg10
g89
sg12
I25
sg13
I9
sg14
I643
sg15
I0
sg16
I0
sg17
g103
sg19
I8
sg20
I9
sa(dp679
g8
I4000
sg4
I5
sg5
I0
sg6
g99
sg3
I0
sg9
I5
sg10
g89
sg12
I25
sg13
I9
sg14
I644
sg15
I0
sg16
I0
sg17
g103
sg19
I8
sg20
I9
sa(dp680
g8
I300
sg4
I5
sg5
I0
sg6
g91
sg3
I0
sg9
I5
sg10
g89
sg12
I25
sg13
I8
sg14
I645
sg15
I0
sg16
I0
sg17
g103
sg19
I20
sg20
I9
sa(dp681
g8
I500
sg4
I5
sg5
I0
sg6
g7
sg3
I0
sg9
I8
sg10
g11
sg12
I25
sg13
I9
sg14
I646
sg15
I0
sg16
I0
sg17
g18
sg19
I30
sg20
I9
sa(dp682
g8
I300
sg4
I5
sg5
I0
sg6
g91
sg3
I0
sg9
I5
sg10
g89
sg12
I25
sg13
I8
sg14
I647
sg15
I0
sg16
I0
sg17
g103
sg19
I20
sg20
I9
sa(dp683
g8
I500
sg4
I5
sg5
I0
sg6
g7
sg3
I0
sg9
I8
sg10
g11
sg12
I25
sg13
I9
sg14
I648
sg15
I0
sg16
I0
sg17
g18
sg19
I30
sg20
I9
sa(dp684
g8
I300
sg4
I5
sg5
I0
sg6
g91
sg3
I0
sg9
I5
sg10
g89
sg12
I25
sg13
I8
sg14
I649
sg15
I0
sg16
I0
sg17
g103
sg19
I20
sg20
I9
sa(dp685
g8
I500
sg4
I5
sg5
I0
sg6
g7
sg3
I0
sg9
I8
sg10
g11
sg12
I25
sg13
I9
sg14
I650
sg15
I0
sg16
I0
sg17
g18
sg19
I30
sg20
I9
sa(dp686
g8
I300
sg4
I5
sg5
I0
sg6
g91
sg3
I0
sg9
I5
sg10
g89
sg12
I25
sg13
I8
sg14
I651
sg15
I0
sg16
I0
sg17
g103
sg19
I20
sg20
I9
sa(dp687
g8
I500
sg4
I5
sg5
I0
sg6
g7
sg3
I0
sg9
I8
sg10
g11
sg12
I25
sg13
I9
sg14
I652
sg15
I0
sg16
I0
sg17
g18
sg19
I30
sg20
I9
sa(dp688
g8
I300
sg4
I5
sg5
I0
sg6
g91
sg3
I0
sg9
I5
sg10
g89
sg12
I25
sg13
I8
sg14
I653
sg15
I0
sg16
I0
sg17
g103
sg19
I20
sg20
I9
sa(dp689
g8
I500
sg4
I5
sg5
I0
sg6
g7
sg3
I0
sg9
I8
sg10
g11
sg12
I25
sg13
I9
sg14
I654
sg15
I0
sg16
I0
sg17
g18
sg19
I30
sg20
I9
sa(dp690
g8
I300
sg4
I5
sg5
I0
sg6
g91
sg3
I0
sg9
I5
sg10
g89
sg12
I25
sg13
I8
sg14
I655
sg15
I0
sg16
I0
sg17
g103
sg19
I20
sg20
I9
sa(dp691
g8
I500
sg4
I5
sg5
I0
sg6
g7
sg3
I0
sg9
I8
sg10
g11
sg12
I25
sg13
I9
sg14
I656
sg15
I0
sg16
I0
sg17
g18
sg19
I30
sg20
I9
sa(dp692
g8
I300
sg4
I5
sg5
I0
sg6
g91
sg3
I0
sg9
I5
sg10
g89
sg12
I25
sg13
I8
sg14
I657
sg15
I0
sg16
I0
sg17
g103
sg19
I20
sg20
I9
sa(dp693
g8
I500
sg4
I5
sg5
I0
sg6
g7
sg3
I0
sg9
I8
sg10
g11
sg12
I25
sg13
I9
sg14
I658
sg15
I0
sg16
I0
sg17
g18
sg19
I30
sg20
I9
sa(dp694
g8
I300
sg4
I5
sg5
I0
sg6
g91
sg3
I0
sg9
I5
sg10
g89
sg12
I25
sg13
I8
sg14
I659
sg15
I0
sg16
I0
sg17
g103
sg19
I20
sg20
I9
sa(dp695
g8
I500
sg4
I5
sg5
I0
sg6
g7
sg3
I0
sg9
I8
sg10
g11
sg12
I25
sg13
I9
sg14
I660
sg15
I0
sg16
I0
sg17
g18
sg19
I30
sg20
I9
sa(dp696
g8
I300
sg4
I5
sg5
I0
sg6
g91
sg3
I0
sg9
I5
sg10
g89
sg12
I25
sg13
I8
sg14
I661
sg15
I0
sg16
I0
sg17
g103
sg19
I20
sg20
I9
sa(dp697
g8
I500
sg4
I5
sg5
I0
sg6
g7
sg3
I0
sg9
I8
sg10
g11
sg12
I25
sg13
I9
sg14
I662
sg15
I0
sg16
I0
sg17
g18
sg19
I30
sg20
I9
sa(dp698
g8
I300
sg4
I5
sg5
I0
sg6
g91
sg3
I0
sg9
I5
sg10
g89
sg12
I25
sg13
I8
sg14
I663
sg15
I0
sg16
I0
sg17
g103
sg19
I20
sg20
I9
sa(dp699
g8
I500
sg4
I5
sg5
I0
sg6
g7
sg3
I0
sg9
I8
sg10
g11
sg12
I25
sg13
I9
sg14
I664
sg15
I0
sg16
I0
sg17
g18
sg19
I30
sg20
I9
sa(dp700
g8
I1000
sg4
I5
sg5
I0
sg6
g7
sg3
I0
sg9
I4
sg10
g11
sg12
I25
sg13
I9
sg14
I665
sg15
I0
sg16
I0
sg17
g160
sg19
I8
sg20
I9
sa(dp701
g8
I1000
sg4
I5
sg5
I0
sg6
g7
sg3
I0
sg9
I4
sg10
g11
sg12
I25
sg13
I9
sg14
I666
sg15
I0
sg16
I0
sg17
g160
sg19
I8
sg20
I9
sa(dp702
g8
I1000
sg4
I5
sg5
I0
sg6
g7
sg3
I0
sg9
I4
sg10
g11
sg12
I25
sg13
I9
sg14
I667
sg15
I0
sg16
I0
sg17
g160
sg19
I8
sg20
I9
sa(dp703
g8
I1000
sg4
I5
sg5
I0
sg6
g7
sg3
I0
sg9
I4
sg10
g11
sg12
I25
sg13
I9
sg14
I668
sg15
I0
sg16
I0
sg17
g160
sg19
I8
sg20
I9
sa(dp704
g8
I1000
sg4
I5
sg5
I0
sg6
g7
sg3
I0
sg9
I3
sg10
g11
sg12
I25
sg13
I9
sg14
I669
sg15
I0
sg16
I0
sg17
g22
sg19
I8
sg20
I9
sa(dp705
g8
I1000
sg4
I5
sg5
I0
sg6
g7
sg3
I0
sg9
I3
sg10
g11
sg12
I25
sg13
I9
sg14
I670
sg15
I0
sg16
I0
sg17
g22
sg19
I8
sg20
I9
sa(dp706
g8
I1000
sg4
I5
sg5
I0
sg6
g7
sg3
I0
sg9
I3
sg10
g11
sg12
I25
sg13
I9
sg14
I671
sg15
I0
sg16
I0
sg17
g22
sg19
I8
sg20
I9
sa(dp707
g8
I1000
sg4
I5
sg5
I0
sg6
g7
sg3
I0
sg9
I3
sg10
g11
sg12
I25
sg13
I9
sg14
I672
sg15
I0
sg16
I0
sg17
g22
sg19
I8
sg20
I9
sa(dp708
g8
I1000
sg4
I5
sg5
I0
sg6
g7
sg3
I0
sg9
I3
sg10
g11
sg12
I25
sg13
I9
sg14
I673
sg15
I0
sg16
I0
sg17
g22
sg19
I8
sg20
I9
sa(dp709
g8
I300
sg4
I5
sg5
I0
sg6
g91
sg3
I0
sg9
I5
sg10
g89
sg12
I25
sg13
I8
sg14
I674
sg15
I0
sg16
I0
sg17
g103
sg19
I20
sg20
I9
sa(dp710
g8
I1000
sg4
I5
sg5
I0
sg6
g7
sg3
I0
sg9
I8
sg10
g11
sg12
I25
sg13
I9
sg14
I675
sg15
I0
sg16
I0
sg17
g18
sg19
I30
sg20
I10
sa(dp711
g8
I1000
sg4
I5
sg5
I0
sg6
g7
sg3
I0
sg9
I3
sg10
g11
sg12
I25
sg13
I9
sg14
I676
sg15
I0
sg16
I0
sg17
g22
sg19
I8
sg20
I10
sa(dp712
g8
I250
sg4
I5
sg5
I0
sg6
g18
sg3
I0
sg9
I2
sg10
g11
sg12
I25
sg13
I8
sg14
I677
sg15
I0
sg16
I0
sg17
g24
sg19
I16
sg20
I10
sa(dp713
g8
I35
sg4
I5
sg5
I0
sg6
g18
sg3
I0
sg9
I7
sg10
g11
sg12
I25
sg13
I8
sg14
I678
sg15
I0
sg16
I0
sg17
g26
sg19
I25
sg20
I10
sa(dp714
g8
I1000
sg4
I5
sg5
I0
sg6
g7
sg3
I0
sg9
I3
sg10
g11
sg12
I25
sg13
I9
sg14
I679
sg15
I0
sg16
I0
sg17
g22
sg19
I8
sg20
I10
sa(dp715
g8
I1000
sg4
I5
sg5
I0
sg6
g7
sg3
I0
sg9
I3
sg10
g11
sg12
I25
sg13
I9
sg14
I680
sg15
I0
sg16
I0
sg17
g22
sg19
I8
sg20
I10
sa(dp716
g8
I1000
sg4
I5
sg5
I0
sg6
g7
sg3
I0
sg9
I3
sg10
g11
sg12
I25
sg13
I9
sg14
I681
sg15
I0
sg16
I0
sg17
g22
sg19
I8
sg20
I10
sa(dp717
g8
I1000
sg4
I5
sg5
I0
sg6
g7
sg3
I0
sg9
I3
sg10
g11
sg12
I25
sg13
I9
sg14
I682
sg15
I0
sg16
I0
sg17
g22
sg19
I8
sg20
I10
sa(dp718
g8
I1000
sg4
I5
sg5
I0
sg6
g7
sg3
I45
sg9
I3
sg10
g11
sg12
I25
sg13
I9
sg14
I683
sg15
I0
sg16
I0
sg17
g22
sg19
I8
sg20
I10
sa(dp719
g8
I350
sg4
I5
sg5
I0
sg6
g7
sg3
I0
sg9
I8
sg10
g11
sg12
I25
sg13
I9
sg14
I684
sg15
I0
sg16
I0
sg17
g18
sg19
I30
sg20
I10
sa(dp720
g8
I1000
sg4
I5
sg5
I0
sg6
g7
sg3
I0
sg9
I3
sg10
g11
sg12
I25
sg13
I9
sg14
I685
sg15
I0
sg16
I0
sg17
g22
sg19
I8
sg20
I10
sa(dp721
g8
I1000
sg4
I5
sg5
I0
sg6
g7
sg3
I0
sg9
I3
sg10
g11
sg12
I25
sg13
I9
sg14
I686
sg15
I0
sg16
I0
sg17
g22
sg19
I8
sg20
I10
sa(dp722
g8
I1000
sg4
I5
sg5
I0
sg6
g7
sg3
I0
sg9
I3
sg10
g11
sg12
I25
sg13
I9
sg14
I687
sg15
I0
sg16
I0
sg17
g22
sg19
I8
sg20
I10
sa(dp723
g8
I1000
sg4
I5
sg5
I0
sg6
g7
sg3
I0
sg9
I3
sg10
g11
sg12
I25
sg13
I9
sg14
I688
sg15
I0
sg16
I0
sg17
g22
sg19
I8
sg20
I10
sa(dp724
g8
I250
sg4
I5
sg5
I0
sg6
g18
sg3
I0
sg9
I3
sg10
g11
sg12
I25
sg13
I8
sg14
I689
sg15
I1
sg16
I1
sg17
g22
sg19
I16
sg20
I10
sa(dp725
g8
I1000
sg4
I5
sg5
I0
sg6
g7
sg3
I0
sg9
I3
sg10
g11
sg12
I25
sg13
I9
sg14
I690
sg15
I1
sg16
I1
sg17
g22
sg19
I8
sg20
I10
sa(dp726
g8
I250
sg4
I5
sg5
I0
sg6
g18
sg3
I0
sg9
I3
sg10
g11
sg12
I25
sg13
I8
sg14
I691
sg15
I1
sg16
I1
sg17
g22
sg19
I16
sg20
I10
sa(dp727
g8
I1000
sg4
I5
sg5
I0
sg6
g7
sg3
I0
sg9
I3
sg10
g11
sg12
I25
sg13
I9
sg14
I692
sg15
I1
sg16
I1
sg17
g22
sg19
I8
sg20
I10
sa(dp728
g8
I250
sg4
I5
sg5
I0
sg6
g18
sg3
I0
sg9
I3
sg10
g11
sg12
I25
sg13
I8
sg14
I693
sg15
I1
sg16
I1
sg17
g22
sg19
I16
sg20
I10
sa(dp729
g8
I1000
sg4
I5
sg5
I0
sg6
g7
sg3
I0
sg9
I3
sg10
g11
sg12
I25
sg13
I9
sg14
I694
sg15
I1
sg16
I1
sg17
g22
sg19
I8
sg20
I10
sa(dp730
g8
I250
sg4
I5
sg5
I0
sg6
g18
sg3
I0
sg9
I3
sg10
g11
sg12
I25
sg13
I8
sg14
I695
sg15
I1
sg16
I1
sg17
g22
sg19
I16
sg20
I10
sa(dp731
g8
I750
sg4
I5
sg5
I0
sg6
g7
sg3
I0
sg9
I3
sg10
g11
sg12
I25
sg13
I9
sg14
I696
sg15
I1
sg16
I0
sg17
g22
sg19
I8
sg20
I10
sa(dp732
g8
I250
sg4
I5
sg5
I0
sg6
g18
sg3
I0
sg9
I3
sg10
g11
sg12
I25
sg13
I8
sg14
I697
sg15
I1
sg16
I1
sg17
g22
sg19
I16
sg20
I10
sa(dp733
g8
I750
sg4
I5
sg5
I0
sg6
g7
sg3
I0
sg9
I3
sg10
g11
sg12
I25
sg13
I9
sg14
I698
sg15
I1
sg16
I0
sg17
g22
sg19
I8
sg20
I10
sa(dp734
g8
I250
sg4
I5
sg5
I0
sg6
g18
sg3
I0
sg9
I3
sg10
g11
sg12
I25
sg13
I8
sg14
I699
sg15
I1
sg16
I1
sg17
g22
sg19
I16
sg20
I10
sa(dp735
g8
I750
sg4
I5
sg5
I0
sg6
g7
sg3
I0
sg9
I3
sg10
g11
sg12
I25
sg13
I9
sg14
I700
sg15
I1
sg16
I0
sg17
g22
sg19
I8
sg20
I10
sa(dp736
g8
I250
sg4
I5
sg5
I0
sg6
g18
sg3
I0
sg9
I3
sg10
g11
sg12
I25
sg13
I8
sg14
I701
sg15
I1
sg16
I1
sg17
g22
sg19
I16
sg20
I10
sa(dp737
g8
I750
sg4
I5
sg5
I0
sg6
g7
sg3
I0
sg9
I3
sg10
g11
sg12
I25
sg13
I9
sg14
I702
sg15
I1
sg16
I0
sg17
g22
sg19
I8
sg20
I10
sa(dp738
g8
I250
sg4
I5
sg5
I0
sg6
g18
sg3
I0
sg9
I3
sg10
g11
sg12
I25
sg13
I8
sg14
I703
sg15
I1
sg16
I1
sg17
g22
sg19
I16
sg20
I10
sa(dp739
g8
I750
sg4
I5
sg5
I0
sg6
g7
sg3
I0
sg9
I3
sg10
g11
sg12
I25
sg13
I9
sg14
I704
sg15
I1
sg16
I0
sg17
g22
sg19
I8
sg20
I10
sa(dp740
g8
I250
sg4
I5
sg5
I0
sg6
g18
sg3
I0
sg9
I3
sg10
g11
sg12
I25
sg13
I8
sg14
I705
sg15
I1
sg16
I1
sg17
g22
sg19
I16
sg20
I10
sa(dp741
g8
I750
sg4
I5
sg5
I0
sg6
g7
sg3
I0
sg9
I3
sg10
g11
sg12
I25
sg13
I9
sg14
I706
sg15
I1
sg16
I0
sg17
g22
sg19
I8
sg20
I10
sa(dp742
g8
I250
sg4
I5
sg5
I0
sg6
g18
sg3
I0
sg9
I3
sg10
g11
sg12
I25
sg13
I8
sg14
I707
sg15
I1
sg16
I1
sg17
g22
sg19
I16
sg20
I10
sa(dp743
g8
I750
sg4
I5
sg5
I0
sg6
g7
sg3
I0
sg9
I3
sg10
g11
sg12
I25
sg13
I9
sg14
I708
sg15
I1
sg16
I0
sg17
g22
sg19
I8
sg20
I10
sa(dp744
g8
I250
sg4
I5
sg5
I0
sg6
g18
sg3
I0
sg9
I3
sg10
g11
sg12
I25
sg13
I8
sg14
I709
sg15
I1
sg16
I1
sg17
g22
sg19
I16
sg20
I10
sa(dp745
g8
I750
sg4
I5
sg5
I0
sg6
g7
sg3
I0
sg9
I3
sg10
g11
sg12
I25
sg13
I9
sg14
I710
sg15
I1
sg16
I0
sg17
g22
sg19
I8
sg20
I10
sa(dp746
g8
I250
sg4
I5
sg5
I0
sg6
g18
sg3
I0
sg9
I3
sg10
g11
sg12
I25
sg13
I8
sg14
I711
sg15
I1
sg16
I1
sg17
g22
sg19
I16
sg20
I10
sa(dp747
g8
I750
sg4
I5
sg5
I0
sg6
g7
sg3
I0
sg9
I3
sg10
g11
sg12
I25
sg13
I9
sg14
I712
sg15
I1
sg16
I0
sg17
g22
sg19
I8
sg20
I10
sa(dp748
g8
I250
sg4
I5
sg5
I0
sg6
g18
sg3
I0
sg9
I3
sg10
g11
sg12
I25
sg13
I8
sg14
I713
sg15
I1
sg16
I1
sg17
g22
sg19
I16
sg20
I10
sa(dp749
g8
I750
sg4
I5
sg5
I0
sg6
g7
sg3
I0
sg9
I3
sg10
g11
sg12
I25
sg13
I9
sg14
I714
sg15
I1
sg16
I0
sg17
g22
sg19
I8
sg20
I10
sa(dp750
g8
I250
sg4
I5
sg5
I0
sg6
g18
sg3
I0
sg9
I3
sg10
g11
sg12
I25
sg13
I8
sg14
I715
sg15
I1
sg16
I1
sg17
g22
sg19
I16
sg20
I10
sa(dp751
g8
I750
sg4
I5
sg5
I0
sg6
g7
sg3
I0
sg9
I3
sg10
g11
sg12
I25
sg13
I9
sg14
I716
sg15
I1
sg16
I0
sg17
g22
sg19
I8
sg20
I10
sa(dp752
g8
I250
sg4
I5
sg5
I0
sg6
g18
sg3
I0
sg9
I3
sg10
g11
sg12
I25
sg13
I8
sg14
I717
sg15
I1
sg16
I1
sg17
g22
sg19
I16
sg20
I10
sa(dp753
g8
I750
sg4
I5
sg5
I0
sg6
g7
sg3
I0
sg9
I3
sg10
g11
sg12
I25
sg13
I9
sg14
I718
sg15
I1
sg16
I0
sg17
g22
sg19
I8
sg20
I10
sa(dp754
g8
I250
sg4
I5
sg5
I0
sg6
g18
sg3
I0
sg9
I3
sg10
g11
sg12
I25
sg13
I8
sg14
I719
sg15
I1
sg16
I1
sg17
g22
sg19
I16
sg20
I10
sa(dp755
g8
I750
sg4
I5
sg5
I0
sg6
g7
sg3
I0
sg9
I3
sg10
g11
sg12
I25
sg13
I9
sg14
I720
sg15
I1
sg16
I0
sg17
g22
sg19
I8
sg20
I10
sa(dp756
g8
I250
sg4
I5
sg5
I0
sg6
g18
sg3
I0
sg9
I3
sg10
g11
sg12
I25
sg13
I8
sg14
I721
sg15
I1
sg16
I1
sg17
g22
sg19
I16
sg20
I10
sa(dp757
g8
I750
sg4
I5
sg5
I0
sg6
g7
sg3
I0
sg9
I3
sg10
g11
sg12
I25
sg13
I9
sg14
I722
sg15
I1
sg16
I0
sg17
g22
sg19
I8
sg20
I10
sa(dp758
g8
I250
sg4
I5
sg5
I0
sg6
g18
sg3
I0
sg9
I3
sg10
g11
sg12
I25
sg13
I8
sg14
I723
sg15
I1
sg16
I1
sg17
g22
sg19
I16
sg20
I10
sa(dp759
g8
I750
sg4
I5
sg5
I0
sg6
g7
sg3
I0
sg9
I3
sg10
g11
sg12
I25
sg13
I9
sg14
I724
sg15
I1
sg16
I0
sg17
g22
sg19
I8
sg20
I10
sa(dp760
g8
I250
sg4
I5
sg5
I0
sg6
g18
sg3
I0
sg9
I3
sg10
g11
sg12
I25
sg13
I8
sg14
I725
sg15
I1
sg16
I1
sg17
g22
sg19
I16
sg20
I10
sa(dp761
g8
I750
sg4
I5
sg5
I0
sg6
g7
sg3
I0
sg9
I3
sg10
g11
sg12
I25
sg13
I9
sg14
I726
sg15
I1
sg16
I0
sg17
g22
sg19
I8
sg20
I10
sa(dp762
g8
I250
sg4
I5
sg5
I0
sg6
g18
sg3
I0
sg9
I3
sg10
g11
sg12
I25
sg13
I8
sg14
I727
sg15
I1
sg16
I1
sg17
g22
sg19
I16
sg20
I10
sa(dp763
g8
I750
sg4
I5
sg5
I0
sg6
g7
sg3
I0
sg9
I3
sg10
g11
sg12
I25
sg13
I9
sg14
I728
sg15
I1
sg16
I0
sg17
g22
sg19
I8
sg20
I10
sa(dp764
g8
I250
sg4
I5
sg5
I0
sg6
g18
sg3
I0
sg9
I3
sg10
g11
sg12
I25
sg13
I8
sg14
I729
sg15
I1
sg16
I1
sg17
g22
sg19
I16
sg20
I10
sa(dp765
g8
I750
sg4
I5
sg5
I0
sg6
g7
sg3
I0
sg9
I3
sg10
g11
sg12
I25
sg13
I9
sg14
I730
sg15
I1
sg16
I0
sg17
g22
sg19
I8
sg20
I10
sa(dp766
g8
I250
sg4
I5
sg5
I0
sg6
g18
sg3
I0
sg9
I3
sg10
g11
sg12
I25
sg13
I8
sg14
I731
sg15
I1
sg16
I1
sg17
g22
sg19
I16
sg20
I10
sa(dp767
g8
I750
sg4
I5
sg5
I0
sg6
g7
sg3
I0
sg9
I3
sg10
g11
sg12
I25
sg13
I9
sg14
I732
sg15
I1
sg16
I0
sg17
g22
sg19
I8
sg20
I10
sa(dp768
g8
I250
sg4
I5
sg5
I0
sg6
g18
sg3
I0
sg9
I3
sg10
g11
sg12
I25
sg13
I8
sg14
I733
sg15
I1
sg16
I1
sg17
g22
sg19
I16
sg20
I10
sa(dp769
g8
I750
sg4
I5
sg5
I0
sg6
g7
sg3
I0
sg9
I3
sg10
g11
sg12
I25
sg13
I9
sg14
I734
sg15
I1
sg16
I0
sg17
g22
sg19
I8
sg20
I10
sa(dp770
g8
I500
sg4
I5
sg5
I0
sg6
g7
sg3
I0
sg9
I8
sg10
g11
sg12
I25
sg13
I9
sg14
I735
sg15
I0
sg16
I0
sg17
g18
sg19
I30
sg20
I10
sa(dp771
g8
I250
sg4
I5
sg5
I0
sg6
g18
sg3
I0
sg9
I5
sg10
g11
sg12
I25
sg13
I8
sg14
I736
sg15
I0
sg16
I0
sg17
g85
sg19
I16
sg20
I10
sa.