(lp1
(dp2
S'reagent'
p3
S''
sS'pump'
p4
S'/dev/ttyUSB1'
p5
sS'port'
p6
I1
sa(dp7
g3
S'T4 ligase mix'
p8
sg4
g5
sg6
I2
sa(dp9
g3
S'1x instrument buffer 1'
p10
sg4
g5
sg6
I3
sa(dp11
g3
S''
sg4
g5
sg6
I4
sa(dp12
g3
S''
sg4
g5
sg6
I5
sa(dp13
g3
S''
sg4
g5
sg6
I6
sa(dp14
g3
S'Air 1'
p15
sg4
g5
sg6
I7
sa(dp16
g3
S'Output 1'
p17
sg4
g5
sg6
I8
sa(dp18
g3
S'Waste 1'
p19
sg4
g5
sg6
I9
sa(dp20
g3
S'Cleave solution 1'
p21
sg4
S'/dev/ttyUSB0'
p22
sg6
I1
sa(dp23
g3
S'Cleave solution 2.1'
p24
sg4
g22
sg6
I2
sa(dp25
g3
S'1x instrument buffer 2'
p26
sg4
g22
sg6
I3
sa(dp27
g3
S''
sg4
g22
sg6
I4
sa(dp28
g3
S''
sg4
g22
sg6
I5
sa(dp29
g3
S''
sg4
g22
sg6
I6
sa(dp30
g3
S'Air 2'
p31
sg4
g22
sg6
I7
sa(dp32
g3
S'Output 2'
p33
sg4
g22
sg6
I8
sa(dp34
g3
S'Waste 2'
p35
sg4
g22
sg6
I9
sa.(lp1
(dp2
S'waitsecs'
p3
I5
sS'toportreagent'
p4
S'Waste 1'
p5
sS'volume'
p6
I300
sS'toport'
p7
I9
sS'cmdnumber'
p8
I0
sS'speed'
p9
I30
sS'cycle'
p10
I0
sS'waitmins'
p11
I0
sS'temp'
p12
I25
sS'heatwhen'
p13
I0
sS'fromport'
p14
I8
sS'pump'
p15
S'/dev/ttyUSB1'
p16
sS'fromportreagent'
p17
S'Output 1'
p18
sS'waste'
p19
I0
sS'type'
p20
I0
sa(dp21
g3
I5
sg4
S'Waste 2'
p22
sg6
I300
sg7
I9
sg8
I1
sg9
I30
sg10
I0
sg11
I0
sg12
I25
sg13
I0
sg14
I8
sg15
S'/dev/ttyUSB0'
p23
sg17
S'Output 2'
p24
sg19
I0
sg20
I0
sa(dp25
g3
I5
sg4
S'Output 2'
p26
sg6
I130
sg7
I8
sg8
I2
sg9
I16
sg10
I0
sg11
I5
sg12
I25
sg13
I0
sg14
I1
sg15
g23
sg17
S'Cleave solution 1'
p27
sg19
I1
sg20
I1
sa(dp28
g3
I5
sg4
S'Output 2'
p29
sg6
I130
sg7
I8
sg8
I3
sg9
I16
sg10
I0
sg11
I5
sg12
I25
sg13
I0
sg14
I1
sg15
g23
sg17
S'Cleave solution 1'
p30
sg19
I1
sg20
I1
sa(dp31
g3
I5
sg4
S'Output 2'
p32
sg6
I130
sg7
I8
sg8
I4
sg9
I16
sg10
I0
sg11
I5
sg12
I25
sg13
I0
sg14
I2
sg15
g23
sg17
S'Cleave solution 2.1'
p33
sg19
I1
sg20
I1
sa(dp34
g3
I5
sg4
S'Output 2'
p35
sg6
I130
sg7
I8
sg8
I5
sg9
I16
sg10
I0
sg11
I5
sg12
I25
sg13
I0
sg14
I2
sg15
g23
sg17
S'Cleave solution 2.1'
p36
sg19
I1
sg20
I1
sa(dp37
g3
I5
sg4
S'Waste 2'
p38
sg6
I1000
sg7
I9
sg8
I6
sg9
I16
sg10
I0
sg11
I0
sg12
I25
sg13
I0
sg14
I3
sg15
g23
sg17
S'1x instrument buffer 2'
p39
sg19
I0
sg20
I0
sa(dp40
g3
I5
sg4
S'Waste 2'
p41
sg6
I1000
sg7
I9
sg8
I7
sg9
I16
sg10
I0
sg11
I0
sg12
I25
sg13
I0
sg14
I3
sg15
g23
sg17
S'1x instrument buffer 2'
p42
sg19
I0
sg20
I0
sa(dp43
g3
I5
sg4
S'Waste 2'
p44
sg6
I1000
sg7
I9
sg8
I8
sg9
I16
sg10
I0
sg11
I0
sg12
I25
sg13
I0
sg14
I3
sg15
g23
sg17
S'1x instrument buffer 2'
p45
sg19
I0
sg20
I0
sa(dp46
g3
I5
sg4
S'Waste 2'
p47
sg6
I1000
sg7
I9
sg8
I9
sg9
I16
sg10
I0
sg11
I0
sg12
I25
sg13
I0
sg14
I3
sg15
g23
sg17
S'1x instrument buffer 2'
p48
sg19
I0
sg20
I0
sa.