(lp1
(dp2
S'reagent'
p3
S'Cleave solution 1'
p4
sS'pump'
p5
S'/dev/ttyUSB1'
p6
sS'port'
p7
I1
sa(dp8
g3
S'Cleave 2 part 1'
p9
sg5
g6
sg7
I2
sa(dp10
g3
S'Cleave 2 part 2'
p11
sg5
g6
sg7
I3
sa(dp12
g3
S'Cleave solution 2.1'
p13
sg5
g6
sg7
I4
sa(dp14
g3
S'1x instrument - cleave'
p15
sg5
g6
sg7
I5
sa(dp16
g3
S'dH2O - cleave'
p17
sg5
g6
sg7
I6
sa(dp18
g3
S'Air 1'
p19
sg5
g6
sg7
I7
sa(dp20
g3
S'Output 1'
p21
sg5
g6
sg7
I8
sa(dp22
g3
S'Waste 1'
p23
sg5
g6
sg7
I9
sa(dp24
g3
S''
sg5
S'/dev/ttyUSB0'
p25
sg7
I1
sa(dp26
g3
S'T4 ligase mix'
p27
sg5
g25
sg7
I2
sa(dp28
g3
S'1x instrument - ligase'
p29
sg5
g25
sg7
I3
sa(dp30
g3
S'dH2O - ligase'
p31
sg5
g25
sg7
I4
sa(dp32
g3
S'Imaging buffer'
p33
sg5
g25
sg7
I5
sa(dp34
g3
S''
sg5
g25
sg7
I6
sa(dp35
g3
S'Air 2'
p36
sg5
g25
sg7
I7
sa(dp37
g3
S'Output 2'
p38
sg5
g25
sg7
I8
sa(dp39
g3
S'Waste 2'
p40
sg5
g25
sg7
I9
sa.(lp1
(dp2
S'waitsecs'
p3
I5
sS'toportreagent'
p4
S'Output 1'
p5
sS'waitmins'
p6
I0
sS'toport'
p7
I8
sS'cmdnumber'
p8
I0
sS'speed'
p9
I16
sS'cycle'
p10
I0
sS'volume'
p11
I1000
sS'heatwhen'
p12
I0
sS'temp'
p13
I25
sS'fromport'
p14
I3
sS'pump'
p15
S'/dev/ttyUSB0'
p16
sS'fromportreagent'
p17
S'1x instrument - cleave'
p18
sS'waste'
p19
I1
sS'type'
p20
I1
sa(dp21
g3
I5
sg4
g5
sg6
I0
sg7
I8
sg8
I1
sg9
I16
sg10
I0
sg11
I1000
sg12
I0
sg13
I25
sg14
I3
sg15
g16
sg17
g18
sg19
I1
sg20
I1
sa(dp22
g3
I5
sg4
S'Waste 1'
p23
sg6
I0
sg7
I9
sg8
I2
sg9
I30
sg10
I0
sg11
I400
sg12
I0
sg13
I25
sg14
I8
sg15
g16
sg17
g5
sg19
I0
sg20
I0
sa(dp24
g3
I5
sg4
S'Output 2'
p25
sg6
I0
sg7
I8
sg8
I3
sg9
I16
sg10
I0
sg11
I250
sg12
I0
sg13
I25
sg14
I2
sg15
g16
sg17
S'T4 ligase mix'
p26
sg19
I0
sg20
I0
sa(dp27
g3
I5
sg4
S'Waste 2'
p28
sg6
I0
sg7
I9
sg8
I4
sg9
I8
sg10
I0
sg11
I1000
sg12
I0
sg13
I25
sg14
I3
sg15
g16
sg17
S'1x instrument - ligase'
p29
sg19
I0
sg20
I0
sa(dp30
g3
I5
sg4
g28
sg6
I0
sg7
I9
sg8
I5
sg9
I8
sg10
I0
sg11
I1000
sg12
I0
sg13
I25
sg14
I3
sg15
g16
sg17
g29
sg19
I0
sg20
I0
sa(dp31
g3
I5
sg4
g28
sg6
I0
sg7
I9
sg8
I6
sg9
I8
sg10
I0
sg11
I1000
sg12
I0
sg13
I25
sg14
I3
sg15
g16
sg17
g29
sg19
I0
sg20
I0
sa(dp32
g3
I5
sg4
g28
sg6
I45
sg7
I9
sg8
I7
sg9
I16
sg10
I0
sg11
I1000
sg12
I0
sg13
I25
sg14
I3
sg15
g16
sg17
g29
sg19
I0
sg20
I0
sa(dp33
g3
I5
sg4
g28
sg6
I0
sg7
I9
sg8
I8
sg9
I30
sg10
I0
sg11
I400
sg12
I0
sg13
I25
sg14
I8
sg15
g16
sg17
g25
sg19
I0
sg20
I0
sa(dp34
g3
I5
sg4
g28
sg6
I0
sg7
I9
sg8
I9
sg9
I8
sg10
I0
sg11
I1000
sg12
I0
sg13
I25
sg14
I3
sg15
g16
sg17
g29
sg19
I0
sg20
I0
sa(dp35
g3
I5
sg4
g28
sg6
I0
sg7
I9
sg8
I10
sg9
I8
sg10
I0
sg11
I1000
sg12
I0
sg13
I25
sg14
I3
sg15
g16
sg17
g29
sg19
I0
sg20
I0
sa(dp36
g3
I5
sg4
g28
sg6
I0
sg7
I9
sg8
I11
sg9
I8
sg10
I0
sg11
I1000
sg12
I0
sg13
I25
sg14
I3
sg15
g16
sg17
g29
sg19
I0
sg20
I0
sa(dp37
g3
I5
sg4
g25
sg6
I5
sg7
I8
sg8
I12
sg9
I16
sg10
I0
sg11
I1000
sg12
I0
sg13
I25
sg14
I3
sg15
g16
sg17
g29
sg19
I1
sg20
I1
sa(dp38
g3
I5
sg4
g25
sg6
I5
sg7
I8
sg8
I13
sg9
I16
sg10
I0
sg11
I1000
sg12
I0
sg13
I25
sg14
I3
sg15
g16
sg17
g29
sg19
I1
sg20
I1
sa(dp39
g3
I5
sg4
g25
sg6
I5
sg7
I8
sg8
I14
sg9
I16
sg10
I0
sg11
I1000
sg12
I0
sg13
I25
sg14
I3
sg15
g16
sg17
g29
sg19
I1
sg20
I1
sa(dp40
g3
I5
sg4
g25
sg6
I5
sg7
I8
sg8
I15
sg9
I16
sg10
I0
sg11
I1000
sg12
I0
sg13
I25
sg14
I3
sg15
g16
sg17
g29
sg19
I1
sg20
I1
sa(dp41
g3
I5
sg4
g25
sg6
I0
sg7
I8
sg8
I16
sg9
I16
sg10
I0
sg11
I750
sg12
I0
sg13
I25
sg14
I5
sg15
g16
sg17
S'Imaging buffer'
p42
sg19
I0
sg20
I0
sa(dp43
g6
I0
sg3
I5
sg12
I0
sg4
g28
sg11
I1000
sg14
I8
sg15
g16
sg13
I25
sg7
I9
sg8
I17
sg19
I0
sg20
I0
sg17
g25
sg9
I30
sg10
I1
sa(dp44
g6
I0
sg3
I5
sg12
I0
sg4
S'Cleave solution 1'
p45
sg11
I700
sg14
I1
sg15
S'/dev/ttyUSB1'
p46
sg13
I25
sg7
I1
sg8
I18
sg19
I0
sg20
I0
sg17
g45
sg9
I21
sg10
I1
sa(dp47
g6
I0
sg3
I5
sg12
I0
sg4
g5
sg11
I300
sg14
I1
sg15
g46
sg13
I25
sg7
I8
sg8
I19
sg19
I0
sg20
I0
sg17
g45
sg9
I20
sg10
I1
sa(dp48
g6
I5
sg3
I5
sg12
I0
sg4
g5
sg11
I35
sg14
I7
sg15
g46
sg13
I25
sg7
I8
sg8
I20
sg19
I0
sg20
I0
sg17
S'Air 1'
p49
sg9
I25
sg10
I1
sa(dp50
g6
I0
sg3
I5
sg12
I0
sg4
g28
sg11
I400
sg14
I8
sg15
g16
sg13
I25
sg7
I9
sg8
I21
sg19
I0
sg20
I0
sg17
g25
sg9
I30
sg10
I1
sa(dp51
g6
I0
sg3
I5
sg12
I0
sg4
g5
sg11
I300
sg14
I1
sg15
g46
sg13
I25
sg7
I8
sg8
I22
sg19
I0
sg20
I0
sg17
g45
sg9
I20
sg10
I1
sa(dp52
g6
I5
sg3
I5
sg12
I0
sg4
g5
sg11
I35
sg14
I7
sg15
g46
sg13
I25
sg7
I8
sg8
I23
sg19
I0
sg20
I0
sg17
g49
sg9
I25
sg10
I1
sa(dp53
g6
I0
sg3
I5
sg12
I0
sg4
g28
sg11
I400
sg14
I8
sg15
g16
sg13
I25
sg7
I9
sg8
I24
sg19
I0
sg20
I0
sg17
g25
sg9
I30
sg10
I1
sa(dp54
g6
I0
sg3
I5
sg12
I0
sg4
g23
sg11
I4000
sg14
I6
sg15
g46
sg13
I25
sg7
I9
sg8
I25
sg19
I0
sg20
I0
sg17
S'dH2O - cleave'
p55
sg9
I8
sg10
I1
sa(dp56
g6
I0
sg3
I5
sg12
I0
sg4
g23
sg11
I4000
sg14
I6
sg15
g46
sg13
I25
sg7
I9
sg8
I26
sg19
I0
sg20
I0
sg17
g55
sg9
I8
sg10
I1
sa(dp57
g6
I0
sg3
I5
sg12
I0
sg4
g23
sg11
I4000
sg14
I5
sg15
g46
sg13
I25
sg7
I9
sg8
I27
sg19
I0
sg20
I0
sg17
g18
sg9
I8
sg10
I1
sa(dp58
g6
I0
sg3
I5
sg12
I0
sg4
g23
sg11
I4000
sg14
I5
sg15
g46
sg13
I25
sg7
I9
sg8
I28
sg19
I0
sg20
I0
sg17
g18
sg9
I8
sg10
I1
sa(dp59
g6
I0
sg3
I5
sg12
I0
sg4
g5
sg11
I900
sg14
I5
sg15
g46
sg13
I25
sg7
I8
sg8
I29
sg19
I0
sg20
I0
sg17
g18
sg9
I20
sg10
I1
sa(dp60
g6
I0
sg3
I5
sg12
I0
sg4
g45
sg11
I700
sg14
I7
sg15
g46
sg13
I25
sg7
I1
sg8
I30
sg19
I0
sg20
I0
sg17
g49
sg9
I21
sg10
I1
sa(dp61
g6
I0
sg3
I5
sg12
I0
sg4
S'Cleave 2 part 1'
p62
sg11
I700
sg14
I2
sg15
g46
sg13
I25
sg7
I2
sg8
I31
sg19
I0
sg20
I0
sg17
g62
sg9
I21
sg10
I1
sa(dp63
g6
I0
sg3
I5
sg12
I0
sg4
S'Cleave solution 2.1'
p64
sg11
I270
sg14
I2
sg15
g46
sg13
I25
sg7
I4
sg8
I32
sg19
I0
sg20
I0
sg17
g62
sg9
I20
sg10
I1
sa(dp65
g6
I0
sg3
I5
sg12
I0
sg4
g64
sg11
I700
sg14
I7
sg15
g46
sg13
I25
sg7
I4
sg8
I33
sg19
I0
sg20
I0
sg17
g49
sg9
I21
sg10
I1
sa(dp66
g6
I0
sg3
I5
sg12
I0
sg4
g62
sg11
I700
sg14
I7
sg15
g46
sg13
I25
sg7
I2
sg8
I34
sg19
I0
sg20
I0
sg17
g49
sg9
I21
sg10
I1
sa(dp67
g6
I0
sg3
I5
sg12
I0
sg4
g23
sg11
I4000
sg14
I6
sg15
g46
sg13
I25
sg7
I9
sg8
I35
sg19
I0
sg20
I0
sg17
g55
sg9
I8
sg10
I1
sa(dp68
g6
I0
sg3
I5
sg12
I0
sg4
g23
sg11
I4000
sg14
I6
sg15
g46
sg13
I25
sg7
I9
sg8
I36
sg19
I0
sg20
I0
sg17
g55
sg9
I8
sg10
I1
sa(dp69
g6
I0
sg3
I5
sg12
I0
sg4
g23
sg11
I4000
sg14
I5
sg15
g46
sg13
I25
sg7
I9
sg8
I37
sg19
I0
sg20
I0
sg17
g18
sg9
I8
sg10
I1
sa(dp70
g6
I0
sg3
I5
sg12
I0
sg4
g23
sg11
I4000
sg14
I5
sg15
g46
sg13
I25
sg7
I9
sg8
I38
sg19
I0
sg20
I0
sg17
g18
sg9
I8
sg10
I1
sa(dp71
g6
I0
sg3
I5
sg12
I0
sg4
S'Cleave 2 part 2'
p72
sg11
I700
sg14
I3
sg15
g46
sg13
I25
sg7
I3
sg8
I39
sg19
I0
sg20
I0
sg17
g72
sg9
I21
sg10
I1
sa(dp73
g6
I0
sg3
I5
sg12
I0
sg4
g64
sg11
I750
sg14
I3
sg15
g46
sg13
I25
sg7
I4
sg8
I40
sg19
I0
sg20
I0
sg17
g72
sg9
I20
sg10
I1
sa(dp74
g6
I0
sg3
I5
sg12
I0
sg4
g64
sg11
I700
sg14
I7
sg15
g46
sg13
I25
sg7
I4
sg8
I41
sg19
I0
sg20
I0
sg17
g49
sg9
I21
sg10
I1
sa(dp75
g6
I0
sg3
I5
sg12
I0
sg4
g72
sg11
I700
sg14
I7
sg15
g46
sg13
I25
sg7
I3
sg8
I42
sg19
I0
sg20
I0
sg17
g49
sg9
I21
sg10
I1
sa(dp76
g6
I0
sg3
I5
sg12
I0
sg4
g64
sg11
I4500
sg14
I7
sg15
g46
sg13
I25
sg7
I4
sg8
I43
sg19
I0
sg20
I0
sg17
g49
sg9
I8
sg10
I1
sa(dp77
g6
I0
sg3
I5
sg12
I0
sg4
g28
sg11
I1000
sg14
I8
sg15
g16
sg13
I25
sg7
I9
sg8
I44
sg19
I0
sg20
I0
sg17
g25
sg9
I30
sg10
I1
sa(dp78
g6
I0
sg3
I5
sg12
I0
sg4
g64
sg11
I700
sg14
I4
sg15
g46
sg13
I25
sg7
I4
sg8
I45
sg19
I0
sg20
I0
sg17
g64
sg9
I21
sg10
I1
sa(dp79
g6
I0
sg3
I5
sg12
I0
sg4
g5
sg11
I300
sg14
I4
sg15
g46
sg13
I25
sg7
I8
sg8
I46
sg19
I0
sg20
I0
sg17
g64
sg9
I20
sg10
I1
sa(dp80
g6
I0
sg3
I5
sg12
I0
sg4
g5
sg11
I35
sg14
I7
sg15
g46
sg13
I25
sg7
I8
sg8
I47
sg19
I0
sg20
I0
sg17
g49
sg9
I25
sg10
I1
sa(dp81
g6
I5
sg3
I5
sg12
I0
sg4
g64
sg11
I700
sg14
I7
sg15
g46
sg13
I25
sg7
I4
sg8
I48
sg19
I0
sg20
I0
sg17
g49
sg9
I21
sg10
I1
sa(dp82
g6
I0
sg3
I5
sg12
I0
sg4
g28
sg11
I400
sg14
I8
sg15
g16
sg13
I25
sg7
I9
sg8
I49
sg19
I0
sg20
I0
sg17
g25
sg9
I30
sg10
I1
sa(dp83
g6
I0
sg3
I5
sg12
I0
sg4
g64
sg11
I700
sg14
I4
sg15
g46
sg13
I25
sg7
I4
sg8
I50
sg19
I0
sg20
I0
sg17
g64
sg9
I21
sg10
I1
sa(dp84
g6
I0
sg3
I5
sg12
I0
sg4
g5
sg11
I300
sg14
I4
sg15
g46
sg13
I25
sg7
I8
sg8
I51
sg19
I0
sg20
I0
sg17
g64
sg9
I20
sg10
I1
sa(dp85
g6
I0
sg3
I5
sg12
I0
sg4
g5
sg11
I35
sg14
I7
sg15
g46
sg13
I25
sg7
I8
sg8
I52
sg19
I0
sg20
I0
sg17
g49
sg9
I25
sg10
I1
sa(dp86
g6
I5
sg3
I5
sg12
I0
sg4
g64
sg11
I700
sg14
I7
sg15
g46
sg13
I25
sg7
I4
sg8
I53
sg19
I0
sg20
I0
sg17
g49
sg9
I21
sg10
I1
sa(dp87
g6
I0
sg3
I5
sg12
I0
sg4
g28
sg11
I400
sg14
I8
sg15
g16
sg13
I25
sg7
I9
sg8
I54
sg19
I0
sg20
I0
sg17
g25
sg9
I30
sg10
I1
sa(dp88
g6
I0
sg3
I5
sg12
I0
sg4
g23
sg11
I2000
sg14
I4
sg15
g46
sg13
I25
sg7
I9
sg8
I55
sg19
I0
sg20
I0
sg17
g64
sg9
I16
sg10
I1
sa(dp89
g6
I0
sg3
I5
sg12
I0
sg4
g23
sg11
I4000
sg14
I6
sg15
g46
sg13
I25
sg7
I9
sg8
I56
sg19
I0
sg20
I0
sg17
g55
sg9
I8
sg10
I1
sa(dp90
g6
I0
sg3
I5
sg12
I0
sg4
g23
sg11
I4000
sg14
I6
sg15
g46
sg13
I25
sg7
I9
sg8
I57
sg19
I0
sg20
I0
sg17
g55
sg9
I8
sg10
I1
sa(dp91
g6
I0
sg3
I5
sg12
I0
sg4
g23
sg11
I4000
sg14
I5
sg15
g46
sg13
I25
sg7
I9
sg8
I58
sg19
I0
sg20
I0
sg17
g18
sg9
I8
sg10
I1
sa(dp92
g6
I0
sg3
I5
sg12
I0
sg4
g23
sg11
I4000
sg14
I5
sg15
g46
sg13
I25
sg7
I9
sg8
I59
sg19
I0
sg20
I0
sg17
g18
sg9
I8
sg10
I1
sa(dp93
g6
I5
sg3
I5
sg12
I0
sg4
g5
sg11
I900
sg14
I5
sg15
g46
sg13
I25
sg7
I8
sg8
I60
sg19
I0
sg20
I0
sg17
g18
sg9
I20
sg10
I1
sa(dp94
g6
I0
sg3
I5
sg12
I0
sg4
g28
sg11
I1000
sg14
I8
sg15
g16
sg13
I25
sg7
I9
sg8
I61
sg19
I0
sg20
I0
sg17
g25
sg9
I30
sg10
I1
sa(dp95
g6
I5
sg3
I5
sg12
I0
sg4
g5
sg11
I900
sg14
I5
sg15
g46
sg13
I25
sg7
I8
sg8
I62
sg19
I0
sg20
I0
sg17
g18
sg9
I20
sg10
I1
sa(dp96
g6
I0
sg3
I5
sg12
I0
sg4
g28
sg11
I1000
sg14
I8
sg15
g16
sg13
I25
sg7
I9
sg8
I63
sg19
I0
sg20
I0
sg17
g25
sg9
I30
sg10
I1
sa(dp97
g6
I5
sg3
I5
sg12
I0
sg4
g5
sg11
I900
sg14
I5
sg15
g46
sg13
I25
sg7
I8
sg8
I64
sg19
I0
sg20
I0
sg17
g18
sg9
I20
sg10
I1
sa(dp98
g6
I0
sg3
I5
sg12
I0
sg4
g28
sg11
I1000
sg14
I8
sg15
g16
sg13
I25
sg7
I9
sg8
I65
sg19
I0
sg20
I0
sg17
g25
sg9
I30
sg10
I1
sa(dp99
g6
I0
sg3
I5
sg12
I0
sg4
g28
sg11
I1000
sg14
I4
sg15
g16
sg13
I25
sg7
I9
sg8
I66
sg19
I0
sg20
I0
sg17
S'dH2O - ligase'
p100
sg9
I8
sg10
I1
sa(dp101
g6
I0
sg3
I5
sg12
I0
sg4
g28
sg11
I1000
sg14
I4
sg15
g16
sg13
I25
sg7
I9
sg8
I67
sg19
I0
sg20
I0
sg17
g100
sg9
I8
sg10
I1
sa(dp102
g6
I0
sg3
I5
sg12
I0
sg4
g28
sg11
I1000
sg14
I4
sg15
g16
sg13
I25
sg7
I9
sg8
I68
sg19
I0
sg20
I0
sg17
g100
sg9
I8
sg10
I1
sa(dp103
g6
I0
sg3
I5
sg12
I0
sg4
g28
sg11
I1000
sg14
I4
sg15
g16
sg13
I25
sg7
I9
sg8
I69
sg19
I0
sg20
I0
sg17
g100
sg9
I8
sg10
I1
sa(dp104
g6
I0
sg3
I5
sg12
I0
sg4
g28
sg11
I1000
sg14
I3
sg15
g16
sg13
I25
sg7
I9
sg8
I70
sg19
I0
sg20
I0
sg17
g29
sg9
I8
sg10
I1
sa(dp105
g6
I0
sg3
I5
sg12
I0
sg4
g28
sg11
I1000
sg14
I3
sg15
g16
sg13
I25
sg7
I9
sg8
I71
sg19
I0
sg20
I0
sg17
g29
sg9
I8
sg10
I1
sa(dp106
g6
I0
sg3
I5
sg12
I0
sg4
g28
sg11
I1000
sg14
I3
sg15
g16
sg13
I25
sg7
I9
sg8
I72
sg19
I0
sg20
I0
sg17
g29
sg9
I8
sg10
I1
sa(dp107
g6
I0
sg3
I5
sg12
I0
sg4
g28
sg11
I1000
sg14
I3
sg15
g16
sg13
I25
sg7
I9
sg8
I73
sg19
I0
sg20
I0
sg17
g29
sg9
I8
sg10
I1
sa(dp108
g6
I0
sg3
I5
sg12
I0
sg4
g28
sg11
I1000
sg14
I3
sg15
g16
sg13
I25
sg7
I9
sg8
I74
sg19
I0
sg20
I0
sg17
g29
sg9
I8
sg10
I1
sa(dp109
g6
I0
sg3
I5
sg12
I0
sg4
g5
sg11
I900
sg14
I5
sg15
g46
sg13
I25
sg7
I8
sg8
I75
sg19
I0
sg20
I0
sg17
g18
sg9
I20
sg10
I1
sa(dp110
g11
I1000
sg3
I5
sg12
I0
sg4
g5
sg6
I0
sg14
I3
sg15
g16
sg13
I25
sg20
I1
sg7
I8
sg8
I76
sg19
I1
sg9
I16
sg17
g18
sg10
I2
sa(dp111
g11
I1000
sg3
I5
sg12
I0
sg4
g5
sg6
I0
sg14
I3
sg15
g16
sg13
I25
sg20
I1
sg7
I8
sg8
I77
sg19
I1
sg9
I16
sg17
g18
sg10
I2
sa(dp112
g11
I400
sg3
I5
sg12
I0
sg4
g23
sg6
I0
sg14
I8
sg15
g16
sg13
I25
sg20
I0
sg7
I9
sg8
I78
sg19
I0
sg9
I30
sg17
g5
sg10
I2
sa(dp113
g11
I250
sg3
I5
sg12
I0
sg4
g25
sg6
I0
sg14
I2
sg15
g16
sg13
I25
sg20
I0
sg7
I8
sg8
I79
sg19
I0
sg9
I16
sg17
g26
sg10
I2
sa(dp114
g11
I1000
sg3
I5
sg12
I0
sg4
g28
sg6
I0
sg14
I3
sg15
g16
sg13
I25
sg20
I0
sg7
I9
sg8
I80
sg19
I0
sg9
I8
sg17
g29
sg10
I2
sa(dp115
g11
I1000
sg3
I5
sg12
I0
sg4
g28
sg6
I0
sg14
I3
sg15
g16
sg13
I25
sg20
I0
sg7
I9
sg8
I81
sg19
I0
sg9
I8
sg17
g29
sg10
I2
sa(dp116
g11
I1000
sg3
I5
sg12
I0
sg4
g28
sg6
I0
sg14
I3
sg15
g16
sg13
I25
sg20
I0
sg7
I9
sg8
I82
sg19
I0
sg9
I8
sg17
g29
sg10
I2
sa(dp117
g11
I1000
sg3
I5
sg12
I0
sg4
g28
sg6
I45
sg14
I3
sg15
g16
sg13
I25
sg20
I0
sg7
I9
sg8
I83
sg19
I0
sg9
I16
sg17
g29
sg10
I2
sa(dp118
g11
I400
sg3
I5
sg12
I0
sg4
g28
sg6
I0
sg14
I8
sg15
g16
sg13
I25
sg20
I0
sg7
I9
sg8
I84
sg19
I0
sg9
I30
sg17
g25
sg10
I2
sa(dp119
g11
I1000
sg3
I5
sg12
I0
sg4
g28
sg6
I0
sg14
I3
sg15
g16
sg13
I25
sg20
I0
sg7
I9
sg8
I85
sg19
I0
sg9
I8
sg17
g29
sg10
I2
sa(dp120
g11
I1000
sg3
I5
sg12
I0
sg4
g28
sg6
I0
sg14
I3
sg15
g16
sg13
I25
sg20
I0
sg7
I9
sg8
I86
sg19
I0
sg9
I8
sg17
g29
sg10
I2
sa(dp121
g11
I1000
sg3
I5
sg12
I0
sg4
g28
sg6
I0
sg14
I3
sg15
g16
sg13
I25
sg20
I0
sg7
I9
sg8
I87
sg19
I0
sg9
I8
sg17
g29
sg10
I2
sa(dp122
g11
I1000
sg3
I5
sg12
I0
sg4
g25
sg6
I5
sg14
I3
sg15
g16
sg13
I25
sg20
I1
sg7
I8
sg8
I88
sg19
I1
sg9
I16
sg17
g29
sg10
I2
sa(dp123
g11
I1000
sg3
I5
sg12
I0
sg4
g25
sg6
I5
sg14
I3
sg15
g16
sg13
I25
sg20
I1
sg7
I8
sg8
I89
sg19
I1
sg9
I16
sg17
g29
sg10
I2
sa(dp124
g11
I1000
sg3
I5
sg12
I0
sg4
g25
sg6
I5
sg14
I3
sg15
g16
sg13
I25
sg20
I1
sg7
I8
sg8
I90
sg19
I1
sg9
I16
sg17
g29
sg10
I2
sa(dp125
g11
I1000
sg3
I5
sg12
I0
sg4
g25
sg6
I5
sg14
I3
sg15
g16
sg13
I25
sg20
I1
sg7
I8
sg8
I91
sg19
I1
sg9
I16
sg17
g29
sg10
I2
sa(dp126
g11
I750
sg3
I5
sg12
I0
sg4
g25
sg6
I0
sg14
I5
sg15
g16
sg13
I25
sg20
I0
sg7
I8
sg8
I92
sg19
I0
sg9
I16
sg17
g42
sg10
I2
sa(dp127
g6
I0
sg3
I5
sg12
I0
sg4
g28
sg11
I1000
sg14
I8
sg15
g16
sg13
I25
sg7
I9
sg8
I93
sg19
I0
sg20
I0
sg17
g25
sg9
I30
sg10
I3
sa(dp128
g6
I0
sg3
I5
sg12
I0
sg4
g45
sg11
I700
sg14
I1
sg15
g46
sg13
I25
sg7
I1
sg8
I94
sg19
I0
sg20
I0
sg17
g45
sg9
I21
sg10
I3
sa(dp129
g6
I0
sg3
I5
sg12
I0
sg4
g5
sg11
I300
sg14
I1
sg15
g46
sg13
I25
sg7
I8
sg8
I95
sg19
I0
sg20
I0
sg17
g45
sg9
I20
sg10
I3
sa(dp130
g6
I5
sg3
I5
sg12
I0
sg4
g5
sg11
I35
sg14
I7
sg15
g46
sg13
I25
sg7
I8
sg8
I96
sg19
I0
sg20
I0
sg17
g49
sg9
I25
sg10
I3
sa(dp131
g6
I0
sg3
I5
sg12
I0
sg4
g28
sg11
I400
sg14
I8
sg15
g16
sg13
I25
sg7
I9
sg8
I97
sg19
I0
sg20
I0
sg17
g25
sg9
I30
sg10
I3
sa(dp132
g6
I0
sg3
I5
sg12
I0
sg4
g5
sg11
I300
sg14
I1
sg15
g46
sg13
I25
sg7
I8
sg8
I98
sg19
I0
sg20
I0
sg17
g45
sg9
I20
sg10
I3
sa(dp133
g6
I5
sg3
I5
sg12
I0
sg4
g5
sg11
I35
sg14
I7
sg15
g46
sg13
I25
sg7
I8
sg8
I99
sg19
I0
sg20
I0
sg17
g49
sg9
I25
sg10
I3
sa(dp134
g6
I0
sg3
I5
sg12
I0
sg4
g28
sg11
I400
sg14
I8
sg15
g16
sg13
I25
sg7
I9
sg8
I100
sg19
I0
sg20
I0
sg17
g25
sg9
I30
sg10
I3
sa(dp135
g6
I0
sg3
I5
sg12
I0
sg4
g23
sg11
I4000
sg14
I6
sg15
g46
sg13
I25
sg7
I9
sg8
I101
sg19
I0
sg20
I0
sg17
g55
sg9
I8
sg10
I3
sa(dp136
g6
I0
sg3
I5
sg12
I0
sg4
g23
sg11
I4000
sg14
I6
sg15
g46
sg13
I25
sg7
I9
sg8
I102
sg19
I0
sg20
I0
sg17
g55
sg9
I8
sg10
I3
sa(dp137
g6
I0
sg3
I5
sg12
I0
sg4
g23
sg11
I4000
sg14
I5
sg15
g46
sg13
I25
sg7
I9
sg8
I103
sg19
I0
sg20
I0
sg17
g18
sg9
I8
sg10
I3
sa(dp138
g6
I0
sg3
I5
sg12
I0
sg4
g23
sg11
I4000
sg14
I5
sg15
g46
sg13
I25
sg7
I9
sg8
I104
sg19
I0
sg20
I0
sg17
g18
sg9
I8
sg10
I3
sa(dp139
g6
I0
sg3
I5
sg12
I0
sg4
g5
sg11
I900
sg14
I5
sg15
g46
sg13
I25
sg7
I8
sg8
I105
sg19
I0
sg20
I0
sg17
g18
sg9
I20
sg10
I3
sa(dp140
g6
I0
sg3
I5
sg12
I0
sg4
g45
sg11
I700
sg14
I7
sg15
g46
sg13
I25
sg7
I1
sg8
I106
sg19
I0
sg20
I0
sg17
g49
sg9
I21
sg10
I3
sa(dp141
g6
I0
sg3
I5
sg12
I0
sg4
g62
sg11
I700
sg14
I2
sg15
g46
sg13
I25
sg7
I2
sg8
I107
sg19
I0
sg20
I0
sg17
g62
sg9
I21
sg10
I3
sa(dp142
g6
I0
sg3
I5
sg12
I0
sg4
g64
sg11
I270
sg14
I2
sg15
g46
sg13
I25
sg7
I4
sg8
I108
sg19
I0
sg20
I0
sg17
g62
sg9
I20
sg10
I3
sa(dp143
g6
I0
sg3
I5
sg12
I0
sg4
g64
sg11
I700
sg14
I7
sg15
g46
sg13
I25
sg7
I4
sg8
I109
sg19
I0
sg20
I0
sg17
g49
sg9
I21
sg10
I3
sa(dp144
g6
I0
sg3
I5
sg12
I0
sg4
g62
sg11
I700
sg14
I7
sg15
g46
sg13
I25
sg7
I2
sg8
I110
sg19
I0
sg20
I0
sg17
g49
sg9
I21
sg10
I3
sa(dp145
g6
I0
sg3
I5
sg12
I0
sg4
g23
sg11
I4000
sg14
I6
sg15
g46
sg13
I25
sg7
I9
sg8
I111
sg19
I0
sg20
I0
sg17
g55
sg9
I8
sg10
I3
sa(dp146
g6
I0
sg3
I5
sg12
I0
sg4
g23
sg11
I4000
sg14
I6
sg15
g46
sg13
I25
sg7
I9
sg8
I112
sg19
I0
sg20
I0
sg17
g55
sg9
I8
sg10
I3
sa(dp147
g6
I0
sg3
I5
sg12
I0
sg4
g23
sg11
I4000
sg14
I5
sg15
g46
sg13
I25
sg7
I9
sg8
I113
sg19
I0
sg20
I0
sg17
g18
sg9
I8
sg10
I3
sa(dp148
g6
I0
sg3
I5
sg12
I0
sg4
g23
sg11
I4000
sg14
I5
sg15
g46
sg13
I25
sg7
I9
sg8
I114
sg19
I0
sg20
I0
sg17
g18
sg9
I8
sg10
I3
sa(dp149
g6
I0
sg3
I5
sg12
I0
sg4
g72
sg11
I700
sg14
I3
sg15
g46
sg13
I25
sg7
I3
sg8
I115
sg19
I0
sg20
I0
sg17
g72
sg9
I21
sg10
I3
sa(dp150
g6
I0
sg3
I5
sg12
I0
sg4
g64
sg11
I750
sg14
I3
sg15
g46
sg13
I25
sg7
I4
sg8
I116
sg19
I0
sg20
I0
sg17
g72
sg9
I20
sg10
I3
sa(dp151
g6
I0
sg3
I5
sg12
I0
sg4
g64
sg11
I700
sg14
I7
sg15
g46
sg13
I25
sg7
I4
sg8
I117
sg19
I0
sg20
I0
sg17
g49
sg9
I21
sg10
I3
sa(dp152
g6
I0
sg3
I5
sg12
I0
sg4
g72
sg11
I700
sg14
I7
sg15
g46
sg13
I25
sg7
I3
sg8
I118
sg19
I0
sg20
I0
sg17
g49
sg9
I21
sg10
I3
sa(dp153
g6
I0
sg3
I5
sg12
I0
sg4
g64
sg11
I4500
sg14
I7
sg15
g46
sg13
I25
sg7
I4
sg8
I119
sg19
I0
sg20
I0
sg17
g49
sg9
I8
sg10
I3
sa(dp154
g6
I0
sg3
I5
sg12
I0
sg4
g28
sg11
I1000
sg14
I8
sg15
g16
sg13
I25
sg7
I9
sg8
I120
sg19
I0
sg20
I0
sg17
g25
sg9
I30
sg10
I3
sa(dp155
g6
I0
sg3
I5
sg12
I0
sg4
g64
sg11
I700
sg14
I4
sg15
g46
sg13
I25
sg7
I4
sg8
I121
sg19
I0
sg20
I0
sg17
g64
sg9
I21
sg10
I3
sa(dp156
g6
I0
sg3
I5
sg12
I0
sg4
g5
sg11
I300
sg14
I4
sg15
g46
sg13
I25
sg7
I8
sg8
I122
sg19
I0
sg20
I0
sg17
g64
sg9
I20
sg10
I3
sa(dp157
g6
I0
sg3
I5
sg12
I0
sg4
g5
sg11
I35
sg14
I7
sg15
g46
sg13
I25
sg7
I8
sg8
I123
sg19
I0
sg20
I0
sg17
g49
sg9
I25
sg10
I3
sa(dp158
g6
I5
sg3
I5
sg12
I0
sg4
g64
sg11
I700
sg14
I7
sg15
g46
sg13
I25
sg7
I4
sg8
I124
sg19
I0
sg20
I0
sg17
g49
sg9
I21
sg10
I3
sa(dp159
g6
I0
sg3
I5
sg12
I0
sg4
g28
sg11
I400
sg14
I8
sg15
g16
sg13
I25
sg7
I9
sg8
I125
sg19
I0
sg20
I0
sg17
g25
sg9
I30
sg10
I3
sa(dp160
g6
I0
sg3
I5
sg12
I0
sg4
g64
sg11
I700
sg14
I4
sg15
g46
sg13
I25
sg7
I4
sg8
I126
sg19
I0
sg20
I0
sg17
g64
sg9
I21
sg10
I3
sa(dp161
g6
I0
sg3
I5
sg12
I0
sg4
g5
sg11
I300
sg14
I4
sg15
g46
sg13
I25
sg7
I8
sg8
I127
sg19
I0
sg20
I0
sg17
g64
sg9
I20
sg10
I3
sa(dp162
g6
I0
sg3
I5
sg12
I0
sg4
g5
sg11
I35
sg14
I7
sg15
g46
sg13
I25
sg7
I8
sg8
I128
sg19
I0
sg20
I0
sg17
g49
sg9
I25
sg10
I3
sa(dp163
g6
I5
sg3
I5
sg12
I0
sg4
g64
sg11
I700
sg14
I7
sg15
g46
sg13
I25
sg7
I4
sg8
I129
sg19
I0
sg20
I0
sg17
g49
sg9
I21
sg10
I3
sa(dp164
g6
I0
sg3
I5
sg12
I0
sg4
g28
sg11
I400
sg14
I8
sg15
g16
sg13
I25
sg7
I9
sg8
I130
sg19
I0
sg20
I0
sg17
g25
sg9
I30
sg10
I3
sa(dp165
g6
I0
sg3
I5
sg12
I0
sg4
g23
sg11
I2000
sg14
I4
sg15
g46
sg13
I25
sg7
I9
sg8
I131
sg19
I0
sg20
I0
sg17
g64
sg9
I16
sg10
I3
sa(dp166
g6
I0
sg3
I5
sg12
I0
sg4
g23
sg11
I4000
sg14
I6
sg15
g46
sg13
I25
sg7
I9
sg8
I132
sg19
I0
sg20
I0
sg17
g55
sg9
I8
sg10
I3
sa(dp167
g6
I0
sg3
I5
sg12
I0
sg4
g23
sg11
I4000
sg14
I6
sg15
g46
sg13
I25
sg7
I9
sg8
I133
sg19
I0
sg20
I0
sg17
g55
sg9
I8
sg10
I3
sa(dp168
g6
I0
sg3
I5
sg12
I0
sg4
g23
sg11
I4000
sg14
I5
sg15
g46
sg13
I25
sg7
I9
sg8
I134
sg19
I0
sg20
I0
sg17
g18
sg9
I8
sg10
I3
sa(dp169
g6
I0
sg3
I5
sg12
I0
sg4
g23
sg11
I4000
sg14
I5
sg15
g46
sg13
I25
sg7
I9
sg8
I135
sg19
I0
sg20
I0
sg17
g18
sg9
I8
sg10
I3
sa(dp170
g6
I5
sg3
I5
sg12
I0
sg4
g5
sg11
I900
sg14
I5
sg15
g46
sg13
I25
sg7
I8
sg8
I136
sg19
I0
sg20
I0
sg17
g18
sg9
I20
sg10
I3
sa(dp171
g6
I0
sg3
I5
sg12
I0
sg4
g28
sg11
I1000
sg14
I8
sg15
g16
sg13
I25
sg7
I9
sg8
I137
sg19
I0
sg20
I0
sg17
g25
sg9
I30
sg10
I3
sa(dp172
g6
I5
sg3
I5
sg12
I0
sg4
g5
sg11
I900
sg14
I5
sg15
g46
sg13
I25
sg7
I8
sg8
I138
sg19
I0
sg20
I0
sg17
g18
sg9
I20
sg10
I3
sa(dp173
g6
I0
sg3
I5
sg12
I0
sg4
g28
sg11
I1000
sg14
I8
sg15
g16
sg13
I25
sg7
I9
sg8
I139
sg19
I0
sg20
I0
sg17
g25
sg9
I30
sg10
I3
sa(dp174
g6
I5
sg3
I5
sg12
I0
sg4
g5
sg11
I900
sg14
I5
sg15
g46
sg13
I25
sg7
I8
sg8
I140
sg19
I0
sg20
I0
sg17
g18
sg9
I20
sg10
I3
sa(dp175
g6
I0
sg3
I5
sg12
I0
sg4
g28
sg11
I1000
sg14
I8
sg15
g16
sg13
I25
sg7
I9
sg8
I141
sg19
I0
sg20
I0
sg17
g25
sg9
I30
sg10
I3
sa(dp176
g6
I0
sg3
I5
sg12
I0
sg4
g28
sg11
I1000
sg14
I4
sg15
g16
sg13
I25
sg7
I9
sg8
I142
sg19
I0
sg20
I0
sg17
g100
sg9
I8
sg10
I3
sa(dp177
g6
I0
sg3
I5
sg12
I0
sg4
g28
sg11
I1000
sg14
I4
sg15
g16
sg13
I25
sg7
I9
sg8
I143
sg19
I0
sg20
I0
sg17
g100
sg9
I8
sg10
I3
sa(dp178
g6
I0
sg3
I5
sg12
I0
sg4
g28
sg11
I1000
sg14
I4
sg15
g16
sg13
I25
sg7
I9
sg8
I144
sg19
I0
sg20
I0
sg17
g100
sg9
I8
sg10
I3
sa(dp179
g6
I0
sg3
I5
sg12
I0
sg4
g28
sg11
I1000
sg14
I4
sg15
g16
sg13
I25
sg7
I9
sg8
I145
sg19
I0
sg20
I0
sg17
g100
sg9
I8
sg10
I3
sa(dp180
g6
I0
sg3
I5
sg12
I0
sg4
g28
sg11
I1000
sg14
I3
sg15
g16
sg13
I25
sg7
I9
sg8
I146
sg19
I0
sg20
I0
sg17
g29
sg9
I8
sg10
I3
sa(dp181
g6
I0
sg3
I5
sg12
I0
sg4
g28
sg11
I1000
sg14
I3
sg15
g16
sg13
I25
sg7
I9
sg8
I147
sg19
I0
sg20
I0
sg17
g29
sg9
I8
sg10
I3
sa(dp182
g6
I0
sg3
I5
sg12
I0
sg4
g28
sg11
I1000
sg14
I3
sg15
g16
sg13
I25
sg7
I9
sg8
I148
sg19
I0
sg20
I0
sg17
g29
sg9
I8
sg10
I3
sa(dp183
g6
I0
sg3
I5
sg12
I0
sg4
g28
sg11
I1000
sg14
I3
sg15
g16
sg13
I25
sg7
I9
sg8
I149
sg19
I0
sg20
I0
sg17
g29
sg9
I8
sg10
I3
sa(dp184
g6
I0
sg3
I5
sg12
I0
sg4
g28
sg11
I1000
sg14
I3
sg15
g16
sg13
I25
sg7
I9
sg8
I150
sg19
I0
sg20
I0
sg17
g29
sg9
I8
sg10
I3
sa(dp185
g6
I0
sg3
I5
sg12
I0
sg4
g5
sg11
I900
sg14
I5
sg15
g46
sg13
I25
sg7
I8
sg8
I151
sg19
I0
sg20
I0
sg17
g18
sg9
I20
sg10
I3
sa(dp186
g11
I1000
sg3
I5
sg12
I0
sg4
g5
sg6
I0
sg14
I3
sg15
g16
sg13
I25
sg20
I1
sg7
I8
sg8
I152
sg19
I1
sg9
I16
sg17
g18
sg10
I4
sa(dp187
g11
I1000
sg3
I5
sg12
I0
sg4
g5
sg6
I0
sg14
I3
sg15
g16
sg13
I25
sg20
I1
sg7
I8
sg8
I153
sg19
I1
sg9
I16
sg17
g18
sg10
I4
sa(dp188
g11
I400
sg3
I5
sg12
I0
sg4
g23
sg6
I0
sg14
I8
sg15
g16
sg13
I25
sg20
I0
sg7
I9
sg8
I154
sg19
I0
sg9
I30
sg17
g5
sg10
I4
sa(dp189
g11
I250
sg3
I5
sg12
I0
sg4
g25
sg6
I0
sg14
I2
sg15
g16
sg13
I25
sg20
I0
sg7
I8
sg8
I155
sg19
I0
sg9
I16
sg17
g26
sg10
I4
sa(dp190
g11
I1000
sg3
I5
sg12
I0
sg4
g28
sg6
I0
sg14
I3
sg15
g16
sg13
I25
sg20
I0
sg7
I9
sg8
I156
sg19
I0
sg9
I8
sg17
g29
sg10
I4
sa(dp191
g11
I1000
sg3
I5
sg12
I0
sg4
g28
sg6
I0
sg14
I3
sg15
g16
sg13
I25
sg20
I0
sg7
I9
sg8
I157
sg19
I0
sg9
I8
sg17
g29
sg10
I4
sa(dp192
g11
I1000
sg3
I5
sg12
I0
sg4
g28
sg6
I0
sg14
I3
sg15
g16
sg13
I25
sg20
I0
sg7
I9
sg8
I158
sg19
I0
sg9
I8
sg17
g29
sg10
I4
sa(dp193
g11
I1000
sg3
I5
sg12
I0
sg4
g28
sg6
I45
sg14
I3
sg15
g16
sg13
I25
sg20
I0
sg7
I9
sg8
I159
sg19
I0
sg9
I16
sg17
g29
sg10
I4
sa(dp194
g11
I400
sg3
I5
sg12
I0
sg4
g28
sg6
I0
sg14
I8
sg15
g16
sg13
I25
sg20
I0
sg7
I9
sg8
I160
sg19
I0
sg9
I30
sg17
g25
sg10
I4
sa(dp195
g11
I1000
sg3
I5
sg12
I0
sg4
g28
sg6
I0
sg14
I3
sg15
g16
sg13
I25
sg20
I0
sg7
I9
sg8
I161
sg19
I0
sg9
I8
sg17
g29
sg10
I4
sa(dp196
g11
I1000
sg3
I5
sg12
I0
sg4
g28
sg6
I0
sg14
I3
sg15
g16
sg13
I25
sg20
I0
sg7
I9
sg8
I162
sg19
I0
sg9
I8
sg17
g29
sg10
I4
sa(dp197
g11
I1000
sg3
I5
sg12
I0
sg4
g28
sg6
I0
sg14
I3
sg15
g16
sg13
I25
sg20
I0
sg7
I9
sg8
I163
sg19
I0
sg9
I8
sg17
g29
sg10
I4
sa(dp198
g11
I1000
sg3
I5
sg12
I0
sg4
g25
sg6
I5
sg14
I3
sg15
g16
sg13
I25
sg20
I1
sg7
I8
sg8
I164
sg19
I1
sg9
I16
sg17
g29
sg10
I4
sa(dp199
g11
I1000
sg3
I5
sg12
I0
sg4
g25
sg6
I5
sg14
I3
sg15
g16
sg13
I25
sg20
I1
sg7
I8
sg8
I165
sg19
I1
sg9
I16
sg17
g29
sg10
I4
sa(dp200
g11
I1000
sg3
I5
sg12
I0
sg4
g25
sg6
I5
sg14
I3
sg15
g16
sg13
I25
sg20
I1
sg7
I8
sg8
I166
sg19
I1
sg9
I16
sg17
g29
sg10
I4
sa(dp201
g11
I1000
sg3
I5
sg12
I0
sg4
g25
sg6
I5
sg14
I3
sg15
g16
sg13
I25
sg20
I1
sg7
I8
sg8
I167
sg19
I1
sg9
I16
sg17
g29
sg10
I4
sa(dp202
g11
I750
sg3
I5
sg12
I0
sg4
g25
sg6
I0
sg14
I5
sg15
g16
sg13
I25
sg20
I0
sg7
I8
sg8
I168
sg19
I0
sg9
I16
sg17
g42
sg10
I4
sa(dp203
g6
I0
sg3
I5
sg12
I0
sg4
g28
sg11
I1000
sg14
I8
sg15
g16
sg13
I25
sg7
I9
sg8
I169
sg19
I0
sg20
I0
sg17
g25
sg9
I30
sg10
I5
sa(dp204
g6
I0
sg3
I5
sg12
I0
sg4
g45
sg11
I700
sg14
I1
sg15
g46
sg13
I25
sg7
I1
sg8
I170
sg19
I0
sg20
I0
sg17
g45
sg9
I21
sg10
I5
sa(dp205
g6
I0
sg3
I5
sg12
I0
sg4
g5
sg11
I300
sg14
I1
sg15
g46
sg13
I25
sg7
I8
sg8
I171
sg19
I0
sg20
I0
sg17
g45
sg9
I20
sg10
I5
sa(dp206
g6
I5
sg3
I5
sg12
I0
sg4
g5
sg11
I35
sg14
I7
sg15
g46
sg13
I25
sg7
I8
sg8
I172
sg19
I0
sg20
I0
sg17
g49
sg9
I25
sg10
I5
sa(dp207
g6
I0
sg3
I5
sg12
I0
sg4
g28
sg11
I400
sg14
I8
sg15
g16
sg13
I25
sg7
I9
sg8
I173
sg19
I0
sg20
I0
sg17
g25
sg9
I30
sg10
I5
sa(dp208
g6
I0
sg3
I5
sg12
I0
sg4
g5
sg11
I300
sg14
I1
sg15
g46
sg13
I25
sg7
I8
sg8
I174
sg19
I0
sg20
I0
sg17
g45
sg9
I20
sg10
I5
sa(dp209
g6
I5
sg3
I5
sg12
I0
sg4
g5
sg11
I35
sg14
I7
sg15
g46
sg13
I25
sg7
I8
sg8
I175
sg19
I0
sg20
I0
sg17
g49
sg9
I25
sg10
I5
sa(dp210
g6
I0
sg3
I5
sg12
I0
sg4
g28
sg11
I400
sg14
I8
sg15
g16
sg13
I25
sg7
I9
sg8
I176
sg19
I0
sg20
I0
sg17
g25
sg9
I30
sg10
I5
sa(dp211
g6
I0
sg3
I5
sg12
I0
sg4
g23
sg11
I4000
sg14
I6
sg15
g46
sg13
I25
sg7
I9
sg8
I177
sg19
I0
sg20
I0
sg17
g55
sg9
I8
sg10
I5
sa(dp212
g6
I0
sg3
I5
sg12
I0
sg4
g23
sg11
I4000
sg14
I6
sg15
g46
sg13
I25
sg7
I9
sg8
I178
sg19
I0
sg20
I0
sg17
g55
sg9
I8
sg10
I5
sa(dp213
g6
I0
sg3
I5
sg12
I0
sg4
g23
sg11
I4000
sg14
I5
sg15
g46
sg13
I25
sg7
I9
sg8
I179
sg19
I0
sg20
I0
sg17
g18
sg9
I8
sg10
I5
sa(dp214
g6
I0
sg3
I5
sg12
I0
sg4
g23
sg11
I4000
sg14
I5
sg15
g46
sg13
I25
sg7
I9
sg8
I180
sg19
I0
sg20
I0
sg17
g18
sg9
I8
sg10
I5
sa(dp215
g6
I0
sg3
I5
sg12
I0
sg4
g5
sg11
I900
sg14
I5
sg15
g46
sg13
I25
sg7
I8
sg8
I181
sg19
I0
sg20
I0
sg17
g18
sg9
I20
sg10
I5
sa(dp216
g6
I0
sg3
I5
sg12
I0
sg4
g45
sg11
I700
sg14
I7
sg15
g46
sg13
I25
sg7
I1
sg8
I182
sg19
I0
sg20
I0
sg17
g49
sg9
I21
sg10
I5
sa(dp217
g6
I0
sg3
I5
sg12
I0
sg4
g62
sg11
I700
sg14
I2
sg15
g46
sg13
I25
sg7
I2
sg8
I183
sg19
I0
sg20
I0
sg17
g62
sg9
I21
sg10
I5
sa(dp218
g6
I0
sg3
I5
sg12
I0
sg4
g64
sg11
I270
sg14
I2
sg15
g46
sg13
I25
sg7
I4
sg8
I184
sg19
I0
sg20
I0
sg17
g62
sg9
I20
sg10
I5
sa(dp219
g6
I0
sg3
I5
sg12
I0
sg4
g64
sg11
I700
sg14
I7
sg15
g46
sg13
I25
sg7
I4
sg8
I185
sg19
I0
sg20
I0
sg17
g49
sg9
I21
sg10
I5
sa(dp220
g6
I0
sg3
I5
sg12
I0
sg4
g62
sg11
I700
sg14
I7
sg15
g46
sg13
I25
sg7
I2
sg8
I186
sg19
I0
sg20
I0
sg17
g49
sg9
I21
sg10
I5
sa(dp221
g6
I0
sg3
I5
sg12
I0
sg4
g23
sg11
I4000
sg14
I6
sg15
g46
sg13
I25
sg7
I9
sg8
I187
sg19
I0
sg20
I0
sg17
g55
sg9
I8
sg10
I5
sa(dp222
g6
I0
sg3
I5
sg12
I0
sg4
g23
sg11
I4000
sg14
I6
sg15
g46
sg13
I25
sg7
I9
sg8
I188
sg19
I0
sg20
I0
sg17
g55
sg9
I8
sg10
I5
sa(dp223
g6
I0
sg3
I5
sg12
I0
sg4
g23
sg11
I4000
sg14
I5
sg15
g46
sg13
I25
sg7
I9
sg8
I189
sg19
I0
sg20
I0
sg17
g18
sg9
I8
sg10
I5
sa(dp224
g6
I0
sg3
I5
sg12
I0
sg4
g23
sg11
I4000
sg14
I5
sg15
g46
sg13
I25
sg7
I9
sg8
I190
sg19
I0
sg20
I0
sg17
g18
sg9
I8
sg10
I5
sa(dp225
g6
I0
sg3
I5
sg12
I0
sg4
g72
sg11
I700
sg14
I3
sg15
g46
sg13
I25
sg7
I3
sg8
I191
sg19
I0
sg20
I0
sg17
g72
sg9
I21
sg10
I5
sa(dp226
g6
I0
sg3
I5
sg12
I0
sg4
g64
sg11
I750
sg14
I3
sg15
g46
sg13
I25
sg7
I4
sg8
I192
sg19
I0
sg20
I0
sg17
g72
sg9
I20
sg10
I5
sa(dp227
g6
I0
sg3
I5
sg12
I0
sg4
g64
sg11
I700
sg14
I7
sg15
g46
sg13
I25
sg7
I4
sg8
I193
sg19
I0
sg20
I0
sg17
g49
sg9
I21
sg10
I5
sa(dp228
g6
I0
sg3
I5
sg12
I0
sg4
g72
sg11
I700
sg14
I7
sg15
g46
sg13
I25
sg7
I3
sg8
I194
sg19
I0
sg20
I0
sg17
g49
sg9
I21
sg10
I5
sa(dp229
g6
I0
sg3
I5
sg12
I0
sg4
g64
sg11
I4500
sg14
I7
sg15
g46
sg13
I25
sg7
I4
sg8
I195
sg19
I0
sg20
I0
sg17
g49
sg9
I8
sg10
I5
sa(dp230
g6
I0
sg3
I5
sg12
I0
sg4
g28
sg11
I1000
sg14
I8
sg15
g16
sg13
I25
sg7
I9
sg8
I196
sg19
I0
sg20
I0
sg17
g25
sg9
I30
sg10
I5
sa(dp231
g6
I0
sg3
I5
sg12
I0
sg4
g64
sg11
I700
sg14
I4
sg15
g46
sg13
I25
sg7
I4
sg8
I197
sg19
I0
sg20
I0
sg17
g64
sg9
I21
sg10
I5
sa(dp232
g6
I0
sg3
I5
sg12
I0
sg4
g5
sg11
I300
sg14
I4
sg15
g46
sg13
I25
sg7
I8
sg8
I198
sg19
I0
sg20
I0
sg17
g64
sg9
I20
sg10
I5
sa(dp233
g6
I0
sg3
I5
sg12
I0
sg4
g5
sg11
I35
sg14
I7
sg15
g46
sg13
I25
sg7
I8
sg8
I199
sg19
I0
sg20
I0
sg17
g49
sg9
I25
sg10
I5
sa(dp234
g6
I5
sg3
I5
sg12
I0
sg4
g64
sg11
I700
sg14
I7
sg15
g46
sg13
I25
sg7
I4
sg8
I200
sg19
I0
sg20
I0
sg17
g49
sg9
I21
sg10
I5
sa(dp235
g6
I0
sg3
I5
sg12
I0
sg4
g28
sg11
I400
sg14
I8
sg15
g16
sg13
I25
sg7
I9
sg8
I201
sg19
I0
sg20
I0
sg17
g25
sg9
I30
sg10
I5
sa(dp236
g6
I0
sg3
I5
sg12
I0
sg4
g64
sg11
I700
sg14
I4
sg15
g46
sg13
I25
sg7
I4
sg8
I202
sg19
I0
sg20
I0
sg17
g64
sg9
I21
sg10
I5
sa(dp237
g6
I0
sg3
I5
sg12
I0
sg4
g5
sg11
I300
sg14
I4
sg15
g46
sg13
I25
sg7
I8
sg8
I203
sg19
I0
sg20
I0
sg17
g64
sg9
I20
sg10
I5
sa(dp238
g6
I0
sg3
I5
sg12
I0
sg4
g5
sg11
I35
sg14
I7
sg15
g46
sg13
I25
sg7
I8
sg8
I204
sg19
I0
sg20
I0
sg17
g49
sg9
I25
sg10
I5
sa(dp239
g6
I5
sg3
I5
sg12
I0
sg4
g64
sg11
I700
sg14
I7
sg15
g46
sg13
I25
sg7
I4
sg8
I205
sg19
I0
sg20
I0
sg17
g49
sg9
I21
sg10
I5
sa(dp240
g6
I0
sg3
I5
sg12
I0
sg4
g28
sg11
I400
sg14
I8
sg15
g16
sg13
I25
sg7
I9
sg8
I206
sg19
I0
sg20
I0
sg17
g25
sg9
I30
sg10
I5
sa(dp241
g6
I0
sg3
I5
sg12
I0
sg4
g23
sg11
I2000
sg14
I4
sg15
g46
sg13
I25
sg7
I9
sg8
I207
sg19
I0
sg20
I0
sg17
g64
sg9
I16
sg10
I5
sa(dp242
g6
I0
sg3
I5
sg12
I0
sg4
g23
sg11
I4000
sg14
I6
sg15
g46
sg13
I25
sg7
I9
sg8
I208
sg19
I0
sg20
I0
sg17
g55
sg9
I8
sg10
I5
sa(dp243
g6
I0
sg3
I5
sg12
I0
sg4
g23
sg11
I4000
sg14
I6
sg15
g46
sg13
I25
sg7
I9
sg8
I209
sg19
I0
sg20
I0
sg17
g55
sg9
I8
sg10
I5
sa(dp244
g6
I0
sg3
I5
sg12
I0
sg4
g23
sg11
I4000
sg14
I5
sg15
g46
sg13
I25
sg7
I9
sg8
I210
sg19
I0
sg20
I0
sg17
g18
sg9
I8
sg10
I5
sa(dp245
g6
I0
sg3
I5
sg12
I0
sg4
g23
sg11
I4000
sg14
I5
sg15
g46
sg13
I25
sg7
I9
sg8
I211
sg19
I0
sg20
I0
sg17
g18
sg9
I8
sg10
I5
sa(dp246
g6
I5
sg3
I5
sg12
I0
sg4
g5
sg11
I900
sg14
I5
sg15
g46
sg13
I25
sg7
I8
sg8
I212
sg19
I0
sg20
I0
sg17
g18
sg9
I20
sg10
I5
sa(dp247
g6
I0
sg3
I5
sg12
I0
sg4
g28
sg11
I1000
sg14
I8
sg15
g16
sg13
I25
sg7
I9
sg8
I213
sg19
I0
sg20
I0
sg17
g25
sg9
I30
sg10
I5
sa(dp248
g6
I5
sg3
I5
sg12
I0
sg4
g5
sg11
I900
sg14
I5
sg15
g46
sg13
I25
sg7
I8
sg8
I214
sg19
I0
sg20
I0
sg17
g18
sg9
I20
sg10
I5
sa(dp249
g6
I0
sg3
I5
sg12
I0
sg4
g28
sg11
I1000
sg14
I8
sg15
g16
sg13
I25
sg7
I9
sg8
I215
sg19
I0
sg20
I0
sg17
g25
sg9
I30
sg10
I5
sa(dp250
g6
I5
sg3
I5
sg12
I0
sg4
g5
sg11
I900
sg14
I5
sg15
g46
sg13
I25
sg7
I8
sg8
I216
sg19
I0
sg20
I0
sg17
g18
sg9
I20
sg10
I5
sa(dp251
g6
I0
sg3
I5
sg12
I0
sg4
g28
sg11
I1000
sg14
I8
sg15
g16
sg13
I25
sg7
I9
sg8
I217
sg19
I0
sg20
I0
sg17
g25
sg9
I30
sg10
I5
sa(dp252
g6
I0
sg3
I5
sg12
I0
sg4
g28
sg11
I1000
sg14
I4
sg15
g16
sg13
I25
sg7
I9
sg8
I218
sg19
I0
sg20
I0
sg17
g100
sg9
I8
sg10
I5
sa(dp253
g6
I0
sg3
I5
sg12
I0
sg4
g28
sg11
I1000
sg14
I4
sg15
g16
sg13
I25
sg7
I9
sg8
I219
sg19
I0
sg20
I0
sg17
g100
sg9
I8
sg10
I5
sa(dp254
g6
I0
sg3
I5
sg12
I0
sg4
g28
sg11
I1000
sg14
I4
sg15
g16
sg13
I25
sg7
I9
sg8
I220
sg19
I0
sg20
I0
sg17
g100
sg9
I8
sg10
I5
sa(dp255
g6
I0
sg3
I5
sg12
I0
sg4
g28
sg11
I1000
sg14
I4
sg15
g16
sg13
I25
sg7
I9
sg8
I221
sg19
I0
sg20
I0
sg17
g100
sg9
I8
sg10
I5
sa(dp256
g6
I0
sg3
I5
sg12
I0
sg4
g28
sg11
I1000
sg14
I3
sg15
g16
sg13
I25
sg7
I9
sg8
I222
sg19
I0
sg20
I0
sg17
g29
sg9
I8
sg10
I5
sa(dp257
g6
I0
sg3
I5
sg12
I0
sg4
g28
sg11
I1000
sg14
I3
sg15
g16
sg13
I25
sg7
I9
sg8
I223
sg19
I0
sg20
I0
sg17
g29
sg9
I8
sg10
I5
sa(dp258
g6
I0
sg3
I5
sg12
I0
sg4
g28
sg11
I1000
sg14
I3
sg15
g16
sg13
I25
sg7
I9
sg8
I224
sg19
I0
sg20
I0
sg17
g29
sg9
I8
sg10
I5
sa(dp259
g6
I0
sg3
I5
sg12
I0
sg4
g28
sg11
I1000
sg14
I3
sg15
g16
sg13
I25
sg7
I9
sg8
I225
sg19
I0
sg20
I0
sg17
g29
sg9
I8
sg10
I5
sa(dp260
g6
I0
sg3
I5
sg12
I0
sg4
g28
sg11
I1000
sg14
I3
sg15
g16
sg13
I25
sg7
I9
sg8
I226
sg19
I0
sg20
I0
sg17
g29
sg9
I8
sg10
I5
sa(dp261
g6
I0
sg3
I5
sg12
I0
sg4
g5
sg11
I900
sg14
I5
sg15
g46
sg13
I25
sg7
I8
sg8
I227
sg19
I0
sg20
I0
sg17
g18
sg9
I20
sg10
I5
sa(dp262
g11
I1000
sg3
I5
sg12
I0
sg4
g5
sg6
I0
sg14
I3
sg15
g16
sg13
I25
sg20
I1
sg7
I8
sg8
I228
sg19
I1
sg9
I16
sg17
g18
sg10
I6
sa(dp263
g11
I1000
sg3
I5
sg12
I0
sg4
g5
sg6
I0
sg14
I3
sg15
g16
sg13
I25
sg20
I1
sg7
I8
sg8
I229
sg19
I1
sg9
I16
sg17
g18
sg10
I6
sa(dp264
g11
I400
sg3
I5
sg12
I0
sg4
g23
sg6
I0
sg14
I8
sg15
g16
sg13
I25
sg20
I0
sg7
I9
sg8
I230
sg19
I0
sg9
I30
sg17
g5
sg10
I6
sa(dp265
g11
I250
sg3
I5
sg12
I0
sg4
g25
sg6
I0
sg14
I2
sg15
g16
sg13
I25
sg20
I0
sg7
I8
sg8
I231
sg19
I0
sg9
I16
sg17
g26
sg10
I6
sa(dp266
g11
I1000
sg3
I5
sg12
I0
sg4
g28
sg6
I0
sg14
I3
sg15
g16
sg13
I25
sg20
I0
sg7
I9
sg8
I232
sg19
I0
sg9
I8
sg17
g29
sg10
I6
sa(dp267
g11
I1000
sg3
I5
sg12
I0
sg4
g28
sg6
I0
sg14
I3
sg15
g16
sg13
I25
sg20
I0
sg7
I9
sg8
I233
sg19
I0
sg9
I8
sg17
g29
sg10
I6
sa(dp268
g11
I1000
sg3
I5
sg12
I0
sg4
g28
sg6
I0
sg14
I3
sg15
g16
sg13
I25
sg20
I0
sg7
I9
sg8
I234
sg19
I0
sg9
I8
sg17
g29
sg10
I6
sa(dp269
g11
I1000
sg3
I5
sg12
I0
sg4
g28
sg6
I45
sg14
I3
sg15
g16
sg13
I25
sg20
I0
sg7
I9
sg8
I235
sg19
I0
sg9
I16
sg17
g29
sg10
I6
sa(dp270
g11
I400
sg3
I5
sg12
I0
sg4
g28
sg6
I0
sg14
I8
sg15
g16
sg13
I25
sg20
I0
sg7
I9
sg8
I236
sg19
I0
sg9
I30
sg17
g25
sg10
I6
sa(dp271
g11
I1000
sg3
I5
sg12
I0
sg4
g28
sg6
I0
sg14
I3
sg15
g16
sg13
I25
sg20
I0
sg7
I9
sg8
I237
sg19
I0
sg9
I8
sg17
g29
sg10
I6
sa(dp272
g11
I1000
sg3
I5
sg12
I0
sg4
g28
sg6
I0
sg14
I3
sg15
g16
sg13
I25
sg20
I0
sg7
I9
sg8
I238
sg19
I0
sg9
I8
sg17
g29
sg10
I6
sa(dp273
g11
I1000
sg3
I5
sg12
I0
sg4
g28
sg6
I0
sg14
I3
sg15
g16
sg13
I25
sg20
I0
sg7
I9
sg8
I239
sg19
I0
sg9
I8
sg17
g29
sg10
I6
sa(dp274
g11
I1000
sg3
I5
sg12
I0
sg4
g25
sg6
I5
sg14
I3
sg15
g16
sg13
I25
sg20
I1
sg7
I8
sg8
I240
sg19
I1
sg9
I16
sg17
g29
sg10
I6
sa(dp275
g11
I1000
sg3
I5
sg12
I0
sg4
g25
sg6
I5
sg14
I3
sg15
g16
sg13
I25
sg20
I1
sg7
I8
sg8
I241
sg19
I1
sg9
I16
sg17
g29
sg10
I6
sa(dp276
g11
I1000
sg3
I5
sg12
I0
sg4
g25
sg6
I5
sg14
I3
sg15
g16
sg13
I25
sg20
I1
sg7
I8
sg8
I242
sg19
I1
sg9
I16
sg17
g29
sg10
I6
sa(dp277
g11
I1000
sg3
I5
sg12
I0
sg4
g25
sg6
I5
sg14
I3
sg15
g16
sg13
I25
sg20
I1
sg7
I8
sg8
I243
sg19
I1
sg9
I16
sg17
g29
sg10
I6
sa(dp278
g11
I750
sg3
I5
sg12
I0
sg4
g25
sg6
I0
sg14
I5
sg15
g16
sg13
I25
sg20
I0
sg7
I8
sg8
I244
sg19
I0
sg9
I16
sg17
g42
sg10
I6
sa.