(lp1
(dp2
S'reagent'
p3
S''
sS'pump'
p4
S'/dev/ttyUSB1'
p5
sS'port'
p6
I1
sa(dp7
g3
S''
sg4
g5
sg6
I2
sa(dp8
g3
S''
sg4
g5
sg6
I3
sa(dp9
g3
S''
sg4
g5
sg6
I4
sa(dp10
g3
S'1x1'
p11
sg4
g5
sg6
I5
sa(dp12
g3
S'di 1'
p13
sg4
g5
sg6
I6
sa(dp14
g3
S'Air 1'
p15
sg4
g5
sg6
I7
sa(dp16
g3
S'Output 1'
p17
sg4
g5
sg6
I8
sa(dp18
g3
S'Waste 1'
p19
sg4
g5
sg6
I9
sa(dp20
g3
S''
sg4
S'/dev/ttyUSB0'
p21
sg6
I1
sa(dp22
g3
S''
sg4
g21
sg6
I2
sa(dp23
g3
S'1x2'
p24
sg4
g21
sg6
I3
sa(dp25
g3
S'di 2'
p26
sg4
g21
sg6
I4
sa(dp27
g3
S''
sg4
g21
sg6
I5
sa(dp28
g3
S''
sg4
g21
sg6
I6
sa(dp29
g3
S'Air 2'
p30
sg4
g21
sg6
I7
sa(dp31
g3
S'Output 2'
p32
sg4
g21
sg6
I8
sa(dp33
g3
S'Waste 2'
p34
sg4
g21
sg6
I9
sa.(lp1
(dp2
S'waitsecs'
p3
I5
sS'toportreagent'
p4
S'Waste 1'
p5
sS'volume'
p6
I1000
sS'toport'
p7
I9
sS'cmdnumber'
p8
I0
sS'speed'
p9
I8
sS'cycle'
p10
I0
sS'waitmins'
p11
I0
sS'temp'
p12
I25
sS'heatwhen'
p13
I0
sS'fromport'
p14
I5
sS'pump'
p15
S'/dev/ttyUSB1'
p16
sS'fromportreagent'
p17
S'1x1'
p18
sS'waste'
p19
I0
sS'type'
p20
I0
sa(dp21
g3
I5
sg4
S'Waste 1'
p22
sg6
I1000
sg7
I9
sg8
I1
sg9
I8
sg10
I0
sg11
I0
sg12
I25
sg13
I0
sg14
I6
sg15
g16
sg17
S'di 1'
p23
sg19
I0
sg20
I0
sa(dp24
g3
I5
sg4
S'Waste 2'
p25
sg6
I1000
sg7
I9
sg8
I2
sg9
I8
sg10
I0
sg11
I0
sg12
I25
sg13
I0
sg14
I3
sg15
S'/dev/ttyUSB0'
p26
sg17
S'1x2'
p27
sg19
I0
sg20
I0
sa(dp28
g3
I5
sg4
S'Waste 2'
p29
sg6
I1000
sg7
I9
sg8
I3
sg9
I8
sg10
I0
sg11
I0
sg12
I25
sg13
I0
sg14
I4
sg15
g26
sg17
S'di 2'
p30
sg19
I0
sg20
I0
sa(dp31
g3
I5
sg4
S''
sg6
I1
sg7
I1
sg8
I4
sg9
I16
sg10
I1
sg11
I0
sg12
I25
sg13
I0
sg14
I1
sg15
g16
sg17
S''
sg19
I0
sg20
I0
sa.