(lp1
(dp2
S'waitsecs'
p3
I8
sS'volume'
p4
I200
sS'toport'
p5
I2
sS'cmdnumber'
p6
I0
sS'speed'
p7
I19
sS'cycle'
p8
I0
sS'waitmins'
p9
I0
sS'name'
p10
S'Cmd 1'
p11
sS'fromport'
p12
I2
sS'pump'
p13
S'/dev/ttyUSB0'
p14
sS'waste'
p15
I1
sa(dp16
g3
I7
sg4
I200
sg5
I2
sg6
I1
sg7
I33
sg8
I0
sg9
I0
sg10
S'Cmd 2'
p17
sg12
I1
sg13
S'/dev/ttyUSB0'
p18
sg15
I1
sa(dp19
g3
I6
sg4
I200
sg5
I2
sg6
I2
sg7
I19
sg8
I0
sg9
I0
sg10
S'Cmd 3'
p20
sg12
I2
sg13
S'/dev/ttyUSB0'
p21
sg15
I0
sa(dp22
g3
I9
sg4
I200
sg5
I2
sg6
I3
sg7
I18
sg8
I0
sg9
I0
sg10
S'Cmd 4'
p23
sg12
I2
sg13
S'/dev/ttyUSB0'
p24
sg15
I1
sa(dp25
g3
I5
sg4
I200
sg5
I1
sg6
I4
sg7
I33
sg8
I1
sg9
I0
sg10
S'Cmd 5'
p26
sg12
I2
sg13
S'/dev/ttyUSB0'
p27
sg15
I1
sa(dp28
g3
I7
sg4
I200
sg5
I2
sg6
I5
sg7
I19
sg8
I1
sg9
I0
sg10
S'Cmd 6'
p29
sg12
I1
sg13
S'/dev/ttyUSB0'
p30
sg15
I1
sa(dp31
g3
I7
sg4
I200
sg5
I2
sg6
I6
sg7
I19
sg8
I1
sg9
I0
sg10
S'Cmd 7'
p32
sg12
I2
sg13
S'/dev/ttyUSB0'
p33
sg15
I1
sa(dp34
g3
I5
sg4
I200
sg5
I1
sg6
I7
sg7
I33
sg8
I1
sg9
I0
sg10
S'Cmd 8'
p35
sg12
I2
sg13
S'/dev/ttyUSB0'
p36
sg15
I0
sa(dp37
g3
I7
sg4
I200
sg5
I2
sg6
I8
sg7
I19
sg8
I2
sg9
I0
sg10
S'Cmd 9'
p38
sg12
I2
sg13
S'/dev/ttyUSB0'
p39
sg15
I1
sa(dp40
g3
I7
sg4
I200
sg5
I1
sg6
I9
sg7
I33
sg8
I2
sg9
I0
sg10
S'Cmd 10'
p41
sg12
I2
sg13
S'/dev/ttyUSB0'
p42
sg15
I1
sa(dp43
g3
I5
sg4
I200
sg5
I2
sg6
I10
sg7
I19
sg8
I2
sg9
I0
sg10
S'Cmd 11'
p44
sg12
I2
sg13
S'/dev/ttyUSB0'
p45
sg15
I1
sa(dp46
g3
I6
sg4
I200
sg5
I1
sg6
I11
sg7
I33
sg8
I2
sg9
I0
sg10
S'Cmd 12'
p47
sg12
I2
sg13
S'/dev/ttyUSB0'
p48
sg15
I1
sa(dp49
g3
I5
sg4
I200
sg5
I2
sg6
I12
sg7
I18
sg8
I3
sg9
I0
sg10
S'Cmd 13'
p50
sg12
I2
sg13
S'/dev/ttyUSB0'
p51
sg15
I0
sa(dp52
g3
I5
sg4
I200
sg5
I2
sg6
I13
sg7
I19
sg8
I3
sg9
I0
sg10
S'Cmd 14'
p53
sg12
I2
sg13
S'/dev/ttyUSB0'
p54
sg15
I1
sa.