(lp1
(dp2
S'volume'
p3
I0
sS'reagent'
p4
S''
sS'pump'
p5
S'/dev/ttyUSB1'
p6
sS'port'
p7
I1
sa(dp8
g3
I0
sg4
S''
sg5
g6
sg7
I2
sa(dp9
g3
I0
sg4
S''
sg5
g6
sg7
I3
sa(dp10
g3
I0
sg4
S''
sg5
g6
sg7
I4
sa(dp11
g3
I0
sg4
S'Wash'
p12
sg5
g6
sg7
I5
sa(dp13
g3
I0
sg4
S''
sg5
g6
sg7
I6
sa(dp14
g3
I0
sg4
S'Air 1'
p15
sg5
g6
sg7
I7
sa(dp16
g3
I0
sg4
S'Output 1'
p17
sg5
g6
sg7
I8
sa(dp18
g3
I0
sg4
S'Waste 1'
p19
sg5
g6
sg7
I9
sa(dp20
g3
I0
sg4
S''
sg5
S'/dev/ttyUSB0'
p21
sg7
I1
sa(dp22
g3
I0
sg4
S'Blue'
p23
sg5
g21
sg7
I2
sa(dp24
g3
I0
sg4
S'Red'
p25
sg5
g21
sg7
I3
sa(dp26
g3
I0
sg4
S''
sg5
g21
sg7
I4
sa(dp27
g3
I0
sg4
S''
sg5
g21
sg7
I5
sa(dp28
g3
I0
sg4
S''
sg5
g21
sg7
I6
sa(dp29
g3
I0
sg4
S'Air 2'
p30
sg5
g21
sg7
I7
sa(dp31
g3
I0
sg4
S'Output 2'
p32
sg5
g21
sg7
I8
sa(dp33
g3
I0
sg4
S'Waste 2'
p34
sg5
g21
sg7
I9
sa.(lp1
(dp2
S'waitsecs'
p3
I5
sS'toportreagent'
p4
S'Output 2'
p5
sS'volume'
p6
I350
sS'toport'
p7
I8
sS'cmdnumber'
p8
I0
sS'speed'
p9
I26
sS'cycle'
p10
I0
sS'waitmins'
p11
I0
sS'temp'
p12
I25
sS'heatwhen'
p13
I0
sS'fromport'
p14
I2
sS'pump'
p15
S'/dev/ttyUSB0'
p16
sS'fromportreagent'
p17
S'Blue'
p18
sS'waste'
p19
I0
sS'type'
p20
I0
sa(dp21
g3
I5
sg4
S'Output 1'
p22
sg6
I350
sg7
I8
sg8
I1
sg9
I26
sg10
I0
sg11
I0
sg12
I25
sg13
I0
sg14
I5
sg15
S'/dev/ttyUSB1'
p23
sg17
S'Wash'
p24
sg19
I0
sg20
I0
sa(dp25
g3
I5
sg4
S'Output 2'
p26
sg6
I350
sg7
I8
sg8
I2
sg9
I26
sg10
I0
sg11
I0
sg12
I25
sg13
I0
sg14
I3
sg15
g16
sg17
S'Red'
p27
sg19
I0
sg20
I0
sa(dp28
g3
I5
sg4
S'Output 1'
p29
sg6
I350
sg7
I8
sg8
I3
sg9
I26
sg10
I0
sg11
I0
sg12
I25
sg13
I0
sg14
I5
sg15
g23
sg17
S'Wash'
p30
sg19
I0
sg20
I0
sa(dp31
g3
I5
sg4
S'Output 2'
p32
sg6
I1
sg7
I8
sg8
I4
sg9
I16
sg10
I0
sg11
I0
sg12
I25
sg13
I0
sg14
I2
sg15
g16
sg17
S'Blue'
p33
sg19
I0
sg20
I0
sa(dp34
g3
I5
sg4
S'Output 1'
p35
sg6
I1
sg7
I8
sg8
I5
sg9
I16
sg10
I0
sg11
I0
sg12
I25
sg13
I0
sg14
I5
sg15
g23
sg17
S'Wash'
p36
sg19
I0
sg20
I0
sa(dp37
g3
I5
sg4
S'Output 2'
p38
sg6
I1
sg7
I8
sg8
I6
sg9
I16
sg10
I0
sg11
I0
sg12
I25
sg13
I0
sg14
I3
sg15
g16
sg17
S'Red'
p39
sg19
I0
sg20
I0
sa.