(lp1
(dp2
S'volume'
p3
I0
sS'reagent'
p4
S'Sequencing primer'
p5
sS'pump'
p6
S'/dev/ttyUSB0'
p7
sS'port'
p8
I1
sa(dp9
g3
I0
sg4
S'T4 Ligase mix'
p10
sg6
g7
sg8
I2
sa(dp11
g3
I0
sg4
S'Cleave solution 1'
p12
sg6
g7
sg8
I3
sa(dp13
g3
I0
sg4
S'Cleave solution 2.1'
p14
sg6
g7
sg8
I4
sa(dp15
g3
I0
sg4
S'1x instrument buffer'
p16
sg6
g7
sg8
I5
sa(dp17
g3
I0
sg4
S''
sg6
g7
sg8
I6
sa(dp18
g3
I0
sg4
S'Air'
p19
sg6
g7
sg8
I7
sa(dp20
g3
I0
sg4
S'Output'
p21
sg6
g7
sg8
I8
sa(dp22
g3
I0
sg4
S'Waste'
p23
sg6
g7
sg8
I9
sa.(lp1
(dp2
S'waitsecs'
p3
I5
sS'toportreagent'
p4
S'Waste'
p5
sS'volume'
p6
I750
sS'toport'
p7
I9
sS'cmdnumber'
p8
I0
sS'speed'
p9
I30
sS'cycle'
p10
I0
sS'waitmins'
p11
I0
sS'fromport'
p12
I8
sS'pump'
p13
S'/dev/ttyUSB0'
p14
sS'fromportreagent'
p15
S'Output'
p16
sS'waste'
p17
I1
sS'type'
p18
I0
sa(dp19
g3
I5
sg4
S'Waste'
p20
sg6
I750
sg7
I9
sg8
I1
sg9
I30
sg10
I0
sg11
I0
sg12
I8
sg13
g14
sg15
S'Output'
p21
sg17
I1
sg18
I0
sa(dp22
g3
I5
sg4
S'Output'
p23
sg6
I200
sg7
I8
sg8
I2
sg9
I16
sg10
I0
sg11
I10
sg12
I1
sg13
g14
sg15
S'Sequencing primer'
p24
sg17
I1
sg18
I1
sa(dp25
g3
I5
sg4
S'Output'
p26
sg6
I1000
sg7
I8
sg8
I3
sg9
I16
sg10
I0
sg11
I1
sg12
I5
sg13
g14
sg15
S'1x instrument buffer'
p27
sg17
I1
sg18
I1
sa(dp28
g3
I5
sg4
S'Output'
p29
sg6
I1000
sg7
I8
sg8
I4
sg9
I16
sg10
I0
sg11
I1
sg12
I5
sg13
g14
sg15
S'1x instrument buffer'
p30
sg17
I1
sg18
I1
sa(dp31
g3
I5
sg4
S'Output'
p32
sg6
I200
sg7
I8
sg8
I5
sg9
I16
sg10
I0
sg11
I45
sg12
I2
sg13
g14
sg15
S'T4 Ligase mix'
p33
sg17
I1
sg18
I1
sa(dp34
g3
I5
sg4
S'Output'
p35
sg6
I1000
sg7
I8
sg8
I6
sg9
I16
sg10
I0
sg11
I1
sg12
I5
sg13
g14
sg15
S'1x instrument buffer'
p36
sg17
I1
sg18
I1
sa(dp37
g3
I5
sg4
S'Output'
p38
sg6
I1000
sg7
I8
sg8
I7
sg9
I16
sg10
I0
sg11
I1
sg12
I5
sg13
g14
sg15
S'1x instrument buffer'
p39
sg17
I1
sg18
I1
sa(dp40
g3
I5
sg4
S'Output'
p41
sg6
I1000
sg7
I8
sg8
I8
sg9
I16
sg10
I0
sg11
I1
sg12
I5
sg13
g14
sg15
S'1x instrument buffer'
p42
sg17
I1
sg18
I1
sa(dp43
g3
I5
sg4
S'Output'
p44
sg6
I1000
sg7
I8
sg8
I9
sg9
I16
sg10
I0
sg11
I1
sg12
I5
sg13
g14
sg15
S'1x instrument buffer'
p45
sg17
I1
sg18
I1
sa(dp46
g3
I5
sg4
S'Output'
p47
sg6
I800
sg7
I8
sg8
I10
sg9
I16
sg10
I0
sg11
I0
sg12
I5
sg13
g14
sg15
S'1x instrument buffer'
p48
sg17
I1
sg18
I0
sa(dp49
g3
I5
sg4
S'Waste'
p50
sg6
I1000
sg7
I9
sg8
I11
sg9
I30
sg10
I1
sg11
I0
sg12
I8
sg13
g14
sg15
S'Output'
p51
sg17
I1
sg18
I0
sa(dp52
g3
I5
sg4
S'Output'
p53
sg6
I200
sg7
I8
sg8
I12
sg9
I16
sg10
I1
sg11
I5
sg12
I3
sg13
g14
sg15
S'Cleave solution 1'
p54
sg17
I1
sg18
I1
sa(dp55
g3
I5
sg4
S'Output'
p56
sg6
I200
sg7
I8
sg8
I13
sg9
I16
sg10
I1
sg11
I5
sg12
I3
sg13
g14
sg15
S'Cleave solution 1'
p57
sg17
I1
sg18
I1
sa(dp58
g3
I5
sg4
S'Output'
p59
sg6
I200
sg7
I8
sg8
I14
sg9
I16
sg10
I1
sg11
I5
sg12
I4
sg13
g14
sg15
S'Cleave solution 2.1'
p60
sg17
I1
sg18
I1
sa(dp61
g3
I5
sg4
S'Output'
p62
sg6
I200
sg7
I8
sg8
I15
sg9
I16
sg10
I1
sg11
I5
sg12
I4
sg13
g14
sg15
S'Cleave solution 2.1'
p63
sg17
I1
sg18
I1
sa(dp64
g3
I5
sg4
S'Output'
p65
sg6
I1000
sg7
I8
sg8
I16
sg9
I16
sg10
I1
sg11
I1
sg12
I5
sg13
g14
sg15
S'1x instrument buffer'
p66
sg17
I1
sg18
I1
sa(dp67
g3
I5
sg4
S'Output'
p68
sg6
I1000
sg7
I8
sg8
I17
sg9
I16
sg10
I1
sg11
I1
sg12
I5
sg13
g14
sg15
S'1x instrument buffer'
p69
sg17
I1
sg18
I1
sa(dp70
g3
I5
sg4
S'Output'
p71
sg6
I1000
sg7
I8
sg8
I18
sg9
I16
sg10
I1
sg11
I1
sg12
I5
sg13
g14
sg15
S'1x instrument buffer'
p72
sg17
I1
sg18
I1
sa(dp73
g3
I5
sg4
S'Output'
p74
sg6
I200
sg7
I8
sg8
I19
sg9
I16
sg10
I1
sg11
I45
sg12
I2
sg13
g14
sg15
S'T4 Ligase mix'
p75
sg17
I1
sg18
I1
sa(dp76
g3
I5
sg4
S'Output'
p77
sg6
I1000
sg7
I8
sg8
I20
sg9
I16
sg10
I1
sg11
I1
sg12
I5
sg13
g14
sg15
S'1x instrument buffer'
p78
sg17
I1
sg18
I1
sa(dp79
g3
I5
sg4
S'Output'
p80
sg6
I1000
sg7
I8
sg8
I21
sg9
I16
sg10
I1
sg11
I1
sg12
I5
sg13
g14
sg15
S'1x instrument buffer'
p81
sg17
I1
sg18
I1
sa(dp82
g3
I5
sg4
S'Output'
p83
sg6
I1000
sg7
I8
sg8
I22
sg9
I16
sg10
I1
sg11
I1
sg12
I5
sg13
g14
sg15
S'1x instrument buffer'
p84
sg17
I1
sg18
I1
sa(dp85
g3
I5
sg4
S'Output'
p86
sg6
I1000
sg7
I8
sg8
I23
sg9
I16
sg10
I1
sg11
I1
sg12
I5
sg13
g14
sg15
S'1x instrument buffer'
p87
sg17
I1
sg18
I1
sa(dp88
g3
I5
sg4
S'Output'
p89
sg6
I800
sg7
I8
sg8
I24
sg9
I16
sg10
I1
sg11
I0
sg12
I5
sg13
g14
sg15
S'1x instrument buffer'
p90
sg17
I1
sg18
I0
sa(dp91
g3
I5
sg4
S'Waste'
p92
sg6
I1000
sg7
I9
sg8
I25
sg9
I30
sg10
I2
sg11
I0
sg12
I8
sg13
g14
sg15
S'Output'
p93
sg17
I1
sg18
I0
sa(dp94
g3
I5
sg4
S'Output'
p95
sg6
I200
sg7
I8
sg8
I26
sg9
I16
sg10
I2
sg11
I5
sg12
I3
sg13
g14
sg15
S'Cleave solution 1'
p96
sg17
I1
sg18
I1
sa(dp97
g3
I5
sg4
S'Output'
p98
sg6
I200
sg7
I8
sg8
I27
sg9
I16
sg10
I2
sg11
I5
sg12
I3
sg13
g14
sg15
S'Cleave solution 1'
p99
sg17
I1
sg18
I1
sa(dp100
g3
I5
sg4
S'Output'
p101
sg6
I200
sg7
I8
sg8
I28
sg9
I16
sg10
I2
sg11
I5
sg12
I4
sg13
g14
sg15
S'Cleave solution 2.1'
p102
sg17
I1
sg18
I1
sa(dp103
g3
I5
sg4
S'Output'
p104
sg6
I200
sg7
I8
sg8
I29
sg9
I16
sg10
I2
sg11
I5
sg12
I4
sg13
g14
sg15
S'Cleave solution 2.1'
p105
sg17
I1
sg18
I1
sa(dp106
g3
I5
sg4
S'Output'
p107
sg6
I1000
sg7
I8
sg8
I30
sg9
I16
sg10
I2
sg11
I1
sg12
I5
sg13
g14
sg15
S'1x instrument buffer'
p108
sg17
I1
sg18
I1
sa(dp109
g3
I5
sg4
S'Output'
p110
sg6
I1000
sg7
I8
sg8
I31
sg9
I16
sg10
I2
sg11
I1
sg12
I5
sg13
g14
sg15
S'1x instrument buffer'
p111
sg17
I1
sg18
I1
sa(dp112
g3
I5
sg4
S'Output'
p113
sg6
I1000
sg7
I8
sg8
I32
sg9
I16
sg10
I2
sg11
I1
sg12
I5
sg13
g14
sg15
S'1x instrument buffer'
p114
sg17
I1
sg18
I1
sa(dp115
g3
I5
sg4
S'Output'
p116
sg6
I200
sg7
I8
sg8
I33
sg9
I16
sg10
I2
sg11
I45
sg12
I2
sg13
g14
sg15
S'T4 Ligase mix'
p117
sg17
I1
sg18
I1
sa(dp118
g3
I5
sg4
S'Output'
p119
sg6
I1000
sg7
I8
sg8
I34
sg9
I16
sg10
I2
sg11
I1
sg12
I5
sg13
g14
sg15
S'1x instrument buffer'
p120
sg17
I1
sg18
I1
sa(dp121
g3
I5
sg4
S'Output'
p122
sg6
I1000
sg7
I8
sg8
I35
sg9
I16
sg10
I2
sg11
I1
sg12
I5
sg13
g14
sg15
S'1x instrument buffer'
p123
sg17
I1
sg18
I1
sa(dp124
g3
I5
sg4
S'Output'
p125
sg6
I1000
sg7
I8
sg8
I36
sg9
I16
sg10
I2
sg11
I1
sg12
I5
sg13
g14
sg15
S'1x instrument buffer'
p126
sg17
I1
sg18
I1
sa(dp127
g3
I5
sg4
S'Output'
p128
sg6
I1000
sg7
I8
sg8
I37
sg9
I16
sg10
I2
sg11
I1
sg12
I5
sg13
g14
sg15
S'1x instrument buffer'
p129
sg17
I1
sg18
I1
sa(dp130
g3
I5
sg4
S'Output'
p131
sg6
I800
sg7
I8
sg8
I38
sg9
I16
sg10
I2
sg11
I0
sg12
I5
sg13
g14
sg15
S'1x instrument buffer'
p132
sg17
I1
sg18
I0
sa(dp133
g3
I5
sg4
S'Waste'
p134
sg6
I1000
sg7
I9
sg8
I39
sg9
I30
sg10
I3
sg11
I0
sg12
I8
sg13
g14
sg15
S'Output'
p135
sg17
I1
sg18
I0
sa(dp136
g3
I5
sg4
S'Output'
p137
sg6
I200
sg7
I8
sg8
I40
sg9
I16
sg10
I3
sg11
I5
sg12
I3
sg13
g14
sg15
S'Cleave solution 1'
p138
sg17
I1
sg18
I1
sa(dp139
g3
I5
sg4
S'Output'
p140
sg6
I200
sg7
I8
sg8
I41
sg9
I16
sg10
I3
sg11
I5
sg12
I3
sg13
g14
sg15
S'Cleave solution 1'
p141
sg17
I1
sg18
I1
sa(dp142
g3
I5
sg4
S'Output'
p143
sg6
I200
sg7
I8
sg8
I42
sg9
I16
sg10
I3
sg11
I5
sg12
I4
sg13
g14
sg15
S'Cleave solution 2.1'
p144
sg17
I1
sg18
I1
sa(dp145
g3
I5
sg4
S'Output'
p146
sg6
I200
sg7
I8
sg8
I43
sg9
I16
sg10
I3
sg11
I5
sg12
I4
sg13
g14
sg15
S'Cleave solution 2.1'
p147
sg17
I1
sg18
I1
sa(dp148
g3
I5
sg4
S'Output'
p149
sg6
I1000
sg7
I8
sg8
I44
sg9
I16
sg10
I3
sg11
I1
sg12
I5
sg13
g14
sg15
S'1x instrument buffer'
p150
sg17
I1
sg18
I1
sa(dp151
g3
I5
sg4
S'Output'
p152
sg6
I1000
sg7
I8
sg8
I45
sg9
I16
sg10
I3
sg11
I1
sg12
I5
sg13
g14
sg15
S'1x instrument buffer'
p153
sg17
I1
sg18
I1
sa(dp154
g3
I5
sg4
S'Output'
p155
sg6
I1000
sg7
I8
sg8
I46
sg9
I16
sg10
I3
sg11
I1
sg12
I5
sg13
g14
sg15
S'1x instrument buffer'
p156
sg17
I1
sg18
I1
sa(dp157
g3
I5
sg4
S'Output'
p158
sg6
I200
sg7
I8
sg8
I47
sg9
I16
sg10
I3
sg11
I45
sg12
I2
sg13
g14
sg15
S'T4 Ligase mix'
p159
sg17
I1
sg18
I1
sa(dp160
g3
I5
sg4
S'Output'
p161
sg6
I1000
sg7
I8
sg8
I48
sg9
I16
sg10
I3
sg11
I1
sg12
I5
sg13
g14
sg15
S'1x instrument buffer'
p162
sg17
I1
sg18
I1
sa(dp163
g3
I5
sg4
S'Output'
p164
sg6
I1000
sg7
I8
sg8
I49
sg9
I16
sg10
I3
sg11
I1
sg12
I5
sg13
g14
sg15
S'1x instrument buffer'
p165
sg17
I1
sg18
I1
sa(dp166
g3
I5
sg4
S'Output'
p167
sg6
I1000
sg7
I8
sg8
I50
sg9
I16
sg10
I3
sg11
I1
sg12
I5
sg13
g14
sg15
S'1x instrument buffer'
p168
sg17
I1
sg18
I1
sa(dp169
g3
I5
sg4
S'Output'
p170
sg6
I1000
sg7
I8
sg8
I51
sg9
I16
sg10
I3
sg11
I1
sg12
I5
sg13
g14
sg15
S'1x instrument buffer'
p171
sg17
I1
sg18
I1
sa(dp172
g3
I5
sg4
S'Output'
p173
sg6
I800
sg7
I8
sg8
I52
sg9
I16
sg10
I3
sg11
I0
sg12
I5
sg13
g14
sg15
S'1x instrument buffer'
p174
sg17
I1
sg18
I0
sa(dp175
g3
I5
sg4
S'Waste'
p176
sg6
I1000
sg7
I9
sg8
I53
sg9
I30
sg10
I4
sg11
I0
sg12
I8
sg13
g14
sg15
S'Output'
p177
sg17
I1
sg18
I0
sa(dp178
g3
I5
sg4
S'Output'
p179
sg6
I200
sg7
I8
sg8
I54
sg9
I16
sg10
I4
sg11
I5
sg12
I3
sg13
g14
sg15
S'Cleave solution 1'
p180
sg17
I1
sg18
I1
sa(dp181
g3
I5
sg4
S'Output'
p182
sg6
I200
sg7
I8
sg8
I55
sg9
I16
sg10
I4
sg11
I5
sg12
I3
sg13
g14
sg15
S'Cleave solution 1'
p183
sg17
I1
sg18
I1
sa(dp184
g3
I5
sg4
S'Output'
p185
sg6
I200
sg7
I8
sg8
I56
sg9
I16
sg10
I4
sg11
I5
sg12
I4
sg13
g14
sg15
S'Cleave solution 2.1'
p186
sg17
I1
sg18
I1
sa(dp187
g3
I5
sg4
S'Output'
p188
sg6
I200
sg7
I8
sg8
I57
sg9
I16
sg10
I4
sg11
I5
sg12
I4
sg13
g14
sg15
S'Cleave solution 2.1'
p189
sg17
I1
sg18
I1
sa(dp190
g3
I5
sg4
S'Output'
p191
sg6
I1000
sg7
I8
sg8
I58
sg9
I16
sg10
I4
sg11
I1
sg12
I5
sg13
g14
sg15
S'1x instrument buffer'
p192
sg17
I1
sg18
I1
sa(dp193
g3
I5
sg4
S'Output'
p194
sg6
I1000
sg7
I8
sg8
I59
sg9
I16
sg10
I4
sg11
I1
sg12
I5
sg13
g14
sg15
S'1x instrument buffer'
p195
sg17
I1
sg18
I1
sa(dp196
g3
I5
sg4
S'Output'
p197
sg6
I1000
sg7
I8
sg8
I60
sg9
I16
sg10
I4
sg11
I1
sg12
I5
sg13
g14
sg15
S'1x instrument buffer'
p198
sg17
I1
sg18
I1
sa(dp199
g3
I5
sg4
S'Output'
p200
sg6
I200
sg7
I8
sg8
I61
sg9
I16
sg10
I4
sg11
I45
sg12
I2
sg13
g14
sg15
S'T4 Ligase mix'
p201
sg17
I1
sg18
I1
sa(dp202
g3
I5
sg4
S'Output'
p203
sg6
I1000
sg7
I8
sg8
I62
sg9
I16
sg10
I4
sg11
I1
sg12
I5
sg13
g14
sg15
S'1x instrument buffer'
p204
sg17
I1
sg18
I1
sa(dp205
g3
I5
sg4
S'Output'
p206
sg6
I1000
sg7
I8
sg8
I63
sg9
I16
sg10
I4
sg11
I1
sg12
I5
sg13
g14
sg15
S'1x instrument buffer'
p207
sg17
I1
sg18
I1
sa(dp208
g3
I5
sg4
S'Output'
p209
sg6
I1000
sg7
I8
sg8
I64
sg9
I16
sg10
I4
sg11
I1
sg12
I5
sg13
g14
sg15
S'1x instrument buffer'
p210
sg17
I1
sg18
I1
sa(dp211
g3
I5
sg4
S'Output'
p212
sg6
I1000
sg7
I8
sg8
I65
sg9
I16
sg10
I4
sg11
I1
sg12
I5
sg13
g14
sg15
S'1x instrument buffer'
p213
sg17
I1
sg18
I1
sa(dp214
g3
I5
sg4
S'Output'
p215
sg6
I800
sg7
I8
sg8
I66
sg9
I16
sg10
I4
sg11
I0
sg12
I5
sg13
g14
sg15
S'1x instrument buffer'
p216
sg17
I1
sg18
I0
sa(dp217
g3
I5
sg4
S'Waste'
p218
sg6
I1000
sg7
I9
sg8
I67
sg9
I30
sg10
I5
sg11
I0
sg12
I8
sg13
g14
sg15
S'Output'
p219
sg17
I1
sg18
I0
sa(dp220
g3
I5
sg4
S'Output'
p221
sg6
I200
sg7
I8
sg8
I68
sg9
I16
sg10
I5
sg11
I5
sg12
I3
sg13
g14
sg15
S'Cleave solution 1'
p222
sg17
I1
sg18
I1
sa(dp223
g3
I5
sg4
S'Output'
p224
sg6
I200
sg7
I8
sg8
I69
sg9
I16
sg10
I5
sg11
I5
sg12
I3
sg13
g14
sg15
S'Cleave solution 1'
p225
sg17
I1
sg18
I1
sa(dp226
g3
I5
sg4
S'Output'
p227
sg6
I200
sg7
I8
sg8
I70
sg9
I16
sg10
I5
sg11
I5
sg12
I4
sg13
g14
sg15
S'Cleave solution 2.1'
p228
sg17
I1
sg18
I1
sa(dp229
g3
I5
sg4
S'Output'
p230
sg6
I200
sg7
I8
sg8
I71
sg9
I16
sg10
I5
sg11
I5
sg12
I4
sg13
g14
sg15
S'Cleave solution 2.1'
p231
sg17
I1
sg18
I1
sa(dp232
g3
I5
sg4
S'Output'
p233
sg6
I1000
sg7
I8
sg8
I72
sg9
I16
sg10
I5
sg11
I1
sg12
I5
sg13
g14
sg15
S'1x instrument buffer'
p234
sg17
I1
sg18
I1
sa(dp235
g3
I5
sg4
S'Output'
p236
sg6
I1000
sg7
I8
sg8
I73
sg9
I16
sg10
I5
sg11
I1
sg12
I5
sg13
g14
sg15
S'1x instrument buffer'
p237
sg17
I1
sg18
I1
sa(dp238
g3
I5
sg4
S'Output'
p239
sg6
I1000
sg7
I8
sg8
I74
sg9
I16
sg10
I5
sg11
I1
sg12
I5
sg13
g14
sg15
S'1x instrument buffer'
p240
sg17
I1
sg18
I1
sa(dp241
g3
I5
sg4
S'Output'
p242
sg6
I200
sg7
I8
sg8
I75
sg9
I16
sg10
I5
sg11
I45
sg12
I2
sg13
g14
sg15
S'T4 Ligase mix'
p243
sg17
I1
sg18
I1
sa(dp244
g3
I5
sg4
S'Output'
p245
sg6
I1000
sg7
I8
sg8
I76
sg9
I16
sg10
I5
sg11
I1
sg12
I5
sg13
g14
sg15
S'1x instrument buffer'
p246
sg17
I1
sg18
I1
sa(dp247
g3
I5
sg4
S'Output'
p248
sg6
I1000
sg7
I8
sg8
I77
sg9
I16
sg10
I5
sg11
I1
sg12
I5
sg13
g14
sg15
S'1x instrument buffer'
p249
sg17
I1
sg18
I1
sa(dp250
g3
I5
sg4
S'Output'
p251
sg6
I1000
sg7
I8
sg8
I78
sg9
I16
sg10
I5
sg11
I1
sg12
I5
sg13
g14
sg15
S'1x instrument buffer'
p252
sg17
I1
sg18
I1
sa(dp253
g3
I5
sg4
S'Output'
p254
sg6
I1000
sg7
I8
sg8
I79
sg9
I16
sg10
I5
sg11
I1
sg12
I5
sg13
g14
sg15
S'1x instrument buffer'
p255
sg17
I1
sg18
I1
sa(dp256
g3
I5
sg4
S'Output'
p257
sg6
I800
sg7
I8
sg8
I80
sg9
I16
sg10
I5
sg11
I0
sg12
I5
sg13
g14
sg15
S'1x instrument buffer'
p258
sg17
I1
sg18
I0
sa(dp259
g3
I5
sg4
S'Waste'
p260
sg6
I1000
sg7
I9
sg8
I81
sg9
I30
sg10
I6
sg11
I0
sg12
I8
sg13
g14
sg15
S'Output'
p261
sg17
I1
sg18
I0
sa(dp262
g3
I5
sg4
S'Output'
p263
sg6
I200
sg7
I8
sg8
I82
sg9
I16
sg10
I6
sg11
I5
sg12
I3
sg13
g14
sg15
S'Cleave solution 1'
p264
sg17
I1
sg18
I1
sa(dp265
g3
I5
sg4
S'Output'
p266
sg6
I200
sg7
I8
sg8
I83
sg9
I16
sg10
I6
sg11
I5
sg12
I3
sg13
g14
sg15
S'Cleave solution 1'
p267
sg17
I1
sg18
I1
sa(dp268
g3
I5
sg4
S'Output'
p269
sg6
I200
sg7
I8
sg8
I84
sg9
I16
sg10
I6
sg11
I5
sg12
I4
sg13
g14
sg15
S'Cleave solution 2.1'
p270
sg17
I1
sg18
I1
sa(dp271
g3
I5
sg4
S'Output'
p272
sg6
I200
sg7
I8
sg8
I85
sg9
I16
sg10
I6
sg11
I5
sg12
I4
sg13
g14
sg15
S'Cleave solution 2.1'
p273
sg17
I1
sg18
I1
sa(dp274
g3
I5
sg4
S'Output'
p275
sg6
I1000
sg7
I8
sg8
I86
sg9
I16
sg10
I6
sg11
I1
sg12
I5
sg13
g14
sg15
S'1x instrument buffer'
p276
sg17
I1
sg18
I1
sa(dp277
g3
I5
sg4
S'Output'
p278
sg6
I1000
sg7
I8
sg8
I87
sg9
I16
sg10
I6
sg11
I1
sg12
I5
sg13
g14
sg15
S'1x instrument buffer'
p279
sg17
I1
sg18
I1
sa(dp280
g3
I5
sg4
S'Output'
p281
sg6
I1000
sg7
I8
sg8
I88
sg9
I16
sg10
I6
sg11
I1
sg12
I5
sg13
g14
sg15
S'1x instrument buffer'
p282
sg17
I1
sg18
I1
sa(dp283
g3
I5
sg4
S'Output'
p284
sg6
I200
sg7
I8
sg8
I89
sg9
I16
sg10
I6
sg11
I45
sg12
I2
sg13
g14
sg15
S'T4 Ligase mix'
p285
sg17
I1
sg18
I1
sa(dp286
g3
I5
sg4
S'Output'
p287
sg6
I1000
sg7
I8
sg8
I90
sg9
I16
sg10
I6
sg11
I1
sg12
I5
sg13
g14
sg15
S'1x instrument buffer'
p288
sg17
I1
sg18
I1
sa(dp289
g3
I5
sg4
S'Output'
p290
sg6
I1000
sg7
I8
sg8
I91
sg9
I16
sg10
I6
sg11
I1
sg12
I5
sg13
g14
sg15
S'1x instrument buffer'
p291
sg17
I1
sg18
I1
sa(dp292
g3
I5
sg4
S'Output'
p293
sg6
I1000
sg7
I8
sg8
I92
sg9
I16
sg10
I6
sg11
I1
sg12
I5
sg13
g14
sg15
S'1x instrument buffer'
p294
sg17
I1
sg18
I1
sa(dp295
g3
I5
sg4
S'Output'
p296
sg6
I1000
sg7
I8
sg8
I93
sg9
I16
sg10
I6
sg11
I1
sg12
I5
sg13
g14
sg15
S'1x instrument buffer'
p297
sg17
I1
sg18
I1
sa(dp298
g3
I5
sg4
S'Output'
p299
sg6
I800
sg7
I8
sg8
I94
sg9
I16
sg10
I6
sg11
I0
sg12
I5
sg13
g14
sg15
S'1x instrument buffer'
p300
sg17
I1
sg18
I0
sa(dp301
g3
I5
sg4
S'Waste'
p302
sg6
I1000
sg7
I9
sg8
I95
sg9
I30
sg10
I7
sg11
I0
sg12
I8
sg13
g14
sg15
S'Output'
p303
sg17
I1
sg18
I0
sa(dp304
g3
I5
sg4
S'Output'
p305
sg6
I200
sg7
I8
sg8
I96
sg9
I16
sg10
I7
sg11
I5
sg12
I3
sg13
g14
sg15
S'Cleave solution 1'
p306
sg17
I1
sg18
I1
sa(dp307
g3
I5
sg4
S'Output'
p308
sg6
I200
sg7
I8
sg8
I97
sg9
I16
sg10
I7
sg11
I5
sg12
I3
sg13
g14
sg15
S'Cleave solution 1'
p309
sg17
I1
sg18
I1
sa(dp310
g3
I5
sg4
S'Output'
p311
sg6
I200
sg7
I8
sg8
I98
sg9
I16
sg10
I7
sg11
I5
sg12
I4
sg13
g14
sg15
S'Cleave solution 2.1'
p312
sg17
I1
sg18
I1
sa(dp313
g3
I5
sg4
S'Output'
p314
sg6
I200
sg7
I8
sg8
I99
sg9
I16
sg10
I7
sg11
I5
sg12
I4
sg13
g14
sg15
S'Cleave solution 2.1'
p315
sg17
I1
sg18
I1
sa(dp316
g3
I5
sg4
S'Output'
p317
sg6
I1000
sg7
I8
sg8
I100
sg9
I16
sg10
I7
sg11
I1
sg12
I5
sg13
g14
sg15
S'1x instrument buffer'
p318
sg17
I1
sg18
I1
sa(dp319
g3
I5
sg4
S'Output'
p320
sg6
I1000
sg7
I8
sg8
I101
sg9
I16
sg10
I7
sg11
I1
sg12
I5
sg13
g14
sg15
S'1x instrument buffer'
p321
sg17
I1
sg18
I1
sa(dp322
g3
I5
sg4
S'Output'
p323
sg6
I1000
sg7
I8
sg8
I102
sg9
I16
sg10
I7
sg11
I1
sg12
I5
sg13
g14
sg15
S'1x instrument buffer'
p324
sg17
I1
sg18
I1
sa(dp325
g3
I5
sg4
S'Output'
p326
sg6
I800
sg7
I8
sg8
I103
sg9
I16
sg10
I0
sg11
I0
sg12
I5
sg13
g14
sg15
S'1x instrument buffer'
p327
sg17
I1
sg18
I0
sa.