(lp1
(dp2
S'volume'
p3
I0
sS'reagent'
p4
S''
sS'pump'
p5
S'/dev/ttyUSB0'
p6
sS'port'
p7
I1
sa(dp8
g3
I0
sg4
S'P1'
p9
sg5
g6
sg7
I2
sa(dp10
g3
I0
sg4
S''
sg5
g6
sg7
I3
sa(dp11
g3
I0
sg4
S''
sg5
g6
sg7
I4
sa(dp12
g3
I0
sg4
S'wash'
p13
sg5
g6
sg7
I5
sa(dp14
g3
I0
sg4
S''
sg5
g6
sg7
I6
sa(dp15
g3
I0
sg4
S'Air 1'
p16
sg5
g6
sg7
I7
sa(dp17
g3
I0
sg4
S'sample'
p18
sg5
g6
sg7
I8
sa(dp19
g3
I0
sg4
S'Waste 1'
p20
sg5
g6
sg7
I9
sa.(lp1
(dp2
S'waitsecs'
p3
I5
sS'toportreagent'
p4
S'sample'
p5
sS'volume'
p6
I100
sS'toport'
p7
I8
sS'cmdnumber'
p8
I0
sS'speed'
p9
I28
sS'cycle'
p10
I0
sS'waitmins'
p11
I0
sS'temp'
p12
I25
sS'heatwhen'
p13
I0
sS'fromport'
p14
I5
sS'pump'
p15
S'/dev/ttyUSB0'
p16
sS'fromportreagent'
p17
S'wash'
p18
sS'waste'
p19
I0
sS'type'
p20
I0
sa(dp21
g3
I5
sg4
S'Waste 1'
p22
sg6
I100
sg7
I9
sg8
I1
sg9
I28
sg10
I1
sg11
I0
sg12
I25
sg13
I0
sg14
I2
sg15
g16
sg17
S'P1'
p23
sg19
I0
sg20
I0
sa(dp24
g3
I5
sg4
S'sample'
p25
sg6
I100
sg7
I8
sg8
I2
sg9
I28
sg10
I2
sg11
I0
sg12
I25
sg13
I0
sg14
I2
sg15
g16
sg17
S'P1'
p26
sg19
I0
sg20
I0
sa(dp27
g3
I5
sg4
S'sample'
p28
sg6
I100
sg7
I8
sg8
I3
sg9
I28
sg10
I3
sg11
I0
sg12
I25
sg13
I0
sg14
I2
sg15
g16
sg17
S'P1'
p29
sg19
I0
sg20
I0
sa(dp30
g3
I5
sg4
S'sample'
p31
sg6
I100
sg7
I8
sg8
I4
sg9
I28
sg10
I4
sg11
I0
sg12
I25
sg13
I0
sg14
I2
sg15
g16
sg17
S'P1'
p32
sg19
I0
sg20
I0
sa(dp33
g3
I5
sg4
S''
sg6
I1
sg7
I1
sg8
I5
sg9
I16
sg10
I5
sg11
I0
sg12
I25
sg13
I0
sg14
I1
sg15
g16
sg17
S''
sg19
I0
sg20
I0
sa.