(lp1
(dp2
S'volume'
p3
I0
sS'reagent'
p4
S''
sS'pump'
p5
S'/dev/ttyUSB0'
p6
sS'port'
p7
I1
sa(dp8
g3
I0
sg4
S'L3'
p9
sg5
g6
sg7
I2
sa(dp10
g3
I0
sg4
S'B'
sg5
g6
sg7
I3
sa(dp11
g3
I0
sg4
S'L4'
p12
sg5
g6
sg7
I4
sa(dp13
g3
I0
sg4
S'wash'
p14
sg5
g6
sg7
I5
sa(dp15
g3
I0
sg4
S''
sg5
g6
sg7
I6
sa(dp16
g3
I0
sg4
S'Air 1'
p17
sg5
g6
sg7
I7
sa(dp18
g3
I0
sg4
S'Output 1'
p19
sg5
g6
sg7
I8
sa(dp20
g3
I0
sg4
S'Waste 1'
p21
sg5
g6
sg7
I9
sa.(lp1
(dp2
S'waitsecs'
p3
I5
sS'toportreagent'
p4
S'Waste 1'
p5
sS'volume'
p6
I40
sS'toport'
p7
I9
sS'cmdnumber'
p8
I0
sS'speed'
p9
I39
sS'cycle'
p10
I0
sS'waitmins'
p11
I0
sS'temp'
p12
I25
sS'heatwhen'
p13
I0
sS'fromport'
p14
I5
sS'pump'
p15
S'/dev/ttyUSB0'
p16
sS'fromportreagent'
p17
S'wash'
p18
sS'waste'
p19
I0
sS'type'
p20
I0
sa.