(lp1
(dp2
S'volume'
p3
I0
sS'reagent'
p4
S''
sS'pump'
p5
S'/dev/ttyUSB0'
p6
sS'port'
p7
I1
sa(dp8
g3
I0
sg4
S'P1'
p9
sg5
g6
sg7
I2
sa(dp10
g3
I0
sg4
S''
sg5
g6
sg7
I3
sa(dp11
g3
I0
sg4
S''
sg5
g6
sg7
I4
sa(dp12
g3
I0
sg4
S'wash'
p13
sg5
g6
sg7
I5
sa(dp14
g3
I0
sg4
S''
sg5
g6
sg7
I6
sa(dp15
g3
I0
sg4
S'Air 1'
p16
sg5
g6
sg7
I7
sa(dp17
g3
I0
sg4
S'sample'
p18
sg5
g6
sg7
I8
sa(dp19
g3
I0
sg4
S'Waste 1'
p20
sg5
g6
sg7
I9
sa.(lp1
(dp2
S'waitsecs'
p3
I5
sS'toportreagent'
p4
S'sample'
p5
sS'volume'
p6
I40
sS'toport'
p7
I8
sS'cmdnumber'
p8
I0
sS'speed'
p9
I38
sS'cycle'
p10
I0
sS'waitmins'
p11
I0
sS'temp'
p12
I25
sS'heatwhen'
p13
I0
sS'fromport'
p14
I2
sS'pump'
p15
S'/dev/ttyUSB0'
p16
sS'fromportreagent'
p17
S'P1'
p18
sS'waste'
p19
I0
sS'type'
p20
I0
sa(dp21
g3
I5
sg4
S'sample'
p22
sg6
I40
sg7
I8
sg8
I1
sg9
I38
sg10
I1
sg11
I0
sg12
I25
sg13
I0
sg14
I2
sg15
g16
sg17
S'P1'
p23
sg19
I0
sg20
I0
sa(dp24
g3
I5
sg4
S'sample'
p25
sg6
I40
sg7
I8
sg8
I2
sg9
I38
sg10
I2
sg11
I0
sg12
I25
sg13
I0
sg14
I2
sg15
g16
sg17
S'P1'
p26
sg19
I0
sg20
I0
sa(dp27
g3
I5
sg4
S'sample'
p28
sg6
I40
sg7
I8
sg8
I3
sg9
I38
sg10
I3
sg11
I0
sg12
I25
sg13
I0
sg14
I2
sg15
g16
sg17
S'P1'
p29
sg19
I0
sg20
I0
sa(dp30
g3
I5
sg4
S'sample'
p31
sg6
I40
sg7
I8
sg8
I4
sg9
I38
sg10
I4
sg11
I0
sg12
I25
sg13
I0
sg14
I2
sg15
g16
sg17
S'P1'
p32
sg19
I0
sg20
I0
sa(dp33
g3
I5
sg4
S'sample'
p34
sg6
I40
sg7
I8
sg8
I5
sg9
I38
sg10
I5
sg11
I0
sg12
I25
sg13
I0
sg14
I2
sg15
g16
sg17
S'P1'
p35
sg19
I0
sg20
I0
sa(dp36
g3
I5
sg4
S'sample'
p37
sg6
I40
sg7
I8
sg8
I6
sg9
I38
sg10
I6
sg11
I0
sg12
I25
sg13
I0
sg14
I2
sg15
g16
sg17
S'P1'
p38
sg19
I0
sg20
I0
sa(dp39
g3
I5
sg4
S'sample'
p40
sg6
I40
sg7
I8
sg8
I7
sg9
I38
sg10
I7
sg11
I0
sg12
I25
sg13
I0
sg14
I2
sg15
g16
sg17
S'P1'
p41
sg19
I0
sg20
I0
sa(dp42
g3
I5
sg4
S'sample'
p43
sg6
I40
sg7
I8
sg8
I8
sg9
I38
sg10
I8
sg11
I0
sg12
I25
sg13
I0
sg14
I2
sg15
g16
sg17
S'P1'
p44
sg19
I0
sg20
I0
sa(dp45
g3
I5
sg4
S'sample'
p46
sg6
I40
sg7
I8
sg8
I9
sg9
I38
sg10
I9
sg11
I0
sg12
I25
sg13
I0
sg14
I2
sg15
g16
sg17
S'P1'
p47
sg19
I0
sg20
I0
sa(dp48
g3
I5
sg4
S'sample'
p49
sg6
I40
sg7
I8
sg8
I10
sg9
I38
sg10
I10
sg11
I0
sg12
I25
sg13
I0
sg14
I2
sg15
g16
sg17
S'P1'
p50
sg19
I0
sg20
I0
sa(dp51
g3
I5
sg4
S'sample'
p52
sg6
I40
sg7
I8
sg8
I11
sg9
I38
sg10
I11
sg11
I0
sg12
I25
sg13
I0
sg14
I2
sg15
g16
sg17
S'P1'
p53
sg19
I0
sg20
I0
sa(dp54
g3
I5
sg4
S'sample'
p55
sg6
I40
sg7
I8
sg8
I12
sg9
I38
sg10
I12
sg11
I0
sg12
I25
sg13
I0
sg14
I2
sg15
g16
sg17
S'P1'
p56
sg19
I0
sg20
I0
sa(dp57
g3
I5
sg4
S'sample'
p58
sg6
I40
sg7
I8
sg8
I13
sg9
I38
sg10
I13
sg11
I0
sg12
I25
sg13
I0
sg14
I2
sg15
g16
sg17
S'P1'
p59
sg19
I0
sg20
I0
sa(dp60
g3
I5
sg4
S'sample'
p61
sg6
I40
sg7
I8
sg8
I14
sg9
I38
sg10
I14
sg11
I0
sg12
I25
sg13
I0
sg14
I2
sg15
g16
sg17
S'P1'
p62
sg19
I0
sg20
I0
sa(dp63
g3
I5
sg4
S'sample'
p64
sg6
I40
sg7
I8
sg8
I15
sg9
I38
sg10
I15
sg11
I0
sg12
I25
sg13
I0
sg14
I2
sg15
g16
sg17
S'P1'
p65
sg19
I0
sg20
I0
sa(dp66
g3
I5
sg4
S'sample'
p67
sg6
I40
sg7
I8
sg8
I16
sg9
I38
sg10
I16
sg11
I0
sg12
I25
sg13
I0
sg14
I2
sg15
g16
sg17
S'P1'
p68
sg19
I0
sg20
I0
sa(dp69
g3
I5
sg4
S'sample'
p70
sg6
I40
sg7
I8
sg8
I17
sg9
I38
sg10
I17
sg11
I0
sg12
I25
sg13
I0
sg14
I2
sg15
g16
sg17
S'P1'
p71
sg19
I0
sg20
I0
sa(dp72
g3
I5
sg4
S'sample'
p73
sg6
I40
sg7
I8
sg8
I18
sg9
I38
sg10
I18
sg11
I0
sg12
I25
sg13
I0
sg14
I2
sg15
g16
sg17
S'P1'
p74
sg19
I0
sg20
I0
sa(dp75
g3
I5
sg4
S'sample'
p76
sg6
I40
sg7
I8
sg8
I19
sg9
I38
sg10
I19
sg11
I0
sg12
I25
sg13
I0
sg14
I2
sg15
g16
sg17
S'P1'
p77
sg19
I0
sg20
I0
sa(dp78
g3
I5
sg4
S'sample'
p79
sg6
I40
sg7
I8
sg8
I20
sg9
I38
sg10
I20
sg11
I0
sg12
I25
sg13
I0
sg14
I2
sg15
g16
sg17
S'P1'
p80
sg19
I0
sg20
I0
sa(dp81
g3
I5
sg4
S'sample'
p82
sg6
I40
sg7
I8
sg8
I21
sg9
I38
sg10
I21
sg11
I0
sg12
I25
sg13
I0
sg14
I2
sg15
g16
sg17
S'P1'
p83
sg19
I0
sg20
I0
sa(dp84
g3
I5
sg4
S'sample'
p85
sg6
I40
sg7
I8
sg8
I22
sg9
I38
sg10
I22
sg11
I0
sg12
I25
sg13
I0
sg14
I2
sg15
g16
sg17
S'P1'
p86
sg19
I0
sg20
I0
sa(dp87
g3
I5
sg4
S'sample'
p88
sg6
I40
sg7
I8
sg8
I23
sg9
I38
sg10
I23
sg11
I0
sg12
I25
sg13
I0
sg14
I2
sg15
g16
sg17
S'P1'
p89
sg19
I0
sg20
I0
sa(dp90
g3
I5
sg4
S'sample'
p91
sg6
I40
sg7
I8
sg8
I24
sg9
I38
sg10
I24
sg11
I0
sg12
I25
sg13
I0
sg14
I2
sg15
g16
sg17
S'P1'
p92
sg19
I0
sg20
I0
sa.