(lp1
(dp2
S'waitsecs'
p3
I5
sS'volume'
p4
I200
sS'toport'
p5
I8
sS'cmdnumber'
p6
I0
sS'speed'
p7
I18
sS'cycle'
p8
I0
sS'waitmins'
p9
I10
sS'name'
p10
S'Sequencing primer @ 80'
p11
sS'fromport'
p12
I1
sS'pump'
p13
S'/dev/ttyUSB0'
p14
sS'waste'
p15
I1
sa(dp16
g3
I5
sg4
I1000
sg5
I8
sg6
I1
sg7
I18
sg8
I0
sg9
I1
sg10
S'Wash 1x inst. buffer'
p17
sg12
I1
sg13
S'/dev/ttyUSB0'
p18
sg15
I1
sa(dp19
g3
I5
sg4
I1000
sg5
I8
sg6
I2
sg7
I18
sg8
I0
sg9
I1
sg10
S'Wash 1x inst. buffer'
p20
sg12
I1
sg13
S'/dev/ttyUSB0'
p21
sg15
I1
sa(dp22
g3
I5
sg4
I200
sg5
I8
sg6
I3
sg7
I18
sg8
I0
sg9
I45
sg10
S'T4 Ligase mix '
p23
sg12
I1
sg13
S'/dev/ttyUSB0'
p24
sg15
I1
sa(dp25
g3
I5
sg4
I1000
sg5
I8
sg6
I4
sg7
I18
sg8
I0
sg9
I1
sg10
S'Wash 1x inst. buffer'
p26
sg12
I1
sg13
S'/dev/ttyUSB0'
p27
sg15
I1
sa(dp28
g3
I5
sg4
I1000
sg5
I8
sg6
I5
sg7
I18
sg8
I0
sg9
I1
sg10
S'Wash 1x inst. buffer'
p29
sg12
I1
sg13
S'/dev/ttyUSB0'
p30
sg15
I1
sa(dp31
g3
I5
sg4
I1000
sg5
I8
sg6
I6
sg7
I18
sg8
I0
sg9
I1
sg10
S'Wash 1x inst. buffer'
p32
sg12
I1
sg13
S'/dev/ttyUSB0'
p33
sg15
I1
sa(dp34
g3
I5
sg4
I1000
sg5
I8
sg6
I7
sg7
I18
sg8
I0
sg9
I1
sg10
S'Wash 1x inst. buffer'
p35
sg12
I1
sg13
S'/dev/ttyUSB0'
p36
sg15
I1
sa(dp37
g3
I5
sg4
I200
sg5
I8
sg6
I8
sg7
I18
sg8
I1
sg9
I5
sg10
S'Cleave sol. 1'
p38
sg12
I1
sg13
S'/dev/ttyUSB0'
p39
sg15
I1
sa(dp40
g3
I5
sg4
I200
sg5
I8
sg6
I9
sg7
I18
sg8
I1
sg9
I5
sg10
S'Cleave sol. 1'
p41
sg12
I1
sg13
S'/dev/ttyUSB0'
p42
sg15
I1
sa(dp43
g3
I5
sg4
I200
sg5
I8
sg6
I10
sg7
I18
sg8
I1
sg9
I5
sg10
S'Cleave sol. 2.1'
p44
sg12
I1
sg13
S'/dev/ttyUSB0'
p45
sg15
I1
sa(dp46
g3
I5
sg4
I200
sg5
I8
sg6
I11
sg7
I18
sg8
I1
sg9
I5
sg10
S'Cleave sol. 2.1'
p47
sg12
I1
sg13
S'/dev/ttyUSB0'
p48
sg15
I1
sa(dp49
g3
I5
sg4
I1000
sg5
I8
sg6
I12
sg7
I18
sg8
I1
sg9
I1
sg10
S'Wash 1x inst. buffer'
p50
sg12
I1
sg13
S'/dev/ttyUSB0'
p51
sg15
I1
sa(dp52
g3
I5
sg4
I1000
sg5
I8
sg6
I13
sg7
I16
sg8
I1
sg9
I1
sg10
S'Wash 1x inst. buffer'
p53
sg12
I1
sg13
S'/dev/ttyUSB0'
p54
sg15
I1
sa(dp55
g3
I5
sg4
I1000
sg5
I8
sg6
I14
sg7
I16
sg8
I1
sg9
I1
sg10
S'Wash 1x inst. buffer'
p56
sg12
I1
sg13
S'/dev/ttyUSB0'
p57
sg15
I1
sa(dp58
g3
I5
sg4
I200
sg5
I8
sg6
I15
sg7
I16
sg8
I2
sg9
I45
sg10
S'T4 Ligase mix'
p59
sg12
I1
sg13
S'/dev/ttyUSB0'
p60
sg15
I1
sa(dp61
g3
I5
sg4
I1000
sg5
I8
sg6
I16
sg7
I16
sg8
I2
sg9
I1
sg10
S'Wash 1x inst. buffer'
p62
sg12
I1
sg13
S'/dev/ttyUSB0'
p63
sg15
I1
sa(dp64
g3
I5
sg4
I1000
sg5
I8
sg6
I17
sg7
I16
sg8
I2
sg9
I1
sg10
S'Wash 1x inst. buffer'
p65
sg12
I1
sg13
S'/dev/ttyUSB0'
p66
sg15
I1
sa(dp67
g3
I5
sg4
I1000
sg5
I8
sg6
I18
sg7
I16
sg8
I2
sg9
I1
sg10
S'Wash 1x inst. buffer'
p68
sg12
I1
sg13
S'/dev/ttyUSB0'
p69
sg15
I1
sa(dp70
g3
I5
sg4
I1000
sg5
I8
sg6
I19
sg7
I16
sg8
I2
sg9
I1
sg10
S'Wash 1x inst. buffer'
p71
sg12
I1
sg13
S'/dev/ttyUSB0'
p72
sg15
I1
sa(dp73
g3
I5
sg4
I200
sg5
I8
sg6
I20
sg7
I16
sg8
I3
sg9
I5
sg10
S'Cleave sol. 1'
p74
sg12
I1
sg13
S'/dev/ttyUSB0'
p75
sg15
I1
sa(dp76
g3
I5
sg4
I200
sg5
I8
sg6
I21
sg7
I16
sg8
I3
sg9
I5
sg10
S'Cleave sol. 1'
p77
sg12
I1
sg13
S'/dev/ttyUSB0'
p78
sg15
I1
sa(dp79
g3
I5
sg4
I200
sg5
I8
sg6
I22
sg7
I16
sg8
I3
sg9
I5
sg10
S'Cleave sol. 2.1'
p80
sg12
I1
sg13
S'/dev/ttyUSB0'
p81
sg15
I1
sa(dp82
g3
I5
sg4
I200
sg5
I8
sg6
I23
sg7
I16
sg8
I3
sg9
I5
sg10
S'Cleave sol. 2.1'
p83
sg12
I1
sg13
S'/dev/ttyUSB0'
p84
sg15
I1
sa(dp85
g3
I5
sg4
I1000
sg5
I8
sg6
I24
sg7
I16
sg8
I3
sg9
I1
sg10
S'Wash 1x inst. buffer'
p86
sg12
I1
sg13
S'/dev/ttyUSB0'
p87
sg15
I1
sa(dp88
g3
I5
sg4
I1000
sg5
I8
sg6
I25
sg7
I16
sg8
I3
sg9
I1
sg10
S'Wash 1x inst. buffer'
p89
sg12
I1
sg13
S'/dev/ttyUSB0'
p90
sg15
I1
sa(dp91
g3
I5
sg4
I1000
sg5
I8
sg6
I26
sg7
I16
sg8
I3
sg9
I1
sg10
S'Wash 1x inst. buffer'
p92
sg12
I1
sg13
S'/dev/ttyUSB0'
p93
sg15
I1
sa.