(lp1
(dp2
S'waitsecs'
p3
I5
sS'volume'
p4
I200
sS'toport'
p5
I8
sS'cmdnumber'
p6
I0
sS'speed'
p7
I16
sS'cycle'
p8
I0
sS'waitmins'
p9
I10
sS'name'
p10
S'Sequencing primer @ 80'
p11
sS'fromport'
p12
I1
sS'pump'
p13
S'/dev/ttyUSB0'
p14
sS'waste'
p15
I1
sa(dp16
g3
I5
sg4
I1000
sg5
I8
sg6
I1
sg7
I16
sg8
I0
sg9
I1
sg10
S'Wash 1x inst. buffer'
p17
sg12
I5
sg13
S'/dev/ttyUSB0'
p18
sg15
I1
sa(dp19
g3
I5
sg4
I1000
sg5
I8
sg6
I2
sg7
I16
sg8
I0
sg9
I1
sg10
S'Wash 1x inst. buffer'
p20
sg12
I5
sg13
S'/dev/ttyUSB0'
p21
sg15
I1
sa(dp22
g3
I5
sg4
I200
sg5
I8
sg6
I3
sg7
I16
sg8
I0
sg9
I45
sg10
S'T4 Ligase mix '
p23
sg12
I2
sg13
S'/dev/ttyUSB0'
p24
sg15
I1
sa(dp25
g3
I5
sg4
I1000
sg5
I8
sg6
I4
sg7
I16
sg8
I0
sg9
I1
sg10
S'Wash 1x inst. buffer'
p26
sg12
I5
sg13
S'/dev/ttyUSB0'
p27
sg15
I1
sa(dp28
g3
I5
sg4
I1000
sg5
I8
sg6
I5
sg7
I16
sg8
I0
sg9
I1
sg10
S'Wash 1x inst. buffer'
p29
sg12
I5
sg13
S'/dev/ttyUSB0'
p30
sg15
I1
sa(dp31
g3
I5
sg4
I1000
sg5
I8
sg6
I6
sg7
I16
sg8
I0
sg9
I1
sg10
S'Wash 1x inst. buffer'
p32
sg12
I5
sg13
S'/dev/ttyUSB0'
p33
sg15
I1
sa(dp34
g3
I5
sg4
I1000
sg5
I8
sg6
I7
sg7
I16
sg8
I0
sg9
I1
sg10
S'Wash 1x inst. buffer'
p35
sg12
I5
sg13
S'/dev/ttyUSB0'
p36
sg15
I1
sa(dp37
g3
I5
sg4
I200
sg5
I8
sg6
I8
sg7
I16
sg8
I1
sg9
I5
sg10
S'Cleave sol. 1'
p38
sg12
I3
sg13
S'/dev/ttyUSB0'
p39
sg15
I1
sa(dp40
g3
I5
sg4
I200
sg5
I8
sg6
I9
sg7
I16
sg8
I1
sg9
I5
sg10
S'Cleave sol. 1'
p41
sg12
I3
sg13
S'/dev/ttyUSB0'
p42
sg15
I1
sa(dp43
g3
I5
sg4
I200
sg5
I8
sg6
I10
sg7
I16
sg8
I1
sg9
I5
sg10
S'Cleave sol. 2.1'
p44
sg12
I4
sg13
S'/dev/ttyUSB0'
p45
sg15
I1
sa(dp46
g3
I5
sg4
I200
sg5
I8
sg6
I11
sg7
I16
sg8
I1
sg9
I5
sg10
S'Cleave sol. 2.1'
p47
sg12
I4
sg13
S'/dev/ttyUSB0'
p48
sg15
I1
sa(dp49
g3
I5
sg4
I1000
sg5
I8
sg6
I12
sg7
I16
sg8
I1
sg9
I1
sg10
S'Wash 1x inst. buffer'
p50
sg12
I5
sg13
S'/dev/ttyUSB0'
p51
sg15
I1
sa(dp52
g3
I5
sg4
I1000
sg5
I8
sg6
I13
sg7
I16
sg8
I1
sg9
I1
sg10
S'Wash 1x inst. buffer'
p53
sg12
I5
sg13
S'/dev/ttyUSB0'
p54
sg15
I1
sa(dp55
g3
I5
sg4
I1000
sg5
I8
sg6
I14
sg7
I16
sg8
I1
sg9
I1
sg10
S'Wash 1x inst. buffer'
p56
sg12
I5
sg13
S'/dev/ttyUSB0'
p57
sg15
I1
sa(dp58
g3
I5
sg4
I200
sg5
I8
sg6
I15
sg7
I16
sg8
I2
sg9
I45
sg10
S'T4 Ligase mix'
p59
sg12
I2
sg13
S'/dev/ttyUSB0'
p60
sg15
I1
sa(dp61
g3
I5
sg4
I1000
sg5
I8
sg6
I16
sg7
I16
sg8
I2
sg9
I1
sg10
S'Wash 1x inst. buffer'
p62
sg12
I5
sg13
S'/dev/ttyUSB0'
p63
sg15
I1
sa(dp64
g3
I5
sg4
I1000
sg5
I8
sg6
I17
sg7
I16
sg8
I2
sg9
I1
sg10
S'Wash 1x inst. buffer'
p65
sg12
I5
sg13
S'/dev/ttyUSB0'
p66
sg15
I1
sa(dp67
g3
I5
sg4
I1000
sg5
I8
sg6
I18
sg7
I16
sg8
I2
sg9
I1
sg10
S'Wash 1x inst. buffer'
p68
sg12
I5
sg13
S'/dev/ttyUSB0'
p69
sg15
I1
sa(dp70
g3
I5
sg4
I1000
sg5
I8
sg6
I19
sg7
I16
sg8
I2
sg9
I1
sg10
S'Wash 1x inst. buffer'
p71
sg12
I5
sg13
S'/dev/ttyUSB0'
p72
sg15
I1
sa(dp73
g3
I5
sg4
I200
sg5
I8
sg6
I20
sg7
I16
sg8
I3
sg9
I5
sg10
S'Cleave sol. 1'
p74
sg12
I3
sg13
S'/dev/ttyUSB0'
p75
sg15
I1
sa(dp76
g3
I5
sg4
I200
sg5
I8
sg6
I21
sg7
I16
sg8
I3
sg9
I5
sg10
S'Cleave sol. 1'
p77
sg12
I3
sg13
S'/dev/ttyUSB0'
p78
sg15
I1
sa(dp79
g3
I5
sg4
I200
sg5
I8
sg6
I22
sg7
I16
sg8
I3
sg9
I5
sg10
S'Cleave sol. 2.1'
p80
sg12
I4
sg13
S'/dev/ttyUSB0'
p81
sg15
I1
sa(dp82
g3
I5
sg4
I200
sg5
I8
sg6
I23
sg7
I16
sg8
I3
sg9
I5
sg10
S'Cleave sol. 2.1'
p83
sg12
I4
sg13
S'/dev/ttyUSB0'
p84
sg15
I1
sa(dp85
g3
I5
sg4
I1000
sg5
I8
sg6
I24
sg7
I16
sg8
I3
sg9
I1
sg10
S'Wash 1x inst. buffer'
p86
sg12
I5
sg13
S'/dev/ttyUSB0'
p87
sg15
I1
sa(dp88
g3
I5
sg4
I1000
sg5
I8
sg6
I25
sg7
I16
sg8
I3
sg9
I1
sg10
S'Wash 1x inst. buffer'
p89
sg12
I5
sg13
S'/dev/ttyUSB0'
p90
sg15
I1
sa(dp91
g3
I5
sg4
I1000
sg5
I8
sg6
I26
sg7
I16
sg8
I3
sg9
I1
sg10
S'Wash 1x inst. buffer'
p92
sg12
I5
sg13
S'/dev/ttyUSB0'
p93
sg15
I1
sa(dp94
g3
I5
sg4
I200
sg5
I8
sg6
I27
sg7
I16
sg8
I4
sg9
I45
sg10
S'T4 Ligase mix'
p95
sg12
I2
sg13
S'/dev/ttyUSB0'
p96
sg15
I1
sa(dp97
g3
I5
sg4
I1000
sg5
I8
sg6
I28
sg7
I16
sg8
I4
sg9
I1
sg10
S'Wash 1x inst. buffer'
p98
sg12
I5
sg13
S'/dev/ttyUSB0'
p99
sg15
I1
sa(dp100
g3
I5
sg4
I1000
sg5
I8
sg6
I29
sg7
I16
sg8
I4
sg9
I1
sg10
S'Wash 1x inst. buffer'
p101
sg12
I5
sg13
S'/dev/ttyUSB0'
p102
sg15
I1
sa(dp103
g3
I5
sg4
I1000
sg5
I8
sg6
I30
sg7
I16
sg8
I4
sg9
I1
sg10
S'Wash 1x inst. buffer'
p104
sg12
I5
sg13
S'/dev/ttyUSB0'
p105
sg15
I1
sa(dp106
g3
I5
sg4
I1000
sg5
I8
sg6
I31
sg7
I16
sg8
I4
sg9
I1
sg10
S'Wash 1x inst. buffer'
p107
sg12
I5
sg13
S'/dev/ttyUSB0'
p108
sg15
I1
sa(dp109
g3
I5
sg4
I200
sg5
I8
sg6
I32
sg7
I16
sg8
I5
sg9
I5
sg10
S'Cleave sol. 1'
p110
sg12
I3
sg13
S'/dev/ttyUSB0'
p111
sg15
I1
sa(dp112
g3
I5
sg4
I200
sg5
I8
sg6
I33
sg7
I16
sg8
I5
sg9
I5
sg10
S'Cleave sol. 1'
p113
sg12
I3
sg13
S'/dev/ttyUSB0'
p114
sg15
I1
sa(dp115
g3
I5
sg4
I200
sg5
I8
sg6
I34
sg7
I16
sg8
I5
sg9
I5
sg10
S'Cleave sol. 2.1'
p116
sg12
I4
sg13
S'/dev/ttyUSB0'
p117
sg15
I1
sa(dp118
g3
I5
sg4
I200
sg5
I8
sg6
I35
sg7
I16
sg8
I5
sg9
I5
sg10
S'Cleave sol. 2.1'
p119
sg12
I4
sg13
S'/dev/ttyUSB0'
p120
sg15
I1
sa(dp121
g3
I5
sg4
I1000
sg5
I8
sg6
I36
sg7
I16
sg8
I5
sg9
I1
sg10
S'Wash 1x inst. buffer'
p122
sg12
I5
sg13
S'/dev/ttyUSB0'
p123
sg15
I1
sa(dp124
g3
I5
sg4
I1000
sg5
I8
sg6
I37
sg7
I16
sg8
I5
sg9
I1
sg10
S'Wash 1x inst. buffer'
p125
sg12
I5
sg13
S'/dev/ttyUSB0'
p126
sg15
I1
sa(dp127
g3
I5
sg4
I1000
sg5
I8
sg6
I38
sg7
I16
sg8
I5
sg9
I1
sg10
S'Wash 1x inst. buffer'
p128
sg12
I5
sg13
S'/dev/ttyUSB0'
p129
sg15
I1
sa(dp130
g3
I5
sg4
I200
sg5
I8
sg6
I39
sg7
I16
sg8
I6
sg9
I45
sg10
S'T4 Ligase mix'
p131
sg12
I2
sg13
S'/dev/ttyUSB0'
p132
sg15
I1
sa(dp133
g3
I5
sg4
I1000
sg5
I8
sg6
I40
sg7
I16
sg8
I6
sg9
I1
sg10
S'Wash 1x inst. buffer'
p134
sg12
I5
sg13
S'/dev/ttyUSB0'
p135
sg15
I1
sa(dp136
g3
I5
sg4
I1000
sg5
I8
sg6
I41
sg7
I16
sg8
I6
sg9
I1
sg10
S'Wash 1x inst. buffer'
p137
sg12
I5
sg13
S'/dev/ttyUSB0'
p138
sg15
I1
sa(dp139
g3
I5
sg4
I1000
sg5
I8
sg6
I42
sg7
I16
sg8
I6
sg9
I1
sg10
S'Wash 1x inst. buffer'
p140
sg12
I5
sg13
S'/dev/ttyUSB0'
p141
sg15
I1
sa(dp142
g3
I5
sg4
I1000
sg5
I8
sg6
I43
sg7
I16
sg8
I6
sg9
I1
sg10
S'Wash 1x inst. buffer'
p143
sg12
I5
sg13
S'/dev/ttyUSB0'
p144
sg15
I1
sa(dp145
g3
I5
sg4
I200
sg5
I8
sg6
I44
sg7
I16
sg8
I7
sg9
I5
sg10
S'Cleave sol. 1'
p146
sg12
I3
sg13
S'/dev/ttyUSB0'
p147
sg15
I1
sa(dp148
g3
I5
sg4
I200
sg5
I8
sg6
I45
sg7
I16
sg8
I7
sg9
I5
sg10
S'Cleave sol. 1'
p149
sg12
I3
sg13
S'/dev/ttyUSB0'
p150
sg15
I1
sa(dp151
g3
I5
sg4
I200
sg5
I8
sg6
I46
sg7
I16
sg8
I7
sg9
I5
sg10
S'Cleave sol. 2.1'
p152
sg12
I4
sg13
S'/dev/ttyUSB0'
p153
sg15
I1
sa(dp154
g3
I5
sg4
I200
sg5
I8
sg6
I47
sg7
I16
sg8
I7
sg9
I5
sg10
S'Cleave sol. 2.1'
p155
sg12
I4
sg13
S'/dev/ttyUSB0'
p156
sg15
I1
sa(dp157
g3
I5
sg4
I1000
sg5
I8
sg6
I48
sg7
I16
sg8
I7
sg9
I1
sg10
S'Wash 1x inst. buffer'
p158
sg12
I5
sg13
S'/dev/ttyUSB0'
p159
sg15
I1
sa(dp160
g3
I5
sg4
I1000
sg5
I8
sg6
I49
sg7
I16
sg8
I7
sg9
I1
sg10
S'Wash 1x inst. buffer'
p161
sg12
I5
sg13
S'/dev/ttyUSB0'
p162
sg15
I1
sa(dp163
g3
I5
sg4
I1000
sg5
I8
sg6
I50
sg7
I16
sg8
I7
sg9
I1
sg10
S'Wash 1x inst. buffer'
p164
sg12
I5
sg13
S'/dev/ttyUSB0'
p165
sg15
I1
sa(dp166
g3
I5
sg4
I200
sg5
I8
sg6
I51
sg7
I16
sg8
I8
sg9
I45
sg10
S'T4 Ligase mix'
p167
sg12
I2
sg13
S'/dev/ttyUSB0'
p168
sg15
I1
sa(dp169
g3
I5
sg4
I1000
sg5
I8
sg6
I52
sg7
I16
sg8
I8
sg9
I1
sg10
S'Wash 1x inst. buffer'
p170
sg12
I5
sg13
S'/dev/ttyUSB0'
p171
sg15
I1
sa(dp172
g3
I5
sg4
I1000
sg5
I8
sg6
I53
sg7
I16
sg8
I8
sg9
I1
sg10
S'Wash 1x inst. buffer'
p173
sg12
I5
sg13
S'/dev/ttyUSB0'
p174
sg15
I1
sa(dp175
g3
I5
sg4
I1000
sg5
I8
sg6
I54
sg7
I16
sg8
I8
sg9
I1
sg10
S'Wash 1x inst. buffer'
p176
sg12
I5
sg13
S'/dev/ttyUSB0'
p177
sg15
I1
sa(dp178
g3
I5
sg4
I1000
sg5
I8
sg6
I55
sg7
I16
sg8
I8
sg9
I1
sg10
S'Wash 1x inst. buffer'
p179
sg12
I5
sg13
S'/dev/ttyUSB0'
p180
sg15
I1
sa(dp181
g3
I5
sg4
I200
sg5
I8
sg6
I56
sg7
I16
sg8
I9
sg9
I5
sg10
S'Cleave sol. 1'
p182
sg12
I3
sg13
S'/dev/ttyUSB0'
p183
sg15
I1
sa(dp184
g3
I5
sg4
I200
sg5
I8
sg6
I57
sg7
I16
sg8
I9
sg9
I5
sg10
S'Cleave sol. 1'
p185
sg12
I3
sg13
S'/dev/ttyUSB0'
p186
sg15
I1
sa(dp187
g3
I5
sg4
I200
sg5
I8
sg6
I58
sg7
I16
sg8
I9
sg9
I5
sg10
S'Cleave sol. 2.1'
p188
sg12
I4
sg13
S'/dev/ttyUSB0'
p189
sg15
I1
sa(dp190
g3
I5
sg4
I200
sg5
I8
sg6
I59
sg7
I16
sg8
I9
sg9
I5
sg10
S'Cleave sol. 2.1'
p191
sg12
I4
sg13
S'/dev/ttyUSB0'
p192
sg15
I1
sa(dp193
g3
I5
sg4
I1
sg5
I8
sg6
I60
sg7
I16
sg8
I9
sg9
I1
sg10
S'Wash 1x inst. buffer'
p194
sg12
I5
sg13
S'/dev/ttyUSB0'
p195
sg15
I1
sa(dp196
g3
I5
sg4
I1
sg5
I8
sg6
I61
sg7
I16
sg8
I9
sg9
I1
sg10
S'Wash 1x inst. buffer'
p197
sg12
I5
sg13
S'/dev/ttyUSB0'
p198
sg15
I1
sa(dp199
g3
I5
sg4
I1
sg5
I8
sg6
I62
sg7
I16
sg8
I9
sg9
I1
sg10
S'Wash 1x inst. buffer'
p200
sg12
I5
sg13
S'/dev/ttyUSB0'
p201
sg15
I1
sa.